BL51 BANKED LINKER/LOCATER V6.22.2.0                                                    09/14/2021  15:59:56  PAGE 1


BL51 BANKED LINKER/LOCATER V6.22.2.0, INVOKED BY:
C:\KEIL_V5\C51\BIN\BL51.EXE .\Objects\main.obj, .\Objects\Accescan.obj, .\Objects\Clock.obj, .\Objects\delay.obj, .\Obje
>> cts\eeprom.obj, .\Objects\io_sensores.obj, .\Objects\pantallas.obj, .\Objects\prog.obj, .\Objects\pto_paralelo.obj, .
>> \Objects\tibbo.obj, .\Objects\uart.obj, .\Objects\lintech.obj, .\Objects\verificador.obj, .\Objects\Monitor.obj TO .\
>> Objects\expedidor_v_101 PRINT (.\Listings\expedidor_v_101.m51) RAMSIZE (256)


MEMORY MODEL: LARGE WITH FLOATING POINT ARITHMETIC


INPUT MODULES INCLUDED:
  .\Objects\main.obj (MAIN)
  .\Objects\Accescan.obj (ACCESCAN)
  .\Objects\Clock.obj (CLOCK)
  .\Objects\delay.obj (DELAY)
  .\Objects\eeprom.obj (EEPROM)
  .\Objects\io_sensores.obj (IO_SENSORES)
  .\Objects\pantallas.obj (PANTALLAS)
  .\Objects\prog.obj (PROG)
  .\Objects\pto_paralelo.obj (PTO_PARALELO)
  .\Objects\tibbo.obj (TIBBO)
  .\Objects\uart.obj (UART)
  .\Objects\lintech.obj (LINTECH)
  .\Objects\verificador.obj (VERIFICADOR)
  .\Objects\Monitor.obj (MONITOR)
  C:\KEIL_V5\C51\LIB\C51FPL.LIB (?C?FPADD)
  C:\KEIL_V5\C51\LIB\C51FPL.LIB (?C?FPMUL)
  C:\KEIL_V5\C51\LIB\C51FPL.LIB (?C?FCAST)
  C:\KEIL_V5\C51\LIB\C51FPL.LIB (?C?CASTF)
  C:\KEIL_V5\C51\LIB\C51FPL.LIB (PRINTF)
  C:\KEIL_V5\C51\LIB\C51FPL.LIB (POW)
  C:\KEIL_V5\C51\LIB\C51FPL.LIB (?C?FPGETOPN)
  C:\KEIL_V5\C51\LIB\C51FPL.LIB (?C?CHKFLOAT)
  C:\KEIL_V5\C51\LIB\C51FPL.LIB (?C?FPCMP)
  C:\KEIL_V5\C51\LIB\C51FPL.LIB (?C?FPNEG)
  C:\KEIL_V5\C51\LIB\C51FPL.LIB (?C?FPROUND)
  C:\KEIL_V5\C51\LIB\C51FPL.LIB (?C?FPCONVERT)
  C:\KEIL_V5\C51\LIB\C51FPL.LIB (EXP)
  C:\KEIL_V5\C51\LIB\C51FPL.LIB (LOG)
  C:\KEIL_V5\C51\LIB\C51FPL.LIB (?C?FPDIV)
  C:\KEIL_V5\C51\LIB\C51FPL.LIB (?C?FTNPWR)
  C:\KEIL_V5\C51\LIB\C51FPL.LIB (?C?FPSERIES)
  C:\KEIL_V5\C51\LIB\C51L.LIB (?C_STARTUP)
  C:\KEIL_V5\C51\LIB\C51L.LIB (?C?COPY)
  C:\KEIL_V5\C51\LIB\C51L.LIB (?C?CLDPTR)
  C:\KEIL_V5\C51\LIB\C51L.LIB (?C?CLDOPTR)
  C:\KEIL_V5\C51\LIB\C51L.LIB (?C?CSTPTR)
  C:\KEIL_V5\C51\LIB\C51L.LIB (?C?CSTOPTR)
  C:\KEIL_V5\C51\LIB\C51L.LIB (?C?IMUL)
  C:\KEIL_V5\C51\LIB\C51L.LIB (?C?IILDX)
  C:\KEIL_V5\C51\LIB\C51L.LIB (?C?LNEG)
  C:\KEIL_V5\C51\LIB\C51L.LIB (?C?SLCMP)
  C:\KEIL_V5\C51\LIB\C51L.LIB (?C?ULCMP)
  C:\KEIL_V5\C51\LIB\C51L.LIB (?C?ULSHR)
  C:\KEIL_V5\C51\LIB\C51L.LIB (?C?LSHL)
  C:\KEIL_V5\C51\LIB\C51L.LIB (?C?LLDCODE)
  C:\KEIL_V5\C51\LIB\C51L.LIB (?C?LLDXDATA0)
  C:\KEIL_V5\C51\LIB\C51L.LIB (?C?LLDCODE0)
BL51 BANKED LINKER/LOCATER V6.22.2.0                                                  09/14/2021  15:59:56  PAGE 2


  C:\KEIL_V5\C51\LIB\C51L.LIB (?C?LSTXDATA)
  C:\KEIL_V5\C51\LIB\C51L.LIB (?C?LSTKXDATA)
  C:\KEIL_V5\C51\LIB\C51L.LIB (?C?PLDIXDATA)
  C:\KEIL_V5\C51\LIB\C51L.LIB (?C?PSTXDATA)
  C:\KEIL_V5\C51\LIB\C51L.LIB (?C?CCASE)
  C:\KEIL_V5\C51\LIB\C51L.LIB (STRCAT)
  C:\KEIL_V5\C51\LIB\C51L.LIB (?C?STRCMP)
  C:\KEIL_V5\C51\LIB\C51L.LIB (?C?STRCPY)
  C:\KEIL_V5\C51\LIB\C51L.LIB (STRLEN)
  C:\KEIL_V5\C51\LIB\C51L.LIB (STRTOK)
  C:\KEIL_V5\C51\LIB\C51L.LIB (ATOL)
  C:\KEIL_V5\C51\LIB\C51L.LIB (ATOI)
  C:\KEIL_V5\C51\LIB\C51L.LIB (?C_INIT)
  C:\KEIL_V5\C51\LIB\C51L.LIB (?C?ILDIX)
  C:\KEIL_V5\C51\LIB\C51L.LIB (?C?LMUL)
  C:\KEIL_V5\C51\LIB\C51L.LIB (ISDIGIT)
  C:\KEIL_V5\C51\LIB\C51L.LIB (ISSPACE)
  C:\KEIL_V5\C51\LIB\C51L.LIB (STRSPN)
  C:\KEIL_V5\C51\LIB\C51L.LIB (STRPBRK)


LINK MAP OF MODULE:  .\Objects\expedidor_v_101 (MAIN)


            TYPE    BASE      LENGTH    RELOCATION   SEGMENT NAME
            -----------------------------------------------------

            * * * * * * *   D A T A   M E M O R Y   * * * * * * *
            REG     0000H     0008H     ABSOLUTE     "REG BANK 0"
            DATA    0008H     0005H     UNIT         _DATA_GROUP_
            DATA    000DH     0004H     UNIT         ?DT?UART
            IDATA   0011H     0009H     UNIT         ?ID?MONITOR
                    001AH     0006H                  *** GAP ***
            BIT     0020H.0   0001H.1   UNIT         _BIT_GROUP_
            BIT     0021H.1   0000H.3   UNIT         ?BI?MAIN
            BIT     0021H.4   0000H.2   UNIT         ?BI?UART
            BIT     0021H.6   0000H.1   UNIT         ?BI?EEPROM
            BIT     0021H.7   0000H.1   UNIT         ?BI?IO_SENSORES
            BIT     0022H.0   0000H.1   UNIT         ?BI?VERIFICADOR
                    0022H.1   0000H.7                *** GAP ***
            IDATA   0023H     0046H     UNIT         ?ID?MAIN
            IDATA   0069H     0001H     UNIT         ?STACK

            * * * * * * *  X D A T A   M E M O R Y  * * * * * * *
            XDATA   0000H     00B7H     UNIT         _XDATA_GROUP_
            XDATA   00B7H     0091H     UNIT         ?XD?VERIFICADOR
            XDATA   0148H     006EH     UNIT         ?XD?MAIN
            XDATA   01B6H     005CH     UNIT         ?XD?PROG
            XDATA   0212H     0003H     UNIT         ?XD?EEPROM
            XDATA   0215H     0003H     UNIT         ?XD?UART
            XDATA   0218H     0003H     UNIT         ?XD?STRTOK
            XDATA   021BH     0002H     UNIT         ?XD?IO_SENSORES
            XDATA   021DH     0001H     UNIT         ?XD?ACCESCAN
            XDATA   021EH     0001H     UNIT         ?XD?CLOCK

            * * * * * * *   C O D E   M E M O R Y   * * * * * * *
            CODE    0000H     0003H     ABSOLUTE     
BL51 BANKED LINKER/LOCATER V6.22.2.0                                                  09/14/2021  15:59:56  PAGE 3


            CODE    0003H     0008H     UNIT         ?PR?P_CK?CLOCK
            CODE    000BH     0003H     ABSOLUTE     
            CODE    000EH     0015H     UNIT         ?PR?_STRLEN?STRLEN
            CODE    0023H     0003H     ABSOLUTE     
            CODE    0026H     1430H     UNIT         ?CO?PROG
            CODE    1456H     0B8BH     UNIT         ?C?LIB_CODE
            CODE    1FE1H     06EFH     UNIT         ?CO?PANTALLAS
            CODE    26D0H     0681H     UNIT         ?CO?VERIFICADOR
            CODE    2D51H     062CH     UNIT         ?PR?_PANTALLALCD?PANTALLAS
            CODE    337DH     0532H     UNIT         ?PR?_VALIDA_TRAMA_PTO?ACCESCAN
            CODE    38AFH     04D6H     UNIT         ?PR?_SECUENCIAEXPEDIDORMF?VERIFICADOR
            CODE    3D85H     0483H     UNIT         ?PR?PRINTF?PRINTF
            CODE    4208H     03C8H     UNIT         ?PR?VER_PROG?PROG
            CODE    45D0H     02D0H     UNIT         ?PR?_TWO_BYTEHEX_DECIMAL?CLOCK
            CODE    48A0H     02B7H     UNIT         ?PR?_PROG_HORARIO_DIAS?PROG
            CODE    4B57H     02A5H     UNIT         ?PR?_PANTALLALCD_LINEA_2?PANTALLAS
            CODE    4DFCH     02A3H     UNIT         ?PR?_ARMAR_TRAMA_MONITOR?VERIFICADOR
            CODE    509FH     0256H     UNIT         ?PR?_ARMAR_TRAMA_PTO_PARALELO_EXPEDIDOR?VERIFICADOR
            CODE    52F5H     0254H     UNIT         ?PR?MENU?PROG
            CODE    5549H     0208H     UNIT         ?PR?_HASH_ID?PROG
            CODE    5751H     01FAH     UNIT         ?PR?_PROG_HORARIO_DESDE_HASTA?PROG
            CODE    594BH     01F5H     UNIT         ?PR?PROG_FECHA_VENCIMIENTO?PROG
            CODE    5B40H     01F5H     UNIT         ?PR?COM_ISR?UART
            CODE    5D35H     01EBH     UNIT         ?PR?_ARMAR_TRAMA_TARJETA_SECTOR1_BLOQUE2?VERIFICADOR
            CODE    5F20H     01DDH     UNIT         ?PR?_RESPONDE_LECTURA_TARJETA_SECTOR1_BLOQUE1?VERIFICADOR
            CODE    60FDH     01D8H     UNIT         ?PR?_BLOCK_READ_CLOCK_ASCII_RASBERRY?CLOCK
            CODE    62D5H     01A3H     UNIT         ?CO?LINTECH
            CODE    6478H     016EH     UNIT         ?PR?_BLOCK_READ_CLOCK_ASCII?CLOCK
            CODE    65E6H     0166H     UNIT         ?PR?_POW?POW
            CODE    674CH     014FH     UNIT         ?PR?_RESPONDE_REELECTURA_TARJETA_SECTOR1_BLOQUE2?VERIFICADOR
            CODE    689BH     014BH     UNIT         ?PR?_RECIBE_CMD_MONITOR?MONITOR
            CODE    69E6H     0145H     UNIT         ?PR?PROG_HORARIOS?PROG
            CODE    6B2BH     013EH     UNIT         ?PR?PROG_SIN_COBRO?PROG
            CODE    6C69H     013EH     UNIT         ?PR?SECUENCIA_INICIO_EXPEDIDOR?VERIFICADOR
            CODE    6DA7H     013CH     UNIT         ?PR?LOAD_AND_SEND_ID_COD?PTO_PARALELO
            CODE    6EE3H     0137H     UNIT         ?PR?VER_HORARIO?PROG
            CODE    701AH     012EH     UNIT         ?PR?_ARMAR_TRAMA_PTO_PARALELO_EXPEDIDOR_MENSUAL?VERIFICADOR
            CODE    7148H     0129H     UNIT         ?PR?_RESPONDE_LECTURA_TARJETA_SECTOR1_BLOQUE2?VERIFICADOR
            CODE    7271H     0129H     UNIT         ?PR?LOG?LOG
            CODE    739AH     0128H     UNIT         ?PR?_VER_HORARIO_DIAS?PROG
            CODE    74C2H     011AH     UNIT         ?PR?_PROG_HORARIOS_ON_OFF?PROG
            CODE    75DCH     0119H     UNIT         ?PR?_VER_HORARIO_DESDE_HASTA?PROG
            CODE    76F5H     0115H     UNIT         ?PR?_VALIDAR_CLK?CLOCK
            CODE    780AH     010CH     UNIT         ?PR?_ATOL?ATOL
            CODE    7916H     0100H     UNIT         ?PR?_WR_MF?LINTECH
            CODE    7A16H     00FCH     UNIT         ?PR?PROG_DEBUG?PROG
            CODE    7B12H     00FCH     UNIT         ?PR?PROG_USE_LPR?PROG
            CODE    7C0EH     00FCH     UNIT         ?PR?TIPO_PANTALLA?PROG
            CODE    7D0AH     00FCH     UNIT         ?PR?PROG_ANTIPASSBACK?PROG
            CODE    7E06H     00FCH     UNIT         ?PR?PROG_PLACA?PROG
            CODE    7F02H     00FCH     UNIT         ?PR?PROG_VALIDAR_TIPO_VEHICULO_MENSUAL?PROG
            CODE    7FFEH     00FCH     UNIT         ?PR?PROG_APB_MENSUAL?PROG
            CODE    80FAH     00FCH     UNIT         ?PR?PROG_MENSUALES?PROG
            CODE    81F6H     00F1H     UNIT         ?PR?_WRITE_EEPROM_TICKET?EEPROM
            CODE    82E7H     00F0H     UNIT         ?CO?IO_SENSORES
            CODE    83D7H     00EAH     UNIT         ?PR?_MOV_CARD?LINTECH
            CODE    84C1H     00E4H     UNIT         ?PR?_STRTOK?STRTOK
BL51 BANKED LINKER/LOCATER V6.22.2.0                                                  09/14/2021  15:59:56  PAGE 4


            CODE    85A5H     00DEH     UNIT         ?PR?PROG_ADDRESS_HIGH_BOARD?PROG
            CODE    8683H     00DCH     UNIT         ?PR?_RTA_CMD_TRANSPORTE?VERIFICADOR
            CODE    875FH     00DBH     UNIT         ?PR?_ATOI?ATOI
            CODE    883AH     00DAH     UNIT         ?C_INITSEG
            CODE    8914H     00DAH     UNIT         ?PR?_VALIDA_TIPO_TARJETA?VERIFICADOR
            CODE    89EEH     00D7H     UNIT         ?PR?_ANALIZA_UID_CARD?VERIFICADOR
            CODE    8AC5H     00D6H     UNIT         ?PR?_CMD_LPR_SALIDA_WIEGAND?ACCESCAN
            CODE    8B9BH     00CFH     UNIT         ?PR?_DWLOAD_EEPROM_PROG?LINTECH
            CODE    8C6AH     00CCH     UNIT         ?PR?_GRABA_SERIE?EEPROM
            CODE    8D36H     00CAH     UNIT         ?PR?READ_EEPROM_TICKET?EEPROM
            CODE    8E00H     00C9H     UNIT         ?PR?_CHECK_FECHAOUT?CLOCK
            CODE    8EC9H     00C4H     UNIT         ?PR?_BLOCK_READ_CLOCK?CLOCK
            CODE    8F8DH     00C3H     UNIT         ?PR?_RD_MF?LINTECH
            CODE    9050H     00C2H     UNIT         ?PR?PROG_TARJETA_AUTOMATICA_O_BOTON?PROG
            CODE    9112H     00BEH     UNIT         ?PR?ERROR_RX_PTO?VERIFICADOR
            CODE    91D0H     00BDH     UNIT         ?PR?PROG_COD_PARK?PROG
            CODE    928DH     00BDH     UNIT         ?PR?PROG_TIEMPO_GRACIA?PROG
            CODE    934AH     00BDH     UNIT         ?PR?_VALIDA_TRAMA_MONITOR?MONITOR
            CODE    9407H     00B9H     UNIT         ?CO?TIBBO
            CODE    94C0H     00B6H     UNIT         ?PR?PROG_ID_CLIENTE?PROG
            CODE    9576H     00B2H     UNIT         ?PR?_SEND_PORT?PTO_PARALELO
            CODE    9628H     00AFH     UNIT         ?PR?MSJ_LCD_INFORMATIVO?IO_SENSORES
            CODE    96D7H     00AAH     UNIT         ?PR?CLAVE_SEGURIDAD_S2?LINTECH
            CODE    9781H     00A9H     UNIT         ?PR?DWLOAD_EEPROM?LINTECH
            CODE    982AH     00A6H     UNIT         ?PR?_BLOCK_READ_CLOCK_HEX?CLOCK
            CODE    98D0H     00A5H     UNIT         ?PR?_SEND_PTO_PARALELO?VERIFICADOR
            CODE    9975H     00A2H     UNIT         ?PR?SHOW?PROG
            CODE    9A17H     00A1H     UNIT         ?PR?_BLOCK_WRITE_CLOCK_ASCII?CLOCK
            CODE    9AB8H     009EH     UNIT         ?PR?INGRESO_VEHICULO?VERIFICADOR
            CODE    9B56H     009DH     UNIT         ?PR?_INICIALIZA?LINTECH
            CODE    9BF3H     009BH     UNIT         ?PR?ENTREGA_CARD_CAPTURA?VERIFICADOR
            CODE    9C8EH     009AH     UNIT         ?PR?EXP?EXP
            CODE    9D28H     0099H     UNIT         ?PR?_RECIBE_PORT?PTO_PARALELO
            CODE    9DC1H     0098H     UNIT         ?PR?_RESPONDE_LECTURA_TARJETA_SECTOR1_BLOQUE0?VERIFICADOR
            CODE    9E59H     0091H     UNIT         ?PR?_HEX_ASCII?CLOCK
            CODE    9EEAH     0091H     UNIT         ?PR?_CARD_INSERCION?LINTECH
            CODE    9F7BH     0090H     UNIT         ?PR?_LEE_CLK?CLOCK
            CODE    A00BH     0090H     UNIT         ?PR?_GETOPTION?PROG
            CODE    A09BH     0090H     UNIT         ?PR?_DISPARO_LOCK_ENTRADA_VEHICULO?VERIFICADOR
            CODE    A12BH     008DH     UNIT         ?PR?LOADVERIFY_EEPROM?LINTECH
            CODE    A1B8H     008DH     UNIT         ?PR?WAIT_PLACA?VERIFICADOR
            CODE    A245H     008CH     UNIT         ?C_C51STARTUP
            CODE    A2D1H     0088H     UNIT         ?PR?_SEND_PORTERR?PTO_PARALELO
            CODE    A359H     0088H     UNIT         ?PR?RX_DATA?TIBBO
            CODE    A3E1H     0088H     UNIT         ?PR?UNIQUE_IDENTIFIER_UID?LINTECH
            CODE    A469H     0087H     UNIT         ?PR?_RESPONDE_WRITE_TARJETA_SECTOR1_BLOQUE2?VERIFICADOR
            CODE    A4F0H     0086H     UNIT         ?PR?_CHECK_STATUS?LINTECH
            CODE    A576H     0084H     UNIT         ?PR?_DEBUGBUFFERMF?TIBBO
            CODE    A5FAH     0084H     UNIT         ?PR?_ARMAR_TRAMA_PLACA?VERIFICADOR
            CODE    A67EH     0084H     UNIT         ?PR?_STRSPN?STRSPN
            CODE    A702H     0083H     UNIT         ?PR?_RASPBERRY_DATA?PANTALLAS
            CODE    A785H     0082H     UNIT         ?PR?RESPONDE_TIPO_TARJETA?VERIFICADOR
            CODE    A807H     0081H     UNIT         ?PR?MAIN?MAIN
            CODE    A888H     0081H     UNIT         ?PR?_STRPBRK?STRPBRK
            CODE    A909H     0080H     UNIT         ?PR?_INGRESADATO?PROG
            CODE    A989H     0080H     UNIT         ?PR?AUT_CARD_CHECK_STATUS?LINTECH
            CODE    AA09H     0080H     UNIT         ?PR?POWER_OFF?LINTECH
BL51 BANKED LINKER/LOCATER V6.22.2.0                                                  09/14/2021  15:59:56  PAGE 5


            CODE    AA89H     007DH     UNIT         ?PR?RELOJ_PANTALLA_LCD?PANTALLAS
            CODE    AB06H     0078H     UNIT         ?PR?RESPONDE_ESTADO_SENSORES_TRANSPORTE?VERIFICADOR
            CODE    AB7EH     0074H     UNIT         ?PR?_HORA_ENTRADA_VEHICULO?CLOCK
            CODE    ABF2H     006FH     UNIT         ?PR?_ESCRIBIRMEMORIA?EEPROM
            CODE    AC61H     006BH     UNIT         ?PR?_STRCAT?STRCAT
            CODE    ACCCH     0066H     UNIT         ?PR?_LEERMEMORIA?EEPROM
            CODE    AD32H     0062H     UNIT         ?PR?_LISTACOMANDOS?PROG
            CODE    AD94H     005EH     UNIT         ?PR?_BYTEHEX_DECIMAL?CLOCK
            CODE    ADF2H     005DH     UNIT         ?PR?_PREGUNTA_LPR?VERIFICADOR
            CODE    AE4FH     005DH     UNIT         ?PR?_RESPUESTA_SEGUNDA_CLAVE?VERIFICADOR
            CODE    AEACH     005BH     UNIT         ?PR?VALIDA_SENSOR1_AUTO?IO_SENSORES
            CODE    AF07H     0057H     UNIT         ?PR?FORMATO_EEPROM?EEPROM
            CODE    AF5EH     0056H     UNIT         ?PR?_WR_EEPROM?EEPROM
            CODE    AFB4H     0051H     UNIT         ?PR?TIMER_MONITOR_CHAR?MONITOR
            CODE    B005H     004FH     UNIT         ?PR?_DEBUG_BUFFER_RS232_LCD?TIBBO
            CODE    B054H     004DH     UNIT         ?PR?VARIABLE_INICIO?MAIN
            CODE    B0A1H     004DH     UNIT         ?PR?L_D_M?EEPROM
            CODE    B0EEH     004CH     UNIT         ?PR?LEE_NO_TICKET?EEPROM
            CODE    B13AH     004CH     UNIT         ?PR?LOAD_AND_SEND_INFO_RELOJ?PTO_PARALELO
            CODE    B186H     004BH     UNIT         ?PR?_TX_AUX?TIBBO
            CODE    B1D1H     0049H     UNIT         ?PR?_DEBUG_TXT_TIBBO?TIBBO
            CODE    B21AH     0048H     UNIT         ?PR?FIRST_CLAVE?PROG
            CODE    B262H     0047H     UNIT         ?PR?_DEBUG_CHR_TIBBO?TIBBO
            CODE    B2A9H     0047H     UNIT         ?PR?_DEBUG_CHR_RS232_LCD?TIBBO
            CODE    B2F0H     0047H     UNIT         ?PR?_RESPONDE_WRITE_TARJETA_SECTOR2_BLOQUE0?VERIFICADOR
            CODE    B337H     0047H     UNIT         ?PR?RESPUESTA_PLACA_CANCEL?VERIFICADOR
            CODE    B37EH     0046H     UNIT         ?PR?_ESCRIBIRCADENASOFT_BUFFER?MAIN
            CODE    B3C4H     0046H     UNIT         ?PR?_LCD_TXT_NUM_CHAR?PANTALLAS
            CODE    B40AH     0046H     UNIT         ?PR?_DEBUG_HEXDEC?TIBBO
            CODE    B450H     0044H     UNIT         ?PR?_LCD_TXT?PANTALLAS
            CODE    B494H     0043H     UNIT         ?PR?DIR_BOARD?IO_SENSORES
            CODE    B4D7H     0042H     UNIT         ?CO?EEPROM
            CODE    B519H     0042H     UNIT         ?PR?_VALIDARCLAVE?PROG
            CODE    B55BH     0041H     UNIT         ?PR?_MONITOR_CHR?ACCESCAN
            CODE    B59CH     0041H     UNIT         ?PR?_TWO_ONE?CLOCK
            CODE    B5DDH     0040H     UNIT         ?PR?_GETCMD?PROG
            CODE    B61DH     0040H     UNIT         ?PR?_DEBUG_PTO_PARALELO?TIBBO
            CODE    B65DH     003FH     UNIT         ?PR?_EB_CLK?CLOCK
            CODE    B69CH     003EH     UNIT         ?PR?_PUTCHAR?MAIN
            CODE    B6DAH     003EH     UNIT         ?PR?COM_BAUDRATE?UART
            CODE    B718H     003EH     UNIT         ?PR?TRAMA_VALIDACION_P_N?VERIFICADOR
            CODE    B756H     003DH     UNIT         ?PR?_HEX_BCD?CLOCK
            CODE    B793H     003DH     UNIT         ?PR?_RD_EEPROM?EEPROM
            CODE    B7D0H     003DH     UNIT         ?PR?_DEBUG_MONITOR?TIBBO
            CODE    B80DH     003DH     UNIT         ?PR?_LOAD_SECUENCIA_EXPEDIDOR?VERIFICADOR
            CODE    B84AH     003CH     UNIT         ?PR?CONFIRMACION?EEPROM
            CODE    B886H     003BH     UNIT         ?CO?ACCESCAN
            CODE    B8C1H     003BH     UNIT         ?PR?_COM_PUTCHAR?UART
            CODE    B8FCH     003AH     UNIT         ?PR?_DELAY_10MS?DELAY
            CODE    B936H     0039H     UNIT         ?PR?RX_MONITOR?MONITOR
            CODE    B96FH     0038H     UNIT         ?PR?VALIDASENSORESPASO?IO_SENSORES
            CODE    B9A7H     0038H     UNIT         ?PR?_DEBUG_TXT_RS232?TIBBO
            CODE    B9DFH     0036H     UNIT         ?PR?_RESPONDE_WRITE_TARJETA_SECTOR1_BLOQUE1?VERIFICADOR
            CODE    BA15H     0036H     UNIT         ?PR?_RESPONDE_WRITE_TARJETA_SECTOR1_BLOQUE0?VERIFICADOR
            CODE    BA4BH     0034H     UNIT         ?PR?INCREMENTE_TICKET?EEPROM
            CODE    BA7FH     0034H     UNIT         ?PR?ADDR_HORARIOS?PROG
            CODE    BAB3H     0031H     UNIT         ?PR?_TARJETA_ROTACION?VERIFICADOR
BL51 BANKED LINKER/LOCATER V6.22.2.0                                                  09/14/2021  15:59:56  PAGE 6


            CODE    BAE4H     0030H     UNIT         ?PR?PREGUNTA_PLACA_HABILITADA?VERIFICADOR
            CODE    BB14H     0030H     UNIT         ?PR?_ARMAR_TRAMA_TARJETA_SECTOR1_BLOQUE0?VERIFICADOR
            CODE    BB44H     002EH     UNIT         ?PR?TIMER0_INT?MAIN
            CODE    BB72H     002AH     UNIT         ?PR?COM_INITIALIZE?UART
            CODE    BB9CH     002AH     UNIT         ?PR?ANALIZA_PRESENCIA_ROTACION?VERIFICADOR
            CODE    BBC6H     0028H     UNIT         ?PR?_WR_CLK?CLOCK
            CODE    BBEEH     0027H     UNIT         ?PR?_TX_CHRLCD?PANTALLAS
            CODE    BC15H     0026H     UNIT         ?PR?COM_GETCHAR?UART
            CODE    BC3BH     0022H     UNIT         ?PR?_E_D_M?EEPROM
            CODE    BC5DH     0022H     UNIT         ?PR?VALIDASENSOR_CERO?IO_SENSORES
            CODE    BC7FH     0021H     UNIT         ?CO?PTO_PARALELO
            CODE    BCA0H     0020H     UNIT         ?PR?ACKD?EEPROM
            CODE    BCC0H     0020H     UNIT         ?PR?ACK_LECT?EEPROM
            CODE    BCE0H     001FH     UNIT         ?PR?VALIDASENSOR?IO_SENSORES
            CODE    BCFFH     001EH     UNIT         ?PR?_BCD_HEX?CLOCK
            CODE    BD1DH     001BH     UNIT         ?PR?_DELAY_1MS?DELAY
            CODE    BD38H     001AH     UNIT         ?PR?CLEAR_PLACA?MONITOR
            CODE    BD52H     0017H     UNIT         ?PR?DISPLAYCURSOR?PROG
            CODE    BD69H     0016H     UNIT         ?PR?DIR_BOARD_MONITOR?IO_SENSORES
            CODE    BD7FH     0016H     UNIT         ?PR?TIME_BIT?TIBBO
            CODE    BD95H     0014H     UNIT         ?CO?CLOCK
            CODE    BDA9H     0014H     UNIT         ?PR?_ISSPACE?ISSPACE
            CODE    BDBDH     0012H     UNIT         ?PR?_DELAY_20US?DELAY
            CODE    BDCFH     0012H     UNIT         ?PR?START?EEPROM
            CODE    BDE1H     0012H     UNIT         ?PR?BOTTON?IO_SENSORES
            CODE    BDF3H     0012H     UNIT         ?PR?PULSO_BUS?PTO_PARALELO
            CODE    BE05H     0012H     UNIT         ?PR?COM_RBUFLEN?UART
            CODE    BE17H     0012H     UNIT         ?PR?COM_TBUFLEN?UART
            CODE    BE29H     0010H     UNIT         ?PR?INI_TIMER?MAIN
            CODE    BE39H     0010H     UNIT         ?PR?INICIA_BOARD?MAIN
            CODE    BE49H     0010H     UNIT         ?PR?TIME_MBIT?TIBBO
            CODE    BE59H     000FH     UNIT         ?PR?_ISDIGIT?ISDIGIT
            CODE    BE68H     000CH     UNIT         ?PR?_GETKEY?MAIN
            CODE    BE74H     000CH     UNIT         ?PR?COND_INI_PTO?PTO_PARALELO
            CODE    BE80H     000AH     UNIT         ?PR?STOP?EEPROM
            CODE    BE8AH     0009H     UNIT         ?PR?DEBUG_DIVIDIR_TEXTO?TIBBO
            CODE    BE93H     0007H     UNIT         ?PR?COND_INI_CLOCK?CLOCK
            CODE    BE9AH     0007H     UNIT         ?PR?SEL_FUNCION?IO_SENSORES
            CODE    BEA1H     0007H     UNIT         ?PR?SEL_AUTO?IO_SENSORES
            CODE    BEA8H     0007H     UNIT         ?PR?SEL_PULSA?IO_SENSORES
            CODE    BEAFH     0007H     UNIT         ?PR?SEL_SENSOR2?IO_SENSORES
            CODE    BEB6H     0007H     UNIT         ?PR?SEL_SENSOR1?IO_SENSORES
            CODE    BEBDH     0007H     UNIT         ?PR?SEL_DIR1?IO_SENSORES
            CODE    BEC4H     0007H     UNIT         ?PR?SEL_DIR2?IO_SENSORES
            CODE    BECBH     0006H     UNIT         ?PR?P_ME?EEPROM
            CODE    BED1H     0005H     UNIT         ?PR?ON_TIMER0_INTERRUP?MAIN
            CODE    BED6H     0005H     UNIT         ?PR?COND_INI_TIBBO?TIBBO
            CODE    BEDBH     0003H     UNIT         ?PR?OFF_TIMER0_INTERRUP?MAIN
            CODE    BEDEH     0002H     UNIT         ?CO?MONITOR
            CODE    BEE0H     0001H     UNIT         ?PR?DELAY?DELAY



OVERLAY MAP OF MODULE:   .\Objects\expedidor_v_101 (MAIN)


SEGMENT                                             BIT_GROUP          DATA_GROUP          XDATA_GROUP
BL51 BANKED LINKER/LOCATER V6.22.2.0                                                  09/14/2021  15:59:56  PAGE 7


  +--> CALLED SEGMENT                            START    LENGTH     START    LENGTH     START    LENGTH
--------------------------------------------------------------------------------------------------------
?C_C51STARTUP                                    -----    -----      -----    -----      -----    -----
  +--> ?PR?MAIN?MAIN
  +--> ?C_INITSEG

?PR?MAIN?MAIN                                    -----    -----      -----    -----      0000H    0001H
  +--> ?PR?INI_TIMER?MAIN
  +--> ?PR?ON_TIMER0_INTERRUP?MAIN
  +--> ?PR?COM_INITIALIZE?UART
  +--> ?PR?COM_BAUDRATE?UART
  +--> ?PR?INICIA_BOARD?MAIN
  +--> ?PR?TIME_BIT?TIBBO
  +--> ?PR?_DELAY_20US?DELAY
  +--> ?PR?TIME_MBIT?TIBBO
  +--> ?PR?_TX_AUX?TIBBO
  +--> ?PR?SEL_FUNCION?IO_SENSORES
  +--> ?PR?MENU?PROG
  +--> ?PR?VARIABLE_INICIO?MAIN
  +--> ?PR?SECUENCIA_INICIO_EXPEDIDOR?VERIFI...
  +--> ?PR?RX_MONITOR?MONITOR
  +--> ?PR?_SECUENCIAEXPEDIDORMF?VERIFICADOR
  +--> ?PR?_RECIBE_PORT?PTO_PARALELO
  +--> ?PR?_DEBUG_PTO_PARALELO?TIBBO
  +--> ?PR?_VALIDA_TRAMA_PTO?ACCESCAN
  +--> ?PR?MSJ_LCD_INFORMATIVO?IO_SENSORES

?PR?COM_INITIALIZE?UART                          -----    -----      -----    -----      -----    -----
  +--> ?PR?COM_BAUDRATE?UART

?PR?COM_BAUDRATE?UART                            -----    -----      -----    -----      -----    -----
  +--> ?PR?_RD_EEPROM?EEPROM

?PR?_RD_EEPROM?EEPROM                            -----    -----      -----    -----      -----    -----
  +--> ?PR?START?EEPROM
  +--> ?PR?ACK_LECT?EEPROM
  +--> ?PR?_E_D_M?EEPROM
  +--> ?PR?ACKD?EEPROM
  +--> ?PR?L_D_M?EEPROM
  +--> ?PR?STOP?EEPROM

?PR?ACK_LECT?EEPROM                              -----    -----      -----    -----      -----    -----
  +--> ?PR?_E_D_M?EEPROM

?PR?_E_D_M?EEPROM                                -----    -----      -----    -----      -----    -----
  +--> ?PR?P_ME?EEPROM

?PR?ACKD?EEPROM                                  -----    -----      -----    -----      -----    -----
  +--> ?PR?_E_D_M?EEPROM

?PR?INICIA_BOARD?MAIN                            -----    -----      -----    -----      -----    -----
  +--> ?PR?COND_INI_TIBBO?TIBBO
  +--> ?PR?COND_INI_CLOCK?CLOCK
  +--> ?PR?COND_INI_PTO?PTO_PARALELO

?PR?COND_INI_PTO?PTO_PARALELO                    -----    -----      -----    -----      -----    -----
  +--> ?PR?CONFIRMACION?EEPROM
BL51 BANKED LINKER/LOCATER V6.22.2.0                                                  09/14/2021  15:59:56  PAGE 8



?PR?CONFIRMACION?EEPROM                          -----    -----      -----    -----      0011H    000BH
  +--> ?PR?_BLOCK_READ_CLOCK_ASCII?CLOCK
  +--> ?PR?FORMATO_EEPROM?EEPROM

?PR?_BLOCK_READ_CLOCK_ASCII?CLOCK                -----    -----      -----    -----      0051H    0003H
  +--> ?PR?_LEE_CLK?CLOCK

?PR?_LEE_CLK?CLOCK                               -----    -----      -----    -----      00B1H    0003H
  +--> ?PR?_DELAY_20US?DELAY
  +--> ?PR?_EB_CLK?CLOCK
  +--> ?PR?P_CK?CLOCK

?PR?_EB_CLK?CLOCK                                -----    -----      -----    -----      00B4H    0003H
  +--> ?PR?P_CK?CLOCK

?PR?P_CK?CLOCK                                   -----    -----      -----    -----      -----    -----
  +--> ?PR?DELAY?DELAY

?PR?FORMATO_EEPROM?EEPROM                        -----    -----      -----    -----      001CH    000AH
  +--> ?PR?_WR_EEPROM?EEPROM
  +--> ?CO?EEPROM
  +--> ?PR?_DWLOAD_EEPROM_PROG?LINTECH

?PR?_WR_EEPROM?EEPROM                            -----    -----      -----    -----      -----    -----
  +--> ?PR?START?EEPROM
  +--> ?PR?ACKD?EEPROM
  +--> ?PR?_E_D_M?EEPROM
  +--> ?PR?STOP?EEPROM
  +--> ?PR?_DELAY_1MS?DELAY
  +--> ?PR?_DELAY_20US?DELAY

?PR?_DELAY_1MS?DELAY                             -----    -----      -----    -----      -----    -----
  +--> ?PR?_DELAY_20US?DELAY

?PR?_DWLOAD_EEPROM_PROG?LINTECH                  -----    -----      -----    -----      0026H    0019H
  +--> ?CO?LINTECH
  +--> ?PR?_DEBUG_TXT_TIBBO?TIBBO
  +--> ?PR?_ESCRIBIRCADENASOFT_BUFFER?MAIN

?PR?_DEBUG_TXT_TIBBO?TIBBO                       -----    -----      -----    -----      0064H    0004H
  +--> ?PR?_DEBUG_CHR_TIBBO?TIBBO
  +--> ?CO?TIBBO
  +--> ?PR?_TX_AUX?TIBBO

?PR?_DEBUG_CHR_TIBBO?TIBBO                       -----    -----      -----    -----      -----    -----
  +--> ?PR?_TX_AUX?TIBBO

?PR?_TX_AUX?TIBBO                                -----    -----      -----    -----      -----    -----
  +--> ?PR?TIME_BIT?TIBBO

?PR?_ESCRIBIRCADENASOFT_BUFFER?MAIN              -----    -----      -----    -----      003FH    0006H
  +--> ?PR?_PUTCHAR?MAIN

?PR?_PUTCHAR?MAIN                                -----    -----      -----    -----      00A7H    0003H
  +--> ?PR?_COM_PUTCHAR?UART

BL51 BANKED LINKER/LOCATER V6.22.2.0                                                  09/14/2021  15:59:56  PAGE 9


?PR?_COM_PUTCHAR?UART                            -----    -----      -----    -----      00AAH    0001H
  +--> ?PR?COM_TBUFLEN?UART

?PR?MENU?PROG                                    -----    -----      -----    -----      0001H    0045H
  +--> ?CO?PROG
  +--> ?PR?PRINTF?PRINTF
  +--> ?PR?_RD_EEPROM?EEPROM
  +--> ?PR?FIRST_CLAVE?PROG
  +--> ?PR?_WR_EEPROM?EEPROM
  +--> ?PR?_LEERMEMORIA?EEPROM
  +--> ?PR?_HASH_ID?PROG
  +--> ?PR?_INGRESADATO?PROG
  +--> ?PR?_GETCMD?PROG
  +--> ?PR?_ESCRIBIRMEMORIA?EEPROM
  +--> ?PR?_VALIDARCLAVE?PROG
  +--> ?PR?DISPLAYCURSOR?PROG
  +--> ?PR?_STRLEN?STRLEN
  +--> ?PR?_GETOPTION?PROG
  +--> ?PR?_STRCAT?STRCAT
  +--> ?PR?_LISTACOMANDOS?PROG
  +--> ?PR?PROG_ID_CLIENTE?PROG
  +--> ?PR?PROG_COD_PARK?PROG
  +--> ?PR?PROG_TIEMPO_GRACIA?PROG
  +--> ?PR?PROG_SIN_COBRO?PROG
  +--> ?PR?PROG_DEBUG?PROG
  +--> ?PR?PROG_USE_LPR?PROG
  +--> ?PR?TIPO_PANTALLA?PROG
  +--> ?PR?PROG_TARJETA_AUTOMATICA_O_BOTON?PROG
  +--> ?PR?PROG_ANTIPASSBACK?PROG
  +--> ?PR?PROG_PLACA?PROG
  +--> ?PR?PROG_ADDRESS_HIGH_BOARD?PROG
  +--> ?PR?PROG_HORARIOS?PROG
  +--> ?PR?PROG_VALIDAR_TIPO_VEHICULO_MENSUA...
  +--> ?PR?PROG_APB_MENSUAL?PROG
  +--> ?PR?PROG_MENSUALES?PROG
  +--> ?PR?VER_PROG?PROG
  +--> ?PR?SHOW?PROG
  +--> ?PR?PROG_FECHA_VENCIMIENTO?PROG

?PR?PRINTF?PRINTF                                0020H.0  0001H.1    0008H    0005H      0077H    0030H
  +--> ?PR?_PUTCHAR?MAIN

?PR?FIRST_CLAVE?PROG                             -----    -----      -----    -----      0046H    000BH
  +--> ?PR?_BLOCK_READ_CLOCK_ASCII?CLOCK
  +--> ?PR?_HASH_ID?PROG
  +--> ?PR?_ESCRIBIRMEMORIA?EEPROM

?PR?_HASH_ID?PROG                                -----    -----      -----    -----      005DH    003FH
  +--> ?CO?PROG
  +--> ?PR?_LEERMEMORIA?EEPROM
  +--> ?PR?_CHECK_FECHAOUT?CLOCK
  +--> ?PR?_STRLEN?STRLEN

?PR?_LEERMEMORIA?EEPROM                          -----    -----      -----    -----      009CH    0005H
  +--> ?PR?_RD_EEPROM?EEPROM

?PR?_CHECK_FECHAOUT?CLOCK                        -----    -----      -----    -----      009CH    0012H
BL51 BANKED LINKER/LOCATER V6.22.2.0                                                  09/14/2021  15:59:56  PAGE 10


  +--> ?PR?_BLOCK_READ_CLOCK_HEX?CLOCK

?PR?_BLOCK_READ_CLOCK_HEX?CLOCK                  -----    -----      -----    -----      00AEH    0003H
  +--> ?PR?_LEE_CLK?CLOCK
  +--> ?PR?_BCD_HEX?CLOCK

?PR?_ESCRIBIRMEMORIA?EEPROM                      -----    -----      -----    -----      005DH    0005H
  +--> ?PR?_WR_EEPROM?EEPROM

?PR?_INGRESADATO?PROG                            -----    -----      -----    -----      0071H    0004H
  +--> ?PR?_GETKEY?MAIN
  +--> ?CO?PROG
  +--> ?PR?PRINTF?PRINTF
  +--> ?PR?_PUTCHAR?MAIN

?PR?_GETKEY?MAIN                                 -----    -----      -----    -----      -----    -----
  +--> ?PR?COM_GETCHAR?UART

?PR?COM_GETCHAR?UART                             -----    -----      -----    -----      -----    -----
  +--> ?PR?COM_RBUFLEN?UART

?PR?_GETCMD?PROG                                 -----    -----      -----    -----      005DH    0007H
  +--> ?CO?PROG
  +--> ?PR?_STRTOK?STRTOK

?PR?_STRTOK?STRTOK                               -----    -----      -----    -----      0064H    0006H
  +--> ?PR?_STRSPN?STRSPN
  +--> ?PR?_STRPBRK?STRPBRK

?PR?_STRSPN?STRSPN                               -----    -----      -----    -----      006AH    0008H

?PR?_STRPBRK?STRPBRK                             -----    -----      -----    -----      006AH    0009H

?PR?_VALIDARCLAVE?PROG                           -----    -----      -----    -----      005DH    000EH

?PR?DISPLAYCURSOR?PROG                           -----    -----      -----    -----      -----    -----
  +--> ?CO?PROG
  +--> ?PR?PRINTF?PRINTF

?PR?_GETOPTION?PROG                              -----    -----      -----    -----      0046H    000BH
  +--> ?CO?PROG
  +--> ?PR?_STRTOK?STRTOK

?PR?_STRCAT?STRCAT                               -----    -----      -----    -----      0046H    0009H

?PR?_LISTACOMANDOS?PROG                          -----    -----      -----    -----      0046H    0007H

?PR?PROG_ID_CLIENTE?PROG                         -----    -----      -----    -----      0046H    000CH
  +--> ?PR?_RD_EEPROM?EEPROM
  +--> ?CO?PROG
  +--> ?PR?PRINTF?PRINTF
  +--> ?PR?_INGRESADATO?PROG
  +--> ?PR?_ATOI?ATOI
  +--> ?PR?_WR_EEPROM?EEPROM

?PR?_ATOI?ATOI                                   0020H.0  0000H.1    -----    -----      0071H    0005H
  +--> ?PR?_ISSPACE?ISSPACE
BL51 BANKED LINKER/LOCATER V6.22.2.0                                                  09/14/2021  15:59:56  PAGE 11


  +--> ?PR?_ISDIGIT?ISDIGIT

?PR?PROG_COD_PARK?PROG                           -----    -----      -----    -----      0046H    000CH
  +--> ?PR?_RD_EEPROM?EEPROM
  +--> ?CO?PROG
  +--> ?PR?PRINTF?PRINTF
  +--> ?PR?_INGRESADATO?PROG
  +--> ?PR?_ATOI?ATOI
  +--> ?PR?_WR_EEPROM?EEPROM

?PR?PROG_TIEMPO_GRACIA?PROG                      -----    -----      -----    -----      0046H    000CH
  +--> ?PR?_RD_EEPROM?EEPROM
  +--> ?CO?PROG
  +--> ?PR?PRINTF?PRINTF
  +--> ?PR?_INGRESADATO?PROG
  +--> ?PR?_ATOI?ATOI
  +--> ?PR?_WR_EEPROM?EEPROM

?PR?PROG_SIN_COBRO?PROG                          -----    -----      -----    -----      0046H    000CH
  +--> ?PR?_RD_EEPROM?EEPROM
  +--> ?CO?PROG
  +--> ?PR?PRINTF?PRINTF
  +--> ?PR?_INGRESADATO?PROG
  +--> ?PR?_ATOI?ATOI
  +--> ?PR?_WR_EEPROM?EEPROM

?PR?PROG_DEBUG?PROG                              -----    -----      -----    -----      0046H    000CH
  +--> ?PR?_RD_EEPROM?EEPROM
  +--> ?CO?PROG
  +--> ?PR?PRINTF?PRINTF
  +--> ?PR?_INGRESADATO?PROG
  +--> ?PR?_ATOI?ATOI
  +--> ?PR?_WR_EEPROM?EEPROM

?PR?PROG_USE_LPR?PROG                            -----    -----      -----    -----      0046H    000CH
  +--> ?PR?_RD_EEPROM?EEPROM
  +--> ?CO?PROG
  +--> ?PR?PRINTF?PRINTF
  +--> ?PR?_INGRESADATO?PROG
  +--> ?PR?_ATOI?ATOI
  +--> ?PR?_WR_EEPROM?EEPROM

?PR?TIPO_PANTALLA?PROG                           -----    -----      -----    -----      0046H    000CH
  +--> ?PR?_RD_EEPROM?EEPROM
  +--> ?CO?PROG
  +--> ?PR?PRINTF?PRINTF
  +--> ?PR?_INGRESADATO?PROG
  +--> ?PR?_ATOI?ATOI
  +--> ?PR?_WR_EEPROM?EEPROM

?PR?PROG_TARJETA_AUTOMATICA_O_BOTON?PROG         -----    -----      -----    -----      0046H    000CH
  +--> ?PR?_RD_EEPROM?EEPROM
  +--> ?CO?PROG
  +--> ?PR?PRINTF?PRINTF
  +--> ?PR?_INGRESADATO?PROG
  +--> ?PR?_ATOI?ATOI
  +--> ?PR?_WR_EEPROM?EEPROM
BL51 BANKED LINKER/LOCATER V6.22.2.0                                                  09/14/2021  15:59:56  PAGE 12



?PR?PROG_ANTIPASSBACK?PROG                       -----    -----      -----    -----      0046H    000CH
  +--> ?PR?_RD_EEPROM?EEPROM
  +--> ?CO?PROG
  +--> ?PR?PRINTF?PRINTF
  +--> ?PR?_INGRESADATO?PROG
  +--> ?PR?_ATOI?ATOI
  +--> ?PR?_WR_EEPROM?EEPROM

?PR?PROG_PLACA?PROG                              -----    -----      -----    -----      0046H    000CH
  +--> ?PR?_RD_EEPROM?EEPROM
  +--> ?CO?PROG
  +--> ?PR?PRINTF?PRINTF
  +--> ?PR?_INGRESADATO?PROG
  +--> ?PR?_ATOI?ATOI
  +--> ?PR?_WR_EEPROM?EEPROM

?PR?PROG_ADDRESS_HIGH_BOARD?PROG                 -----    -----      -----    -----      0046H    000CH
  +--> ?PR?_RD_EEPROM?EEPROM
  +--> ?CO?PROG
  +--> ?PR?PRINTF?PRINTF
  +--> ?PR?_INGRESADATO?PROG
  +--> ?PR?_ATOI?ATOI
  +--> ?PR?_WR_EEPROM?EEPROM

?PR?PROG_HORARIOS?PROG                           -----    -----      -----    -----      0046H    001BH
  +--> ?PR?ADDR_HORARIOS?PROG
  +--> ?CO?PROG
  +--> ?PR?PRINTF?PRINTF
  +--> ?PR?_INGRESADATO?PROG
  +--> ?PR?_ATOI?ATOI
  +--> ?PR?_PROG_HORARIOS_ON_OFF?PROG
  +--> ?PR?_WR_EEPROM?EEPROM
  +--> ?PR?_PROG_HORARIO_DIAS?PROG
  +--> ?PR?_PROG_HORARIO_DESDE_HASTA?PROG
  +--> ?PR?_RD_EEPROM?EEPROM

?PR?ADDR_HORARIOS?PROG                           -----    -----      -----    -----      0074H    000BH

?PR?_PROG_HORARIOS_ON_OFF?PROG                   -----    -----      -----    -----      0061H    0010H
  +--> ?PR?_RD_EEPROM?EEPROM
  +--> ?CO?PROG
  +--> ?PR?PRINTF?PRINTF
  +--> ?PR?_INGRESADATO?PROG
  +--> ?PR?_ATOI?ATOI
  +--> ?PR?_WR_EEPROM?EEPROM

?PR?_PROG_HORARIO_DIAS?PROG                      -----    -----      -----    -----      0061H    000FH
  +--> ?CO?PROG
  +--> ?PR?PRINTF?PRINTF
  +--> ?PR?_INGRESADATO?PROG
  +--> ?PR?_WR_EEPROM?EEPROM
  +--> ?PR?_RD_EEPROM?EEPROM

?PR?_PROG_HORARIO_DESDE_HASTA?PROG               -----    -----      -----    -----      0061H    000CH
  +--> ?CO?PROG
  +--> ?PR?PRINTF?PRINTF
BL51 BANKED LINKER/LOCATER V6.22.2.0                                                  09/14/2021  15:59:56  PAGE 13


  +--> ?PR?_INGRESADATO?PROG
  +--> ?PR?_WR_EEPROM?EEPROM
  +--> ?PR?_RD_EEPROM?EEPROM

?PR?PROG_VALIDAR_TIPO_VEHICULO_MENSUA...         -----    -----      -----    -----      0046H    000CH
  +--> ?PR?_RD_EEPROM?EEPROM
  +--> ?CO?PROG
  +--> ?PR?PRINTF?PRINTF
  +--> ?PR?_INGRESADATO?PROG
  +--> ?PR?_ATOI?ATOI
  +--> ?PR?_WR_EEPROM?EEPROM

?PR?PROG_APB_MENSUAL?PROG                        -----    -----      -----    -----      0046H    000CH
  +--> ?PR?_RD_EEPROM?EEPROM
  +--> ?CO?PROG
  +--> ?PR?PRINTF?PRINTF
  +--> ?PR?_INGRESADATO?PROG
  +--> ?PR?_ATOI?ATOI
  +--> ?PR?_WR_EEPROM?EEPROM

?PR?PROG_MENSUALES?PROG                          -----    -----      -----    -----      0046H    000CH
  +--> ?PR?_RD_EEPROM?EEPROM
  +--> ?CO?PROG
  +--> ?PR?PRINTF?PRINTF
  +--> ?PR?_INGRESADATO?PROG
  +--> ?PR?_ATOI?ATOI
  +--> ?PR?_WR_EEPROM?EEPROM

?PR?VER_PROG?PROG                                -----    -----      -----    -----      0046H    0013H
  +--> ?PR?_RD_EEPROM?EEPROM
  +--> ?CO?PROG
  +--> ?PR?PRINTF?PRINTF
  +--> ?PR?VER_HORARIO?PROG
  +--> ?PR?_LEERMEMORIA?EEPROM
  +--> ?PR?_HEX_ASCII?CLOCK
  +--> ?PR?LEE_NO_TICKET?EEPROM

?PR?VER_HORARIO?PROG                             -----    -----      -----    -----      0059H    001BH
  +--> ?PR?ADDR_HORARIOS?PROG
  +--> ?CO?PROG
  +--> ?PR?PRINTF?PRINTF
  +--> ?PR?_RD_EEPROM?EEPROM
  +--> ?PR?_VER_HORARIO_DIAS?PROG
  +--> ?PR?_VER_HORARIO_DESDE_HASTA?PROG

?PR?_VER_HORARIO_DIAS?PROG                       -----    -----      -----    -----      0074H    0003H
  +--> ?PR?_RD_EEPROM?EEPROM
  +--> ?CO?PROG
  +--> ?PR?PRINTF?PRINTF

?PR?_VER_HORARIO_DESDE_HASTA?PROG                -----    -----      -----    -----      0074H    0002H
  +--> ?CO?PROG
  +--> ?PR?PRINTF?PRINTF
  +--> ?PR?_RD_EEPROM?EEPROM

?PR?_HEX_ASCII?CLOCK                             -----    -----      -----    -----      005DH    0006H
  +--> ?PR?_HEX_BCD?CLOCK
BL51 BANKED LINKER/LOCATER V6.22.2.0                                                  09/14/2021  15:59:56  PAGE 14



?PR?LEE_NO_TICKET?EEPROM                         -----    -----      -----    -----      0059H    000BH
  +--> ?PR?READ_EEPROM_TICKET?EEPROM
  +--> ?CO?EEPROM
  +--> ?PR?PRINTF?PRINTF
  +--> ?PR?_STRLEN?STRLEN
  +--> ?PR?_DEBUG_TXT_TIBBO?TIBBO

?PR?READ_EEPROM_TICKET?EEPROM                    -----    -----      -----    -----      0064H    0007H
  +--> ?PR?_RD_EEPROM?EEPROM

?PR?SHOW?PROG                                    -----    -----      -----    -----      -----    -----
  +--> ?CO?PROG
  +--> ?PR?PRINTF?PRINTF

?PR?PROG_FECHA_VENCIMIENTO?PROG                  -----    -----      -----    -----      0046H    0017H
  +--> ?PR?_LEERMEMORIA?EEPROM
  +--> ?PR?_HEX_ASCII?CLOCK
  +--> ?CO?PROG
  +--> ?PR?PRINTF?PRINTF
  +--> ?PR?_HASH_ID?PROG
  +--> ?PR?_INGRESADATO?PROG
  +--> ?PR?_GETCMD?PROG
  +--> ?PR?_ESCRIBIRMEMORIA?EEPROM
  +--> ?PR?_VALIDARCLAVE?PROG
  +--> ?PR?_ATOI?ATOI
  +--> ?PR?_WR_EEPROM?EEPROM

?PR?VARIABLE_INICIO?MAIN                         -----    -----      -----    -----      -----    -----
  +--> ?PR?_RD_EEPROM?EEPROM

?PR?SECUENCIA_INICIO_EXPEDIDOR?VERIFI...         -----    -----      -----    -----      0001H    0001H
  +--> ?PR?_INICIALIZA?LINTECH
  +--> ?PR?TRAMA_VALIDACION_P_N?VERIFICADOR
  +--> ?CO?VERIFICADOR
  +--> ?PR?_DEBUG_TXT_TIBBO?TIBBO
  +--> ?PR?_DEBUGBUFFERMF?TIBBO
  +--> ?PR?DWLOAD_EEPROM?LINTECH

?PR?_INICIALIZA?LINTECH                          -----    -----      -----    -----      0002H    000CH
  +--> ?CO?LINTECH
  +--> ?PR?_DEBUG_TXT_TIBBO?TIBBO
  +--> ?PR?_DEBUGBUFFERMF?TIBBO
  +--> ?PR?_ESCRIBIRCADENASOFT_BUFFER?MAIN

?PR?_DEBUGBUFFERMF?TIBBO                         -----    -----      -----    -----      0027H    0006H
  +--> ?CO?TIBBO
  +--> ?PR?_DEBUG_TXT_TIBBO?TIBBO
  +--> ?PR?_DEBUG_CHR_TIBBO?TIBBO
  +--> ?PR?_TX_AUX?TIBBO

?PR?TRAMA_VALIDACION_P_N?VERIFICADOR             -----    -----      -----    -----      -----    -----
  +--> ?CO?VERIFICADOR
  +--> ?PR?_DEBUG_TXT_TIBBO?TIBBO

?PR?DWLOAD_EEPROM?LINTECH                        -----    -----      -----    -----      0002H    0016H
  +--> ?CO?LINTECH
BL51 BANKED LINKER/LOCATER V6.22.2.0                                                  09/14/2021  15:59:56  PAGE 15


  +--> ?PR?_DEBUG_TXT_TIBBO?TIBBO
  +--> ?PR?_DEBUGBUFFERMF?TIBBO
  +--> ?PR?_ESCRIBIRCADENASOFT_BUFFER?MAIN

?PR?RX_MONITOR?MONITOR                           -----    -----      -----    -----      0003H    000EH
  +--> ?PR?_RECIBE_CMD_MONITOR?MONITOR
  +--> ?PR?_DEBUG_BUFFER_RS232_LCD?TIBBO
  +--> ?PR?_DEBUG_MONITOR?TIBBO
  +--> ?PR?_VALIDA_TRAMA_MONITOR?MONITOR

?PR?_RECIBE_CMD_MONITOR?MONITOR                  -----    -----      -----    -----      0011H    0007H
  +--> ?PR?TIMER_MONITOR_CHAR?MONITOR
  +--> ?PR?RX_DATA?TIBBO
  +--> ?CO?MONITOR

?PR?TIMER_MONITOR_CHAR?MONITOR                   -----    -----      -----    -----      0018H    0003H

?PR?RX_DATA?TIBBO                                -----    -----      -----    -----      -----    -----
  +--> ?PR?TIME_MBIT?TIBBO
  +--> ?PR?TIME_BIT?TIBBO

?PR?_DEBUG_BUFFER_RS232_LCD?TIBBO                -----    -----      -----    -----      0011H    0006H
  +--> ?PR?_DEBUG_CHR_RS232_LCD?TIBBO
  +--> ?PR?_PUTCHAR?MAIN

?PR?_DEBUG_CHR_RS232_LCD?TIBBO                   -----    -----      -----    -----      0017H    0001H
  +--> ?PR?_PUTCHAR?MAIN

?PR?_DEBUG_MONITOR?TIBBO                         -----    -----      -----    -----      0011H    0004H
  +--> ?PR?DEBUG_DIVIDIR_TEXTO?TIBBO
  +--> ?CO?TIBBO
  +--> ?PR?_DEBUG_TXT_TIBBO?TIBBO

?PR?DEBUG_DIVIDIR_TEXTO?TIBBO                    -----    -----      -----    -----      -----    -----
  +--> ?CO?TIBBO
  +--> ?PR?_DEBUG_TXT_TIBBO?TIBBO

?PR?_VALIDA_TRAMA_MONITOR?MONITOR                -----    -----      -----    -----      0011H    0006H
  +--> ?PR?_DELAY_10MS?DELAY
  +--> ?PR?_TX_AUX?TIBBO

?PR?_DELAY_10MS?DELAY                            -----    -----      -----    -----      0017H    0004H
  +--> ?PR?_DELAY_1MS?DELAY

?PR?_SECUENCIAEXPEDIDORMF?VERIFICADOR            -----    -----      -----    -----      0001H    0001H
  +--> ?PR?_CHECK_STATUS?LINTECH
  +--> ?PR?_LOAD_SECUENCIA_EXPEDIDOR?VERIFIC...
  +--> ?PR?_RTA_CMD_TRANSPORTE?VERIFICADOR
  +--> ?PR?_MOV_CARD?LINTECH
  +--> ?PR?AUT_CARD_CHECK_STATUS?LINTECH
  +--> ?PR?LOADVERIFY_EEPROM?LINTECH
  +--> ?PR?_RD_MF?LINTECH
  +--> ?PR?_WR_MF?LINTECH
  +--> ?PR?_CARD_INSERCION?LINTECH
  +--> ?PR?DWLOAD_EEPROM?LINTECH
  +--> ?PR?ENTREGA_CARD_CAPTURA?VERIFICADOR
  +--> ?PR?_SEND_PTO_PARALELO?VERIFICADOR
BL51 BANKED LINKER/LOCATER V6.22.2.0                                                  09/14/2021  15:59:56  PAGE 16


  +--> ?PR?WAIT_PLACA?VERIFICADOR
  +--> ?PR?UNIQUE_IDENTIFIER_UID?LINTECH
  +--> ?PR?_PREGUNTA_LPR?VERIFICADOR
  +--> ?PR?PREGUNTA_PLACA_HABILITADA?VERIFIC...
  +--> ?PR?_VALIDA_TIPO_TARJETA?VERIFICADOR
  +--> ?PR?POWER_OFF?LINTECH
  +--> ?PR?CLAVE_SEGURIDAD_S2?LINTECH
  +--> ?PR?_RESPONDE_REELECTURA_TARJETA_SECT...
  +--> ?PR?ANALIZA_PRESENCIA_ROTACION?VERIFI...
  +--> ?PR?RX_MONITOR?MONITOR
  +--> ?PR?INGRESO_VEHICULO?VERIFICADOR
  +--> ?PR?RESPONDE_ESTADO_SENSORES_TRANSPOR...
  +--> ?PR?RESPONDE_TIPO_TARJETA?VERIFICADOR
  +--> ?PR?_RESPONDE_LECTURA_TARJETA_SECTOR1...
  +--> ?PR?_RESPONDE_LECTURA_TARJETA_SECTOR1...
  +--> ?PR?_RESPONDE_LECTURA_TARJETA_SECTOR1...
  +--> ?PR?_RESPONDE_WRITE_TARJETA_SECTOR1_B...
  +--> ?PR?_RESPONDE_WRITE_TARJETA_SECTOR2_B...
  +--> ?PR?_RESPONDE_WRITE_TARJETA_SECTOR1_B...
  +--> ?PR?_RESPONDE_WRITE_TARJETA_SECTOR1_B...
  +--> ?PR?_DISPARO_LOCK_ENTRADA_VEHICULO?VE...
  +--> ?PR?_RESPUESTA_SEGUNDA_CLAVE?VERIFICADOR
  +--> ?PR?_ANALIZA_UID_CARD?VERIFICADOR
  +--> ?CO?VERIFICADOR
  +--> ?PR?_DEBUG_TXT_TIBBO?TIBBO

?PR?_CHECK_STATUS?LINTECH                        -----    -----      -----    -----      0002H    000BH
  +--> ?CO?LINTECH
  +--> ?PR?_DEBUG_TXT_TIBBO?TIBBO
  +--> ?PR?_DEBUGBUFFERMF?TIBBO
  +--> ?PR?_ESCRIBIRCADENASOFT_BUFFER?MAIN

?PR?_LOAD_SECUENCIA_EXPEDIDOR?VERIFIC...         -----    -----      -----    -----      0002H    0009H

?PR?_RTA_CMD_TRANSPORTE?VERIFICADOR              -----    -----      -----    -----      0002H    0005H
  +--> ?PR?TRAMA_VALIDACION_P_N?VERIFICADOR
  +--> ?CO?VERIFICADOR
  +--> ?PR?_DEBUG_TXT_TIBBO?TIBBO
  +--> ?PR?_DEBUGBUFFERMF?TIBBO
  +--> ?PR?ERROR_RX_PTO?VERIFICADOR

?PR?ERROR_RX_PTO?VERIFICADOR                     -----    -----      -----    -----      0007H    0001H
  +--> ?CO?VERIFICADOR
  +--> ?PR?_DEBUG_TXT_TIBBO?TIBBO
  +--> ?PR?_DEBUG_CHR_TIBBO?TIBBO
  +--> ?PR?_DELAY_10MS?DELAY

?PR?_MOV_CARD?LINTECH                            -----    -----      -----    -----      0002H    000CH
  +--> ?CO?LINTECH
  +--> ?PR?_DEBUG_TXT_TIBBO?TIBBO
  +--> ?PR?_DEBUGBUFFERMF?TIBBO
  +--> ?PR?_ESCRIBIRCADENASOFT_BUFFER?MAIN

?PR?AUT_CARD_CHECK_STATUS?LINTECH                -----    -----      -----    -----      0002H    000BH
  +--> ?CO?LINTECH
  +--> ?PR?_DEBUG_TXT_TIBBO?TIBBO
  +--> ?PR?_DEBUGBUFFERMF?TIBBO
BL51 BANKED LINKER/LOCATER V6.22.2.0                                                  09/14/2021  15:59:56  PAGE 17


  +--> ?PR?_ESCRIBIRCADENASOFT_BUFFER?MAIN

?PR?LOADVERIFY_EEPROM?LINTECH                    -----    -----      -----    -----      0002H    0010H
  +--> ?CO?LINTECH
  +--> ?PR?_DEBUG_TXT_TIBBO?TIBBO
  +--> ?PR?_DEBUGBUFFERMF?TIBBO
  +--> ?PR?_ESCRIBIRCADENASOFT_BUFFER?MAIN

?PR?_RD_MF?LINTECH                               -----    -----      -----    -----      0002H    0012H
  +--> ?CO?LINTECH
  +--> ?PR?_DEBUG_TXT_TIBBO?TIBBO
  +--> ?PR?_DEBUG_CHR_TIBBO?TIBBO
  +--> ?PR?_DEBUGBUFFERMF?TIBBO
  +--> ?PR?_ESCRIBIRCADENASOFT_BUFFER?MAIN

?PR?_WR_MF?LINTECH                               -----    -----      -----    -----      0002H    0025H
  +--> ?CO?LINTECH
  +--> ?PR?_DEBUG_TXT_TIBBO?TIBBO
  +--> ?PR?_DEBUG_CHR_TIBBO?TIBBO
  +--> ?PR?_DEBUGBUFFERMF?TIBBO
  +--> ?PR?_ESCRIBIRCADENASOFT_BUFFER?MAIN

?PR?_CARD_INSERCION?LINTECH                      -----    -----      -----    -----      0002H    000AH
  +--> ?CO?LINTECH
  +--> ?PR?_DEBUG_TXT_TIBBO?TIBBO
  +--> ?PR?_DEBUGBUFFERMF?TIBBO
  +--> ?PR?_ESCRIBIRCADENASOFT_BUFFER?MAIN

?PR?ENTREGA_CARD_CAPTURA?VERIFICADOR             -----    -----      -----    -----      0002H    0001H
  +--> ?CO?VERIFICADOR
  +--> ?PR?_DEBUG_TXT_TIBBO?TIBBO
  +--> ?PR?SEL_SENSOR2?IO_SENSORES
  +--> ?PR?VALIDASENSOR?IO_SENSORES
  +--> ?PR?VALIDA_SENSOR1_AUTO?IO_SENSORES

?PR?VALIDA_SENSOR1_AUTO?IO_SENSORES              -----    -----      -----    -----      0012H    0001H
  +--> ?PR?SEL_SENSOR1?IO_SENSORES
  +--> ?PR?SEL_AUTO?IO_SENSORES
  +--> ?CO?IO_SENSORES
  +--> ?PR?_DEBUG_TXT_TIBBO?TIBBO
  +--> ?PR?BOTTON?IO_SENSORES

?PR?BOTTON?IO_SENSORES                           -----    -----      -----    -----      -----    -----
  +--> ?PR?SEL_PULSA?IO_SENSORES
  +--> ?CO?IO_SENSORES
  +--> ?PR?_DEBUG_TXT_TIBBO?TIBBO

?PR?_SEND_PTO_PARALELO?VERIFICADOR               -----    -----      -----    -----      0002H    0007H
  +--> ?PR?_ARMAR_TRAMA_PTO_PARALELO_EXPEDID...
  +--> ?PR?_ARMAR_TRAMA_PTO_PARALELO_EXPEDID...
  +--> ?PR?INCREMENTE_TICKET?EEPROM
  +--> ?PR?_SEND_PORT?PTO_PARALELO
  +--> ?CO?VERIFICADOR
  +--> ?PR?_DEBUG_TXT_TIBBO?TIBBO
  +--> ?PR?_DEBUGBUFFERMF?TIBBO
  +--> ?PR?CLEAR_PLACA?MONITOR

BL51 BANKED LINKER/LOCATER V6.22.2.0                                                  09/14/2021  15:59:56  PAGE 18


?PR?_ARMAR_TRAMA_PTO_PARALELO_EXPEDID...         -----    -----      -----    -----      0009H    0006H
  +--> ?PR?_BCD_HEX?CLOCK
  +--> ?PR?_RD_EEPROM?EEPROM

?PR?_ARMAR_TRAMA_PTO_PARALELO_EXPEDID...         -----    -----      -----    -----      0009H    0012H
  +--> ?PR?LEE_NO_TICKET?EEPROM
  +--> ?PR?_STRCAT?STRCAT
  +--> ?PR?_STRLEN?STRLEN
  +--> ?PR?_BCD_HEX?CLOCK
  +--> ?PR?_RD_EEPROM?EEPROM

?PR?INCREMENTE_TICKET?EEPROM                     -----    -----      -----    -----      0009H    000BH
  +--> ?PR?READ_EEPROM_TICKET?EEPROM
  +--> ?CO?EEPROM
  +--> ?PR?PRINTF?PRINTF
  +--> ?PR?_WRITE_EEPROM_TICKET?EEPROM

?PR?_WRITE_EEPROM_TICKET?EEPROM                  -----    -----      -----    -----      0016H    000BH
  +--> ?CO?EEPROM
  +--> ?PR?_DEBUG_TXT_TIBBO?TIBBO
  +--> ?PR?_ATOL?ATOL
  +--> ?PR?_DEBUG_CHR_TIBBO?TIBBO
  +--> ?PR?_WR_EEPROM?EEPROM

?PR?_ATOL?ATOL                                   0020H.0  0000H.1    -----    -----      0021H    0007H
  +--> ?PR?_ISSPACE?ISSPACE
  +--> ?PR?_ISDIGIT?ISDIGIT

?PR?_SEND_PORT?PTO_PARALELO                      -----    -----      -----    -----      0016H    000AH
  +--> ?PR?PULSO_BUS?PTO_PARALELO
  +--> ?PR?_DELAY_20US?DELAY

?PR?PULSO_BUS?PTO_PARALELO                       -----    -----      -----    -----      -----    -----
  +--> ?PR?_DELAY_20US?DELAY

?PR?WAIT_PLACA?VERIFICADOR                       -----    -----      -----    -----      0002H    0001H
  +--> ?CO?VERIFICADOR
  +--> ?PR?_DEBUG_TXT_TIBBO?TIBBO
  +--> ?PR?RX_MONITOR?MONITOR
  +--> ?PR?RESPUESTA_PLACA_CANCEL?VERIFICADOR

?PR?RESPUESTA_PLACA_CANCEL?VERIFICADOR           -----    -----      -----    -----      0003H    0001H
  +--> ?CO?VERIFICADOR
  +--> ?PR?_DEBUG_TXT_TIBBO?TIBBO
  +--> ?PR?_DEBUG_TXT_RS232?TIBBO

?PR?_DEBUG_TXT_RS232?TIBBO                       -----    -----      -----    -----      0004H    0005H
  +--> ?PR?_PUTCHAR?MAIN

?PR?UNIQUE_IDENTIFIER_UID?LINTECH                -----    -----      -----    -----      0002H    000CH
  +--> ?CO?LINTECH
  +--> ?PR?_DEBUG_TXT_TIBBO?TIBBO
  +--> ?PR?_DEBUGBUFFERMF?TIBBO
  +--> ?PR?_ESCRIBIRCADENASOFT_BUFFER?MAIN

?PR?_PREGUNTA_LPR?VERIFICADOR                    -----    -----      -----    -----      0002H    0007H
  +--> ?CO?VERIFICADOR
BL51 BANKED LINKER/LOCATER V6.22.2.0                                                  09/14/2021  15:59:56  PAGE 19


  +--> ?PR?_DEBUG_TXT_TIBBO?TIBBO
  +--> ?PR?_HORA_ENTRADA_VEHICULO?CLOCK
  +--> ?PR?_RD_EEPROM?EEPROM
  +--> ?PR?_ARMAR_TRAMA_MONITOR?VERIFICADOR

?PR?_HORA_ENTRADA_VEHICULO?CLOCK                 -----    -----      -----    -----      0009H    0003H
  +--> ?PR?_LEE_CLK?CLOCK

?PR?_ARMAR_TRAMA_MONITOR?VERIFICADOR             -----    -----      -----    -----      0009H    000FH
  +--> ?PR?DIR_BOARD_MONITOR?IO_SENSORES
  +--> ?PR?LEE_NO_TICKET?EEPROM
  +--> ?PR?_STRCAT?STRCAT
  +--> ?PR?_BYTEHEX_DECIMAL?CLOCK
  +--> ?PR?_STRLEN?STRLEN
  +--> ?PR?_TWO_BYTEHEX_DECIMAL?CLOCK

?PR?DIR_BOARD_MONITOR?IO_SENSORES                -----    -----      -----    -----      -----    -----
  +--> ?PR?_RD_EEPROM?EEPROM

?PR?_BYTEHEX_DECIMAL?CLOCK                       -----    -----      -----    -----      0018H    0001H

?PR?_TWO_BYTEHEX_DECIMAL?CLOCK                   -----    -----      -----    -----      0018H    000CH
  +--> ?PR?_POW?POW

?PR?_POW?POW                                     -----    -----      -----    -----      0024H    000AH
  +--> ?PR?LOG?LOG
  +--> ?PR?EXP?EXP

?PR?LOG?LOG                                      0020H.0  0000H.1    -----    -----      002EH    0004H

?PR?PREGUNTA_PLACA_HABILITADA?VERIFIC...         -----    -----      -----    -----      0002H    0001H
  +--> ?CO?VERIFICADOR
  +--> ?PR?_DEBUG_TXT_TIBBO?TIBBO
  +--> ?PR?_RD_EEPROM?EEPROM

?PR?_VALIDA_TIPO_TARJETA?VERIFICADOR             -----    -----      -----    -----      0002H    0007H
  +--> ?CO?VERIFICADOR
  +--> ?PR?_DEBUG_TXT_TIBBO?TIBBO
  +--> ?PR?_RD_EEPROM?EEPROM
  +--> ?PR?_SEND_PORTERR?PTO_PARALELO
  +--> ?PR?_TARJETA_ROTACION?VERIFICADOR
  +--> ?PR?_PANTALLALCD?PANTALLAS

?PR?_SEND_PORTERR?PTO_PARALELO                   -----    -----      -----    -----      0018H    0006H
  +--> ?PR?PULSO_BUS?PTO_PARALELO
  +--> ?PR?_DELAY_20US?DELAY

?PR?_TARJETA_ROTACION?VERIFICADOR                -----    -----      -----    -----      0009H    0006H
  +--> ?PR?_ARMAR_TRAMA_TARJETA_SECTOR1_BLOQ...

?PR?_ARMAR_TRAMA_TARJETA_SECTOR1_BLOQ...         -----    -----      -----    -----      000FH    0006H
  +--> ?PR?_BCD_HEX?CLOCK
  +--> ?PR?DIR_BOARD?IO_SENSORES

?PR?DIR_BOARD?IO_SENSORES                        -----    -----      -----    -----      0033H    0001H
  +--> ?PR?SEL_DIR1?IO_SENSORES
  +--> ?PR?SEL_DIR2?IO_SENSORES
BL51 BANKED LINKER/LOCATER V6.22.2.0                                                  09/14/2021  15:59:56  PAGE 20


  +--> ?PR?_RD_EEPROM?EEPROM

?PR?_PANTALLALCD?PANTALLAS                       -----    -----      -----    -----      0018H    0030H
  +--> ?CO?PANTALLAS
  +--> ?PR?_LCD_TXT?PANTALLAS
  +--> ?PR?_STRLEN?STRLEN
  +--> ?PR?_TX_CHRLCD?PANTALLAS
  +--> ?PR?_RASPBERRY_DATA?PANTALLAS

?PR?_LCD_TXT?PANTALLAS                           -----    -----      -----    -----      0048H    0005H
  +--> ?PR?_TX_CHRLCD?PANTALLAS

?PR?_TX_CHRLCD?PANTALLAS                         -----    -----      -----    -----      004DH    0002H
  +--> ?PR?_PUTCHAR?MAIN

?PR?_RASPBERRY_DATA?PANTALLAS                    -----    -----      -----    -----      0048H    0006H
  +--> ?PR?_STRLEN?STRLEN
  +--> ?PR?_PUTCHAR?MAIN

?PR?POWER_OFF?LINTECH                            -----    -----      -----    -----      0002H    000BH
  +--> ?CO?LINTECH
  +--> ?PR?_DEBUG_TXT_TIBBO?TIBBO
  +--> ?PR?_DEBUGBUFFERMF?TIBBO
  +--> ?PR?_ESCRIBIRCADENASOFT_BUFFER?MAIN

?PR?CLAVE_SEGURIDAD_S2?LINTECH                   -----    -----      -----    -----      0002H    0016H
  +--> ?CO?LINTECH
  +--> ?PR?_DEBUG_TXT_TIBBO?TIBBO
  +--> ?PR?_DEBUGBUFFERMF?TIBBO
  +--> ?PR?_ESCRIBIRCADENASOFT_BUFFER?MAIN

?PR?_RESPONDE_REELECTURA_TARJETA_SECT...         -----    -----      -----    -----      0002H    000AH
  +--> ?CO?VERIFICADOR
  +--> ?PR?_DEBUG_TXT_TIBBO?TIBBO
  +--> ?PR?_DEBUGBUFFERMF?TIBBO
  +--> ?PR?_ARMAR_TRAMA_TARJETA_SECTOR1_BLOQ...

?PR?_ARMAR_TRAMA_TARJETA_SECTOR1_BLOQ...         -----    -----      -----    -----      000CH    0003H
  +--> ?PR?LEE_NO_TICKET?EEPROM

?PR?ANALIZA_PRESENCIA_ROTACION?VERIFI...         -----    -----      -----    -----      0002H    0001H
  +--> ?PR?VALIDASENSORESPASO?IO_SENSORES
  +--> ?PR?_SEND_PORTERR?PTO_PARALELO
  +--> ?PR?_PANTALLALCD?PANTALLAS

?PR?VALIDASENSORESPASO?IO_SENSORES               -----    -----      -----    -----      0011H    0001H
  +--> ?PR?SEL_SENSOR2?IO_SENSORES
  +--> ?PR?VALIDASENSOR?IO_SENSORES
  +--> ?PR?VALIDA_SENSOR1_AUTO?IO_SENSORES
  +--> ?CO?IO_SENSORES
  +--> ?PR?_DEBUG_TXT_TIBBO?TIBBO

?PR?INGRESO_VEHICULO?VERIFICADOR                 -----    -----      -----    -----      0002H    0001H
  +--> ?CO?VERIFICADOR
  +--> ?PR?_DEBUG_TXT_TIBBO?TIBBO
  +--> ?PR?VALIDASENSORESPASO?IO_SENSORES
  +--> ?PR?_RD_EEPROM?EEPROM
BL51 BANKED LINKER/LOCATER V6.22.2.0                                                  09/14/2021  15:59:56  PAGE 21


  +--> ?PR?RX_MONITOR?MONITOR
  +--> ?PR?_SEND_PORTERR?PTO_PARALELO
  +--> ?PR?_PANTALLALCD?PANTALLAS
  +--> ?PR?BOTTON?IO_SENSORES

?PR?RESPONDE_ESTADO_SENSORES_TRANSPOR...         -----    -----      -----    -----      0002H    0001H
  +--> ?CO?VERIFICADOR
  +--> ?PR?_DEBUG_TXT_TIBBO?TIBBO
  +--> ?PR?_SEND_PORTERR?PTO_PARALELO

?PR?RESPONDE_TIPO_TARJETA?VERIFICADOR            -----    -----      -----    -----      0002H    0001H
  +--> ?CO?VERIFICADOR
  +--> ?PR?_DEBUG_TXT_TIBBO?TIBBO
  +--> ?PR?_SEND_PORTERR?PTO_PARALELO
  +--> ?PR?_PANTALLALCD?PANTALLAS

?PR?_RESPONDE_LECTURA_TARJETA_SECTOR1...         -----    -----      -----    -----      0002H    0016H
  +--> ?CO?VERIFICADOR
  +--> ?PR?_DEBUG_TXT_TIBBO?TIBBO
  +--> ?PR?_DEBUGBUFFERMF?TIBBO
  +--> ?PR?_RD_EEPROM?EEPROM
  +--> ?PR?_DEBUG_HEXDEC?TIBBO
  +--> ?PR?_DEBUG_CHR_TIBBO?TIBBO
  +--> ?PR?_SEND_PORTERR?PTO_PARALELO
  +--> ?PR?_PANTALLALCD?PANTALLAS

?PR?_DEBUG_HEXDEC?TIBBO                          -----    -----      -----    -----      0018H    0002H
  +--> ?PR?_TX_AUX?TIBBO

?PR?_RESPONDE_LECTURA_TARJETA_SECTOR1...         -----    -----      -----    -----      0002H    0004H
  +--> ?CO?VERIFICADOR
  +--> ?PR?_DEBUG_TXT_TIBBO?TIBBO

?PR?_RESPONDE_LECTURA_TARJETA_SECTOR1...         -----    -----      -----    -----      0002H    0015H
  +--> ?CO?VERIFICADOR
  +--> ?PR?_DEBUG_TXT_TIBBO?TIBBO
  +--> ?PR?_DEBUGBUFFERMF?TIBBO
  +--> ?PR?_DEBUG_CHR_TIBBO?TIBBO

?PR?_RESPONDE_WRITE_TARJETA_SECTOR1_B...         -----    -----      -----    -----      0002H    0007H
  +--> ?CO?VERIFICADOR
  +--> ?PR?_DEBUG_TXT_TIBBO?TIBBO
  +--> ?PR?_DEBUGBUFFERMF?TIBBO
  +--> ?PR?_ARMAR_TRAMA_TARJETA_SECTOR1_BLOQ...

?PR?_RESPONDE_WRITE_TARJETA_SECTOR2_B...         -----    -----      -----    -----      0002H    0003H
  +--> ?CO?VERIFICADOR
  +--> ?PR?_DEBUG_TXT_TIBBO?TIBBO
  +--> ?PR?_DEBUGBUFFERMF?TIBBO

?PR?_RESPONDE_WRITE_TARJETA_SECTOR1_B...         -----    -----      -----    -----      0002H    0003H
  +--> ?CO?VERIFICADOR
  +--> ?PR?_DEBUG_TXT_TIBBO?TIBBO
  +--> ?PR?_DEBUGBUFFERMF?TIBBO

?PR?_RESPONDE_WRITE_TARJETA_SECTOR1_B...         -----    -----      -----    -----      0002H    0003H
  +--> ?CO?VERIFICADOR
BL51 BANKED LINKER/LOCATER V6.22.2.0                                                  09/14/2021  15:59:56  PAGE 22


  +--> ?PR?_DEBUG_TXT_TIBBO?TIBBO
  +--> ?PR?_DEBUGBUFFERMF?TIBBO

?PR?_DISPARO_LOCK_ENTRADA_VEHICULO?VE...         -----    -----      -----    -----      0002H    0004H
  +--> ?CO?VERIFICADOR
  +--> ?PR?_DEBUG_TXT_TIBBO?TIBBO
  +--> ?PR?_SEND_PORTERR?PTO_PARALELO
  +--> ?PR?_PANTALLALCD_LINEA_2?PANTALLAS
  +--> ?PR?VALIDA_SENSOR1_AUTO?IO_SENSORES
  +--> ?PR?_PANTALLALCD?PANTALLAS

?PR?_PANTALLALCD_LINEA_2?PANTALLAS               -----    -----      -----    -----      0011H    0033H
  +--> ?CO?PANTALLAS
  +--> ?PR?_LCD_TXT?PANTALLAS
  +--> ?PR?_STRLEN?STRLEN
  +--> ?PR?_TX_CHRLCD?PANTALLAS
  +--> ?PR?_RASPBERRY_DATA?PANTALLAS
  +--> ?PR?LEE_NO_TICKET?EEPROM
  +--> ?PR?_STRCAT?STRCAT

?PR?_RESPUESTA_SEGUNDA_CLAVE?VERIFICADOR         -----    -----      -----    -----      0002H    0006H
  +--> ?CO?VERIFICADOR
  +--> ?PR?_DEBUG_TXT_TIBBO?TIBBO
  +--> ?PR?_DEBUGBUFFERMF?TIBBO
  +--> ?PR?_ARMAR_TRAMA_PLACA?VERIFICADOR

?PR?_ARMAR_TRAMA_PLACA?VERIFICADOR               -----    -----      -----    -----      0008H    0004H
  +--> ?PR?_STRLEN?STRLEN
  +--> ?CO?VERIFICADOR

?PR?_ANALIZA_UID_CARD?VERIFICADOR                -----    -----      -----    -----      0002H    0015H
  +--> ?CO?VERIFICADOR
  +--> ?PR?_DEBUG_TXT_TIBBO?TIBBO
  +--> ?PR?_DEBUGBUFFERMF?TIBBO
  +--> ?PR?_DEBUG_CHR_TIBBO?TIBBO

?PR?_RECIBE_PORT?PTO_PARALELO                    -----    -----      -----    -----      0001H    0008H
  +--> ?PR?OFF_TIMER0_INTERRUP?MAIN
  +--> ?PR?ON_TIMER0_INTERRUP?MAIN

?PR?_DEBUG_PTO_PARALELO?TIBBO                    -----    -----      -----    -----      0001H    0004H
  +--> ?CO?TIBBO
  +--> ?PR?_DEBUG_TXT_TIBBO?TIBBO
  +--> ?PR?_DEBUGBUFFERMF?TIBBO
  +--> ?PR?DEBUG_DIVIDIR_TEXTO?TIBBO

?PR?_VALIDA_TRAMA_PTO?ACCESCAN                   -----    -----      -----    -----      0001H    0010H
  +--> ?CO?ACCESCAN
  +--> ?PR?_DEBUG_TXT_TIBBO?TIBBO
  +--> ?PR?_DEBUG_CHR_TIBBO?TIBBO
  +--> ?PR?_VALIDAR_CLK?CLOCK
  +--> ?PR?_BLOCK_WRITE_CLOCK_ASCII?CLOCK
  +--> ?PR?RELOJ_PANTALLA_LCD?PANTALLAS
  +--> ?PR?_SEND_PORT?PTO_PARALELO
  +--> ?PR?_PANTALLALCD?PANTALLAS
  +--> ?PR?CONFIRMACION?EEPROM
  +--> ?PR?_BYTEHEX_DECIMAL?CLOCK
BL51 BANKED LINKER/LOCATER V6.22.2.0                                                  09/14/2021  15:59:56  PAGE 23


  +--> ?PR?_TWO_BYTEHEX_DECIMAL?CLOCK
  +--> ?PR?VALIDASENSORESPASO?IO_SENSORES
  +--> ?PR?_CMD_LPR_SALIDA_WIEGAND?ACCESCAN
  +--> ?PR?_PANTALLALCD_LINEA_2?PANTALLAS
  +--> ?PR?_GRABA_SERIE?EEPROM

?PR?_BLOCK_WRITE_CLOCK_ASCII?CLOCK               -----    -----      -----    -----      0011H    0003H
  +--> ?CO?CLOCK
  +--> ?PR?_DEBUG_TXT_TIBBO?TIBBO
  +--> ?PR?_TWO_ONE?CLOCK
  +--> ?PR?_WR_CLK?CLOCK

?PR?_WR_CLK?CLOCK                                -----    -----      -----    -----      0014H    0002H
  +--> ?PR?_DELAY_20US?DELAY
  +--> ?PR?_EB_CLK?CLOCK

?PR?RELOJ_PANTALLA_LCD?PANTALLAS                 -----    -----      -----    -----      0011H    000DH
  +--> ?CO?PANTALLAS
  +--> ?PR?_BLOCK_READ_CLOCK?CLOCK
  +--> ?PR?_LCD_TXT_NUM_CHAR?PANTALLAS
  +--> ?PR?_BLOCK_READ_CLOCK_ASCII_RASBERRY?...
  +--> ?PR?_STRCAT?STRCAT
  +--> ?PR?_RASPBERRY_DATA?PANTALLAS

?PR?_BLOCK_READ_CLOCK?CLOCK                      -----    -----      -----    -----      001EH    0003H
  +--> ?PR?_LEE_CLK?CLOCK

?PR?_LCD_TXT_NUM_CHAR?PANTALLAS                  -----    -----      -----    -----      001EH    0006H
  +--> ?PR?_TX_CHRLCD?PANTALLAS

?PR?_BLOCK_READ_CLOCK_ASCII_RASBERRY?...         -----    -----      -----    -----      001EH    0003H
  +--> ?PR?_LEE_CLK?CLOCK

?PR?_CMD_LPR_SALIDA_WIEGAND?ACCESCAN             -----    -----      -----    -----      0011H    0022H
  +--> ?PR?DIR_BOARD?IO_SENSORES
  +--> ?PR?_BLOCK_READ_CLOCK_ASCII?CLOCK
  +--> ?PR?_MONITOR_CHR?ACCESCAN

?PR?_MONITOR_CHR?ACCESCAN                        -----    -----      -----    -----      0033H    0005H
  +--> ?PR?_TX_AUX?TIBBO

?PR?_GRABA_SERIE?EEPROM                          -----    -----      -----    -----      0011H    0005H
  +--> ?CO?EEPROM
  +--> ?PR?_DEBUG_TXT_TIBBO?TIBBO
  +--> ?PR?_WRITE_EEPROM_TICKET?EEPROM
  +--> ?PR?_WR_EEPROM?EEPROM

?PR?MSJ_LCD_INFORMATIVO?IO_SENSORES              -----    -----      -----    -----      0001H    0001H
  +--> ?PR?SEL_FUNCION?IO_SENSORES
  +--> ?PR?VALIDASENSOR_CERO?IO_SENSORES
  +--> ?CO?IO_SENSORES
  +--> ?PR?_DEBUG_TXT_TIBBO?TIBBO
  +--> ?PR?_DEBUG_CHR_TIBBO?TIBBO
  +--> ?PR?LOAD_AND_SEND_INFO_RELOJ?PTO_PARA...
  +--> ?PR?VALIDASENSOR?IO_SENSORES
  +--> ?PR?_DELAY_10MS?DELAY
  +--> ?PR?LOAD_AND_SEND_ID_COD?PTO_PARALELO
BL51 BANKED LINKER/LOCATER V6.22.2.0                                                  09/14/2021  15:59:56  PAGE 24



?PR?LOAD_AND_SEND_INFO_RELOJ?PTO_PARA...         -----    -----      -----    -----      0002H    000BH
  +--> ?PR?_BLOCK_READ_CLOCK?CLOCK
  +--> ?PR?_LEE_CLK?CLOCK
  +--> ?CO?PTO_PARALELO
  +--> ?PR?_DEBUG_TXT_TIBBO?TIBBO
  +--> ?PR?_DEBUGBUFFERMF?TIBBO
  +--> ?PR?DEBUG_DIVIDIR_TEXTO?TIBBO
  +--> ?PR?_SEND_PORT?PTO_PARALELO

?PR?LOAD_AND_SEND_ID_COD?PTO_PARALELO            -----    -----      -----    -----      0002H    0014H
  +--> ?PR?_RD_EEPROM?EEPROM
  +--> ?CO?PTO_PARALELO
  +--> ?PR?PRINTF?PRINTF
  +--> ?PR?_STRCAT?STRCAT
  +--> ?PR?_STRLEN?STRLEN
  +--> ?PR?_DEBUG_TXT_TIBBO?TIBBO
  +--> ?PR?_DEBUGBUFFERMF?TIBBO
  +--> ?PR?DEBUG_DIVIDIR_TEXTO?TIBBO
  +--> ?PR?_SEND_PORT?PTO_PARALELO



SYMBOL TABLE OF MODULE:  .\Objects\expedidor_v_101 (MAIN)

  VALUE           TYPE          NAME
  ----------------------------------

  -------         MODULE        MAIN
  C:0000H         SYMBOL        _ICE_DUMMY_
  X:0171H         PUBLIC        STX
  D:0080H         PUBLIC        P0
  D:0090H         PUBLIC        P1
  C:BB44H         PUBLIC        timer0_int
  D:00B0H         PUBLIC        P3
  B:00A8H.7       PUBLIC        EA
  B:0080H.2       PUBLIC        led_err_imp
  C:BEDBH         PUBLIC        off_Timer0_Interrup
  X:0172H         PUBLIC        ValTimeOutCom
  X:0173H         PUBLIC        Buffer_Rta_Lintech
  X:01A5H         PUBLIC        Timer_wait
  B:0021H.1       PUBLIC        pto_paraleo
  X:01A6H         PUBLIC        g_cContByteRx
  B:0080H.0       PUBLIC        rx_ip
  C:A807H         PUBLIC        main
  X:01A7H         PUBLIC        Timer_tivo
  B:0080H.3       PUBLIC        Atascado_GP0_PIN_3
  C:B054H         PUBLIC        variable_inicio
  B:0090H.7       PUBLIC        lock
  I:0023H         PUBLIC        rbuf
  C:BED1H         PUBLIC        on_Timer0_Interrup
  I:0055H         PUBLIC        tbuf
  B:0090H.1       PUBLIC        DataIn
  D:0089H         PUBLIC        TMOD
  X:01A9H         PUBLIC        USE_LPR
  X:01AAH         PUBLIC        Debug_Tibbo
  X:01ABH         PUBLIC        Raspberry
BL51 BANKED LINKER/LOCATER V6.22.2.0                                                  09/14/2021  15:59:56  PAGE 25


  X:01ACH         PUBLIC        SIN_COBRO
  X:01AEH         PUBLIC        Tipo_Vehiculo
  B:00B0H.3       PUBLIC        busy
  C:BE29H         PUBLIC        ini_timer
  B:00A8H.1       PUBLIC        ET0
  X:01AFH         PUBLIC        precarga
  B:0088H.5       PUBLIC        TF0
  D:008CH         PUBLIC        TH0
  X:01B0H         PUBLIC        ACK
  X:01B1H         PUBLIC        g_cEstadoComSoft
  D:008AH         PUBLIC        TL0
  B:0088H.4       PUBLIC        TR0
  C:BE39H         PUBLIC        inicia_board
  X:01B2H         PUBLIC        T_GRACIA
  B:0080H.7       PUBLIC        sel_com
  X:01B4H         PUBLIC        STX_LINTECH
  C:BE68H         PUBLIC        _getkey
  X:01B5H         PUBLIC        ETX
  C:B37EH         PUBLIC        _EscribirCadenaSoft_buffer
  B:0021H.2       PUBLIC        buffer_ready
  C:B69CH         PUBLIC        _putchar
  B:0021H.3       PUBLIC        placa_ready
  -------         PROC          TIMER0_INT
  C:BB44H         LINE#         17
  C:BB4AH         LINE#         20
  C:BB50H         LINE#         21
  C:BB55H         LINE#         22
  C:BB55H         LINE#         23
  C:BB5BH         LINE#         24
  C:BB5BH         LINE#         26
  C:BB69H         LINE#         27
  C:BB6BH         LINE#         29
  -------         ENDPROC       TIMER0_INT
  -------         PROC          INI_TIMER
  C:BE29H         LINE#         32
  C:BE29H         LINE#         33
  C:BE29H         LINE#         35
  C:BE31H         LINE#         37
  C:BE34H         LINE#         38
  C:BE36H         LINE#         39
  C:BE38H         LINE#         41
  -------         ENDPROC       INI_TIMER
  -------         PROC          ON_TIMER0_INTERRUP
  C:BED1H         LINE#         44
  C:BED1H         LINE#         45
  C:BED1H         LINE#         46
  C:BED3H         LINE#         47
  C:BED5H         LINE#         49
  -------         ENDPROC       ON_TIMER0_INTERRUP
  -------         PROC          OFF_TIMER0_INTERRUP
  C:BEDBH         LINE#         52
  C:BEDBH         LINE#         53
  C:BEDBH         LINE#         54
  C:BEDDH         LINE#         56
  -------         ENDPROC       OFF_TIMER0_INTERRUP
  -------         PROC          _GETKEY
  -------         DO            
BL51 BANKED LINKER/LOCATER V6.22.2.0                                                  09/14/2021  15:59:56  PAGE 26


  D:0006H         SYMBOL        k
  -------         ENDDO         
  C:BE68H         LINE#         64
  C:BE68H         LINE#         65
  C:BE68H         LINE#         69
  C:BE68H         LINE#         70
  C:BE6BH         LINE#         71
  C:BE6BH         LINE#         72
  C:BE73H         LINE#         74
  C:BE73H         LINE#         75
  -------         ENDPROC       _GETKEY
  -------         PROC          _PUTCHAR
  X:00A7H         SYMBOL        c
  -------         DO            
  X:00A8H         SYMBOL        i
  -------         ENDDO         
  C:B69CH         LINE#         79
  C:B6A1H         LINE#         80
  C:B6A1H         LINE#         83
  C:B6B0H         LINE#         84
  C:B6B0H         LINE#         85
  C:B6C6H         LINE#         86
  C:B6C6H         LINE#         88
  C:B6D4H         LINE#         89
  C:B6D4H         LINE#         91
  C:B6D9H         LINE#         92
  -------         ENDPROC       _PUTCHAR
  -------         PROC          _ESCRIBIRCADENASOFT_BUFFER
  X:003FH         SYMBOL        buffer
  X:0042H         SYMBOL        tamano_cadena
  -------         DO            
  X:0043H         SYMBOL        i
  X:0044H         SYMBOL        d
  -------         ENDDO         
  C:B37EH         LINE#         96
  C:B38CH         LINE#         97
  C:B38CH         LINE#         99
  C:B39AH         LINE#         100
  C:B39AH         LINE#         101
  C:B3B1H         LINE#         102
  C:B3BBH         LINE#         103
  C:B3C3H         LINE#         104
  -------         ENDPROC       _ESCRIBIRCADENASOFT_BUFFER
  -------         PROC          INICIA_BOARD
  C:BE39H         LINE#         109
  C:BE39H         LINE#         110
  C:BE39H         LINE#         111
  C:BE3CH         LINE#         112
  C:BE3FH         LINE#         113
  C:BE42H         LINE#         114
  C:BE44H         LINE#         115
  C:BE46H         LINE#         116
  C:BE48H         LINE#         118
  -------         ENDPROC       INICIA_BOARD
  -------         PROC          VARIABLE_INICIO
  C:B054H         LINE#         123
  C:B054H         LINE#         124
BL51 BANKED LINKER/LOCATER V6.22.2.0                                                  09/14/2021  15:59:56  PAGE 27


  C:B054H         LINE#         127
  C:B065H         LINE#         128
  C:B076H         LINE#         129
  C:B084H         LINE#         130
  C:B092H         LINE#         131
  C:B0A0H         LINE#         135
  -------         ENDPROC       VARIABLE_INICIO
  -------         PROC          MAIN
  -------         DO            
  X:0148H         SYMBOL        buffer
  X:0170H         SYMBOL        Estado_Comunicacion_Secuencia_MF
  X:0000H         SYMBOL        Length_trama
  -------         ENDDO         
  C:A807H         LINE#         143
  C:A807H         LINE#         144
  C:A807H         LINE#         151
  C:A80AH         LINE#         152
  C:A80DH         LINE#         153
  C:A810H         LINE#         154
  C:A813H         LINE#         155
  C:A816H         LINE#         156
  C:A818H         LINE#         158
  C:A81BH         LINE#         159
  C:A822H         LINE#         160
  C:A825H         LINE#         162
  C:A82AH         LINE#         163
  C:A82CH         LINE#         164
  C:A82FH         LINE#         166
  C:A832H         LINE#         167
  C:A832H         LINE#         168
  C:A835H         LINE#         169
  C:A835H         LINE#         172
  C:A838H         LINE#         173
  C:A83EH         LINE#         174
  C:A844H         LINE#         176
  C:A844H         LINE#         177
  C:A844H         LINE#         179
  C:A847H         LINE#         180
  C:A847H         LINE#         181
  C:A84AH         LINE#         182
  C:A84AH         LINE#         186
  C:A857H         LINE#         191
  C:A85DH         LINE#         192
  C:A85DH         LINE#         194
  C:A86CH         LINE#         197
  C:A875H         LINE#         198
  C:A883H         LINE#         203
  C:A883H         LINE#         204
  C:A886H         LINE#         207
  -------         ENDPROC       MAIN
  -------         ENDMOD        MAIN

  -------         MODULE        ACCESCAN
  C:0000H         SYMBOL        _ICE_DUMMY_
  D:0080H         PUBLIC        P0
  D:0090H         PUBLIC        P1
  D:00B0H         PUBLIC        P3
BL51 BANKED LINKER/LOCATER V6.22.2.0                                                  09/14/2021  15:59:56  PAGE 28


  C:B55BH         PUBLIC        _Monitor_chr
  B:0080H.3       PUBLIC        Atascado_GP0_PIN_3
  B:0090H.7       PUBLIC        lock
  C:337DH         PUBLIC        _Valida_Trama_Pto
  C:8AC5H         PUBLIC        _Cmd_LPR_Salida_wiegand
  -------         PROC          _VALIDA_TRAMA_PTO
  X:0001H         SYMBOL        buffer
  X:0004H         SYMBOL        length_trama
  -------         DO            
  X:021DH         SYMBOL        cont
  X:0005H         SYMBOL        bcc
  D:0004H         SYMBOL        j
  X:0006H         SYMBOL        buff
  -------         ENDDO         
  C:337DH         LINE#         113
  C:338BH         LINE#         114
  C:338BH         LINE#         117
  C:338EH         LINE#         123
  C:33D1H         LINE#         124
  C:33D1H         LINE#         125
  C:33DAH         LINE#         126
  C:33EFH         LINE#         127
  C:33F8H         LINE#         128
  C:3405H         LINE#         129
  C:3405H         LINE#         130
  C:3421H         LINE#         131
  C:3424H         LINE#         133
  C:342DH         LINE#         134
  C:3435H         LINE#         135
  C:343EH         LINE#         136
  C:3457H         LINE#         137
  C:3457H         LINE#         139
  C:3467H         LINE#         140
  C:3467H         LINE#         141
  C:347AH         LINE#         143
  C:347DH         LINE#         145
  C:347DH         LINE#         148
  C:347DH         LINE#         150
  C:347DH         LINE#         152
  C:3483H         LINE#         153
  C:3487H         LINE#         154
  C:348BH         LINE#         155
  C:348EH         LINE#         156
  C:3499H         LINE#         158
  C:34A2H         LINE#         159
  C:34AAH         LINE#         160
  C:34B2H         LINE#         161
  C:34BAH         LINE#         162
  C:34C3H         LINE#         163
  C:34C3H         LINE#         166
  C:34C3H         LINE#         169
  C:34D5H         LINE#         170
  C:34D5H         LINE#         171
  C:34D7H         LINE#         172
  C:34DAH         LINE#         174
  C:34ECH         LINE#         175
  C:34ECH         LINE#         176
BL51 BANKED LINKER/LOCATER V6.22.2.0                                                  09/14/2021  15:59:56  PAGE 29


  C:34EEH         LINE#         177
  C:34F1H         LINE#         179
  C:3503H         LINE#         180
  C:3503H         LINE#         181
  C:3505H         LINE#         182
  C:3508H         LINE#         184
  C:3522H         LINE#         185
  C:3522H         LINE#         186
  C:3524H         LINE#         187
  C:3527H         LINE#         189
  C:3541H         LINE#         190
  C:3541H         LINE#         191
  C:3543H         LINE#         192
  C:3546H         LINE#         194
  C:3558H         LINE#         195
  C:3558H         LINE#         196
  C:355EH         LINE#         197
  C:356BH         LINE#         198
  C:356BH         LINE#         199
  C:3570H         LINE#         201
  C:3575H         LINE#         202
  C:3577H         LINE#         203
  C:3579H         LINE#         204
  C:357DH         LINE#         205
  C:357DH         LINE#         206
  C:357EH         LINE#         208
  C:3596H         LINE#         209
  C:3596H         LINE#         211
  C:35A3H         LINE#         212
  C:35A3H         LINE#         213
  C:35A5H         LINE#         214
  C:35A7H         LINE#         216
  C:35A9H         LINE#         217
  C:35A9H         LINE#         219
  C:35C4H         LINE#         220
  C:35C4H         LINE#         221
  C:35C8H         LINE#         222
  C:35CDH         LINE#         223
  C:35D6H         LINE#         224
  C:35DBH         LINE#         225
  C:35DBH         LINE#         228
  C:35DCH         LINE#         230
  C:35F6H         LINE#         231
  C:35F6H         LINE#         232
  C:35F8H         LINE#         233
  C:35FBH         LINE#         235
  C:362BH         LINE#         236
  C:362BH         LINE#         237
  C:362EH         LINE#         238
  C:362EH         LINE#         240
  C:3648H         LINE#         241
  C:3648H         LINE#         242
  C:364AH         LINE#         243
  C:364DH         LINE#         245
  C:3667H         LINE#         246
  C:3667H         LINE#         247
  C:3669H         LINE#         248
BL51 BANKED LINKER/LOCATER V6.22.2.0                                                  09/14/2021  15:59:56  PAGE 30


  C:366BH         LINE#         250
  C:3685H         LINE#         251
  C:3685H         LINE#         252
  C:3687H         LINE#         253
  C:3689H         LINE#         256
  C:36A3H         LINE#         257
  C:36A3H         LINE#         258
  C:36A5H         LINE#         259
  C:36A7H         LINE#         263
  C:36C1H         LINE#         264
  C:36C1H         LINE#         265
  C:36C3H         LINE#         266
  C:36C5H         LINE#         269
  C:36DFH         LINE#         270
  C:36DFH         LINE#         271
  C:36E4H         LINE#         272
  C:36E4H         LINE#         275
  C:3715H         LINE#         276
  C:3715H         LINE#         277
  C:371DH         LINE#         278
  C:3726H         LINE#         279
  C:3729H         LINE#         282
  C:375AH         LINE#         283
  C:375AH         LINE#         285
  C:3762H         LINE#         286
  C:376BH         LINE#         287
  C:376EH         LINE#         290
  C:37AEH         LINE#         291
  C:37AEH         LINE#         293
  C:37C3H         LINE#         294
  C:37C9H         LINE#         295
  C:37F3H         LINE#         298
  C:37FBH         LINE#         299
  C:37FBH         LINE#         302
  C:3802H         LINE#         303
  C:3802H         LINE#         304
  C:3807H         LINE#         305
  C:3807H         LINE#         306
  C:3809H         LINE#         308
  C:3809H         LINE#         309
  C:3812H         LINE#         310
  C:381AH         LINE#         311
  C:381AH         LINE#         315
  C:381CH         LINE#         318
  C:381CH         LINE#         326
  C:3824H         LINE#         330
  C:3824H         LINE#         331
  C:3826H         LINE#         333
  C:385EH         LINE#         334
  C:385EH         LINE#         335
  C:3866H         LINE#         336
  C:3872H         LINE#         337
  C:3872H         LINE#         339
  C:389FH         LINE#         340
  C:389FH         LINE#         341
  C:38AEH         LINE#         343
  C:38AEH         LINE#         345
BL51 BANKED LINKER/LOCATER V6.22.2.0                                                  09/14/2021  15:59:56  PAGE 31


  -------         ENDPROC       _VALIDA_TRAMA_PTO
  -------         PROC          _MONITOR_CHR
  X:0033H         SYMBOL        str
  X:0036H         SYMBOL        num_char
  -------         DO            
  X:0037H         SYMBOL        j
  -------         ENDDO         
  C:B55BH         LINE#         500
  C:B569H         LINE#         501
  C:B569H         LINE#         503
  C:B577H         LINE#         504
  C:B577H         LINE#         505
  C:B589H         LINE#         506
  C:B593H         LINE#         507
  C:B59BH         LINE#         508
  -------         ENDPROC       _MONITOR_CHR
  -------         PROC          _CMD_LPR_SALIDA_WIEGAND
  X:0011H         SYMBOL        buffer
  -------         DO            
  X:0014H         SYMBOL        Buffer_Lpr
  X:0032H         SYMBOL        j
  -------         ENDDO         
  C:8AC5H         LINE#         513
  C:8AD0H         LINE#         514
  C:8AD0H         LINE#         516
  C:8AD6H         LINE#         517
  C:8ADBH         LINE#         518
  C:8AE3H         LINE#         519
  C:8AE7H         LINE#         520
  C:8AF0H         LINE#         521
  C:8AF0H         LINE#         522
  C:8B01H         LINE#         523
  C:8B03H         LINE#         525
  C:8B03H         LINE#         526
  C:8B14H         LINE#         527
  C:8B14H         LINE#         531
  C:8B2BH         LINE#         532
  C:8B2BH         LINE#         533
  C:8B3AH         LINE#         534
  C:8B44H         LINE#         536
  C:8B4CH         LINE#         537
  C:8B60H         LINE#         539
  C:8B70H         LINE#         540
  C:8B81H         LINE#         541
  C:8B8EH         LINE#         545
  -------         ENDPROC       _CMD_LPR_SALIDA_WIEGAND
  -------         ENDMOD        ACCESCAN

  -------         MODULE        CLOCK
  C:0000H         SYMBOL        _ICE_DUMMY_
  C:B5D0H         PUBLIC        _two_one
  D:0090H         PUBLIC        P1
  C:76F5H         PUBLIC        _validar_clk
  C:BBC6H         PUBLIC        _wr_clk
  C:8E00H         PUBLIC        _check_fechaOut
  C:60FDH         PUBLIC        _Block_read_clock_ascii_rasberry
  B:00D0H.7       PUBLIC        CY
BL51 BANKED LINKER/LOCATER V6.22.2.0                                                  09/14/2021  15:59:56  PAGE 32


  C:0003H         PUBLIC        p_ck
  C:9E59H         PUBLIC        _hex_ascii
  C:AB7EH         PUBLIC        _hora_entrada_vehiculo
  X:021EH         PUBLIC        data_clk
  C:BE93H         PUBLIC        cond_ini_clock
  C:8EC9H         PUBLIC        _Block_read_Clock
  B:0090H.4       PUBLIC        sck
  C:982AH         PUBLIC        _Block_read_Clock_Hex
  C:6478H         PUBLIC        _Block_read_clock_ascii
  C:B772H         PUBLIC        _hex_bcd
  C:BCFFH         PUBLIC        _bcd_hex
  C:AD94H         PUBLIC        _ByteHex_Decimal
  C:9F85H         PUBLIC        _lee_clk
  B:0090H.5       PUBLIC        io
  C:9A17H         PUBLIC        _Block_write_clock_ascii
  B:0090H.6       PUBLIC        rst
  C:B65DH         PUBLIC        _eb_clk
  C:45D0H         PUBLIC        _Two_ByteHex_Decimal
  -------         PROC          P_CK
  C:0003H         LINE#         69
  C:0003H         LINE#         70
  C:0003H         LINE#         71
  C:0005H         LINE#         72
  C:0008H         LINE#         73
  C:000AH         LINE#         74
  -------         ENDPROC       P_CK
  -------         PROC          _EB_CLK
  X:00B4H         SYMBOL        dir_clk
  -------         DO            
  X:00B5H         SYMBOL        nbits
  -------         ENDDO         
  C:B65DH         LINE#         76
  C:B662H         LINE#         78
  C:B667H         LINE#         79
  C:B667H         LINE#         80
  C:B670H         LINE#         81
  C:B673H         LINE#         82
  C:B673H         LINE#         83
  C:B675H         LINE#         84
  C:B677H         LINE#         86
  C:B677H         LINE#         87
  C:B679H         LINE#         88
  C:B679H         LINE#         89
  C:B67CH         LINE#         90
  C:B69BH         LINE#         91
  -------         ENDPROC       _EB_CLK
  C:9F7BH         SYMBOL        L?0084
  -------         PROC          L?0083
  -------         ENDPROC       L?0083
  C:9F7BH         SYMBOL        L?0084
  -------         PROC          _LEE_CLK
  X:00B1H         SYMBOL        dir_clk
  -------         DO            
  X:00B2H         SYMBOL        nbits
  -------         ENDDO         
  C:9F85H         LINE#         93
  C:9F8AH         LINE#         95
BL51 BANKED LINKER/LOCATER V6.22.2.0                                                  09/14/2021  15:59:56  PAGE 33


  C:9F8CH         LINE#         96
  C:9F93H         LINE#         97
  C:9F9BH         LINE#         98
  C:9FB4H         LINE#         99
  C:9FB4H         LINE#         100
  C:9FB7H         LINE#         101
  C:9FB7H         LINE#         102
  C:9FBEH         LINE#         103
  C:9FC8H         LINE#         104
  C:9FCDH         LINE#         105
  C:9FCDH         LINE#         106
  C:9FCDH         LINE#         107
  C:9FD0H         LINE#         108
  C:9FD0H         LINE#         109
  C:9FD7H         LINE#         110
  C:9FE8H         LINE#         111
  C:9FE8H         LINE#         112
  C:9FF0H         LINE#         113
  C:9FF0H         LINE#         114
  C:9FF0H         LINE#         115
  C:9FF3H         LINE#         116
  C:A003H         LINE#         117
  C:A005H         LINE#         118
  C:A00AH         LINE#         119
  -------         ENDPROC       _LEE_CLK
  -------         PROC          _WR_CLK
  X:0014H         SYMBOL        dir_clk
  X:0015H         SYMBOL        byte
  C:BBC6H         LINE#         121
  C:BBCEH         LINE#         122
  C:BBD0H         LINE#         123
  C:BBD7H         LINE#         124
  C:BBDFH         LINE#         125
  C:BBE8H         LINE#         126
  C:BBEBH         LINE#         127
  C:BBEDH         LINE#         129
  -------         ENDPROC       _WR_CLK
  C:B59CH         SYMBOL        L?0079
  C:B5BAH         SYMBOL        L?0080
  -------         PROC          L?0078
  -------         ENDPROC       L?0078
  C:B59CH         SYMBOL        L?0079
  C:B5BAH         SYMBOL        L?0080
  -------         PROC          _TWO_ONE
  D:0007H         SYMBOL        byte_h
  D:0005H         SYMBOL        byte_l
  -------         DO            
  D:0007H         SYMBOL        byte_out
  -------         ENDDO         
  C:B5D0H         LINE#         131
  C:B5D0H         LINE#         132
  C:B5D0H         LINE#         134
  C:B5D3H         LINE#         135
  C:B5D7H         LINE#         136
  C:B5DAH         LINE#         137
  C:B5DCH         LINE#         138
  C:B5DCH         LINE#         139
BL51 BANKED LINKER/LOCATER V6.22.2.0                                                  09/14/2021  15:59:56  PAGE 34


  -------         ENDPROC       _TWO_ONE
  -------         PROC          _VALIDAR_CLK
  D:0001H         SYMBOL        datos_clock
  -------         DO            
  D:0007H         SYMBOL        validador
  -------         ENDDO         
  C:76F5H         LINE#         143
  C:76F5H         LINE#         144
  C:76F5H         LINE#         145
  C:76F7H         LINE#         148
  C:770CH         LINE#         149
  C:770CH         LINE#         151
  C:7724H         LINE#         152
  C:7724H         LINE#         154
  C:773CH         LINE#         155
  C:773CH         LINE#         156
  C:7754H         LINE#         157
  C:7754H         LINE#         158
  C:776CH         LINE#         159
  C:776CH         LINE#         160
  C:7781H         LINE#         161
  C:7781H         LINE#         162
  C:7793H         LINE#         163
  C:7793H         LINE#         164
  C:77A5H         LINE#         165
  C:77A5H         LINE#         166
  C:77B7H         LINE#         167
  C:77B7H         LINE#         168
  C:77C9H         LINE#         169
  C:77C9H         LINE#         170
  C:77DBH         LINE#         171
  C:77DBH         LINE#         172
  C:77EBH         LINE#         173
  C:77EBH         LINE#         174
  C:77EBH         LINE#         175
  C:77EBH         LINE#         176
  C:77ECH         LINE#         178
  C:77ECH         LINE#         179
  C:77EEH         LINE#         180
  C:77EEH         LINE#         181
  C:77EFH         LINE#         183
  C:77EFH         LINE#         184
  C:77F1H         LINE#         186
  C:77F1H         LINE#         187
  C:77F2H         LINE#         189
  C:77F2H         LINE#         190
  C:77F4H         LINE#         192
  C:77F4H         LINE#         194
  C:77F5H         LINE#         196
  C:77F5H         LINE#         197
  C:77F7H         LINE#         199
  C:77F7H         LINE#         200
  C:77F8H         LINE#         202
  C:77F8H         LINE#         203
  C:77FAH         LINE#         205
  C:77FAH         LINE#         206
  C:77FBH         LINE#         208
BL51 BANKED LINKER/LOCATER V6.22.2.0                                                  09/14/2021  15:59:56  PAGE 35


  C:77FBH         LINE#         209
  C:77FDH         LINE#         211
  C:77FDH         LINE#         212
  C:77FEH         LINE#         214
  C:77FEH         LINE#         215
  C:7800H         LINE#         217
  C:7800H         LINE#         218
  C:7800H         LINE#         220
  C:7801H         LINE#         222
  C:7801H         LINE#         223
  C:7803H         LINE#         225
  C:7803H         LINE#         227
  C:7804H         LINE#         230
  C:7804H         LINE#         231
  C:7806H         LINE#         233
  C:7806H         LINE#         235
  C:7807H         LINE#         238
  C:7807H         LINE#         239
  C:7809H         LINE#         241
  C:7809H         LINE#         243
  C:7809H         LINE#         245
  -------         ENDPROC       _VALIDAR_CLK
  -------         PROC          _BLOCK_WRITE_CLOCK_ASCII
  X:0011H         SYMBOL        datos_clock
  -------         DO            
  D:0007H         SYMBOL        temp
  -------         ENDDO         
  C:9A17H         LINE#         251
  C:9A22H         LINE#         253
  C:9A22H         LINE#         256
  C:9A2BH         LINE#         257
  C:9A34H         LINE#         259
  C:9A3EH         LINE#         260
  C:9A3EH         LINE#         261
  C:9A3EH         LINE#         262
  C:9A3EH         LINE#         264
  C:9A48H         LINE#         265
  C:9A52H         LINE#         266
  C:9A5CH         LINE#         267
  C:9A5CH         LINE#         268
  C:9A5CH         LINE#         269
  C:9A5CH         LINE#         271
  C:9A66H         LINE#         272
  C:9A66H         LINE#         273
  C:9A66H         LINE#         274
  C:9A66H         LINE#         276
  C:9A70H         LINE#         277
  C:9A70H         LINE#         278
  C:9A70H         LINE#         279
  C:9A70H         LINE#         281
  C:9A7AH         LINE#         282
  C:9A7AH         LINE#         283
  C:9A7AH         LINE#         284
  C:9A7AH         LINE#         286
  C:9A84H         LINE#         287
  C:9A8EH         LINE#         288
  C:9A98H         LINE#         289
BL51 BANKED LINKER/LOCATER V6.22.2.0                                                  09/14/2021  15:59:56  PAGE 36


  C:9AA2H         LINE#         291
  C:9AB2H         LINE#         292
  -------         ENDPROC       _BLOCK_WRITE_CLOCK_ASCII
  -------         PROC          _BCD_HEX
  D:0007H         SYMBOL        l_data
  -------         DO            
  D:0006H         SYMBOL        temp
  D:0005H         SYMBOL        j
  -------         ENDDO         
  C:BCFFH         LINE#         298
  C:BCFFH         LINE#         299
  C:BCFFH         LINE#         301
  C:BD01H         LINE#         302
  C:BD05H         LINE#         303
  C:BD08H         LINE#         304
  C:BD0AH         LINE#         305
  C:BD0AH         LINE#         306
  C:BD0EH         LINE#         307
  C:BD15H         LINE#         308
  C:BD15H         LINE#         309
  C:BD19H         LINE#         310
  C:BD1CH         LINE#         311
  C:BD1CH         LINE#         312
  C:BD1CH         LINE#         313
  -------         ENDPROC       _BCD_HEX
  C:B763H         SYMBOL        L?0082
  -------         PROC          L?0081
  -------         ENDPROC       L?0081
  C:B763H         SYMBOL        L?0082
  -------         PROC          _HEX_BCD
  D:0007H         SYMBOL        byte
  -------         DO            
  D:0006H         SYMBOL        nibble_h
  D:0005H         SYMBOL        nibble_l
  D:0004H         SYMBOL        k
  D:0007H         SYMBOL        byte_out
  -------         ENDDO         
  C:B772H         LINE#         317
  C:B772H         LINE#         318
  C:B772H         LINE#         323
  C:B774H         LINE#         324
  C:B775H         LINE#         326
  C:B77BH         LINE#         327
  C:B77BH         LINE#         328
  C:B77CH         LINE#         329
  C:B781H         LINE#         330
  C:B781H         LINE#         331
  C:B782H         LINE#         332
  C:B783H         LINE#         333
  C:B783H         LINE#         334
  C:B786H         LINE#         335
  C:B78AH         LINE#         336
  C:B78DH         LINE#         337
  C:B790H         LINE#         338
  C:B792H         LINE#         339
  C:B792H         LINE#         341
  -------         ENDPROC       _HEX_BCD
BL51 BANKED LINKER/LOCATER V6.22.2.0                                                  09/14/2021  15:59:56  PAGE 37


  -------         PROC          _HEX_ASCII
  X:005DH         SYMBOL        datos
  X:0060H         SYMBOL        fecha_asii
  -------         DO            
  D:0007H         SYMBOL        dato
  -------         ENDDO         
  C:9E59H         LINE#         342
  C:9E64H         LINE#         343
  C:9E64H         LINE#         347
  C:9E67H         LINE#         348
  C:9E7FH         LINE#         349
  C:9E94H         LINE#         350
  C:9E94H         LINE#         352
  C:9E97H         LINE#         353
  C:9EB2H         LINE#         354
  C:9EBAH         LINE#         355
  C:9EBAH         LINE#         357
  C:9EBDH         LINE#         358
  C:9ED8H         LINE#         359
  C:9EE3H         LINE#         361
  -------         ENDPROC       _HEX_ASCII
  -------         PROC          _BYTEHEX_DECIMAL
  D:0001H         SYMBOL        buffer
  D:0005H         SYMBOL        valorhex
  -------         DO            
  X:0018H         SYMBOL        numero
  D:0007H         SYMBOL        centena
  D:0006H         SYMBOL        decena
  -------         ENDDO         
  C:AD94H         LINE#         369
  C:AD94H         LINE#         370
  C:AD94H         LINE#         373
  C:AD96H         LINE#         374
  C:AD97H         LINE#         375
  C:AD9CH         LINE#         377
  C:ADA9H         LINE#         378
  C:ADA9H         LINE#         379
  C:ADADH         LINE#         380
  C:ADAEH         LINE#         381
  C:ADB0H         LINE#         382
  C:ADB6H         LINE#         383
  C:ADBDH         LINE#         384
  C:ADCAH         LINE#         385
  C:ADCAH         LINE#         386
  C:ADCEH         LINE#         387
  C:ADCFH         LINE#         388
  C:ADD1H         LINE#         389
  C:ADD7H         LINE#         390
  C:ADDEH         LINE#         391
  C:ADE7H         LINE#         392
  C:ADEEH         LINE#         393
  -------         ENDPROC       _BYTEHEX_DECIMAL
  -------         PROC          _TWO_BYTEHEX_DECIMAL
  X:0018H         SYMBOL        buffer
  X:001BH         SYMBOL        id_h
  X:001CH         SYMBOL        id_l
  -------         DO            
BL51 BANKED LINKER/LOCATER V6.22.2.0                                                  09/14/2021  15:59:56  PAGE 38


  X:001DH         SYMBOL        valor
  D:0006H         SYMBOL        numero
  X:001FH         SYMBOL        temp
  X:0020H         SYMBOL        dmil
  X:0021H         SYMBOL        mil
  X:0022H         SYMBOL        centena
  X:0023H         SYMBOL        decena
  -------         ENDDO         
  C:45D0H         LINE#         400
  C:45DEH         LINE#         401
  C:45DEH         LINE#         405
  C:45E5H         LINE#         406
  C:45E9H         LINE#         407
  C:45EBH         LINE#         408
  C:45EDH         LINE#         409
  C:45EFH         LINE#         412
  C:45F4H         LINE#         413
  C:45F7H         LINE#         414
  C:45FDH         LINE#         416
  C:4658H         LINE#         417
  C:4660H         LINE#         418
  C:4663H         LINE#         419
  C:46BEH         LINE#         421
  C:46C6H         LINE#         422
  C:46C9H         LINE#         423
  C:46CFH         LINE#         424
  C:472AH         LINE#         425
  C:4732H         LINE#         426
  C:4735H         LINE#         427
  C:4790H         LINE#         428
  C:4790H         LINE#         430
  C:4799H         LINE#         431
  C:4799H         LINE#         432
  C:47A1H         LINE#         433
  C:47A7H         LINE#         434
  C:47A9H         LINE#         435
  C:47BFH         LINE#         436
  C:47C9H         LINE#         437
  C:47D2H         LINE#         438
  C:47D2H         LINE#         439
  C:47DAH         LINE#         440
  C:47E0H         LINE#         441
  C:47E2H         LINE#         442
  C:47F8H         LINE#         443
  C:4802H         LINE#         444
  C:480BH         LINE#         445
  C:480BH         LINE#         446
  C:4813H         LINE#         447
  C:4819H         LINE#         448
  C:481BH         LINE#         449
  C:4831H         LINE#         450
  C:483BH         LINE#         451
  C:4844H         LINE#         452
  C:4844H         LINE#         453
  C:484CH         LINE#         454
  C:4852H         LINE#         455
  C:4854H         LINE#         456
BL51 BANKED LINKER/LOCATER V6.22.2.0                                                  09/14/2021  15:59:56  PAGE 39


  C:486AH         LINE#         457
  C:4874H         LINE#         458
  C:4887H         LINE#         459
  C:4891H         LINE#         460
  -------         ENDPROC       _TWO_BYTEHEX_DECIMAL
  -------         PROC          _BLOCK_READ_CLOCK_ASCII
  X:0051H         SYMBOL        datos_clock
  -------         DO            
  D:0007H         SYMBOL        dato
  -------         ENDDO         
  C:6478H         LINE#         466
  C:647BH         LINE#         467
  C:647BH         LINE#         473
  C:647EH         LINE#         474
  C:6496H         LINE#         475
  C:64A0H         LINE#         476
  C:64B5H         LINE#         477
  C:64BFH         LINE#         480
  C:64C4H         LINE#         481
  C:64DCH         LINE#         482
  C:64E6H         LINE#         483
  C:64FBH         LINE#         484
  C:6505H         LINE#         487
  C:650AH         LINE#         488
  C:6522H         LINE#         489
  C:652CH         LINE#         490
  C:6541H         LINE#         491
  C:654BH         LINE#         495
  C:6550H         LINE#         496
  C:6568H         LINE#         497
  C:6572H         LINE#         498
  C:6587H         LINE#         499
  C:6591H         LINE#         502
  C:6596H         LINE#         503
  C:65AEH         LINE#         504
  C:65B8H         LINE#         505
  C:65CDH         LINE#         506
  C:65D7H         LINE#         507
  -------         ENDPROC       _BLOCK_READ_CLOCK_ASCII
  -------         PROC          _BLOCK_READ_CLOCK_ASCII_RASBERRY
  X:001EH         SYMBOL        datos_clock
  -------         DO            
  D:0007H         SYMBOL        dato
  -------         ENDDO         
  C:60FDH         LINE#         510
  C:6108H         LINE#         511
  C:6108H         LINE#         516
  C:610DH         LINE#         517
  C:6125H         LINE#         518
  C:612FH         LINE#         519
  C:6144H         LINE#         520
  C:614EH         LINE#         523
  C:6153H         LINE#         524
  C:616BH         LINE#         525
  C:6175H         LINE#         526
  C:618AH         LINE#         527
  C:6194H         LINE#         531
BL51 BANKED LINKER/LOCATER V6.22.2.0                                                  09/14/2021  15:59:56  PAGE 40


  C:6199H         LINE#         532
  C:61B1H         LINE#         533
  C:61BBH         LINE#         534
  C:61D0H         LINE#         535
  C:61DAH         LINE#         540
  C:61DFH         LINE#         541
  C:61F7H         LINE#         542
  C:6201H         LINE#         543
  C:6216H         LINE#         544
  C:6220H         LINE#         547
  C:6225H         LINE#         548
  C:623DH         LINE#         549
  C:6247H         LINE#         550
  C:625CH         LINE#         551
  C:6266H         LINE#         552
  C:6276H         LINE#         553
  C:6280H         LINE#         556
  C:6285H         LINE#         557
  C:629DH         LINE#         558
  C:62A7H         LINE#         559
  C:62BCH         LINE#         561
  C:62C6H         LINE#         562
  -------         ENDPROC       _BLOCK_READ_CLOCK_ASCII_RASBERRY
  -------         PROC          _BLOCK_READ_CLOCK_HEX
  X:00AEH         SYMBOL        datos_clock
  C:982AH         LINE#         566
  C:982DH         LINE#         567
  C:982DH         LINE#         570
  C:9842H         LINE#         571
  C:984CH         LINE#         573
  C:9863H         LINE#         574
  C:986DH         LINE#         576
  C:9884H         LINE#         577
  C:988EH         LINE#         579
  C:98A5H         LINE#         580
  C:98AFH         LINE#         582
  C:98C6H         LINE#         583
  -------         ENDPROC       _BLOCK_READ_CLOCK_HEX
  -------         PROC          _HORA_ENTRADA_VEHICULO
  X:0009H         SYMBOL        Atributos_Expedidor
  C:AB7EH         LINE#         586
  C:AB81H         LINE#         587
  C:AB81H         LINE#         589
  C:AB96H         LINE#         590
  C:ABADH         LINE#         591
  C:ABC4H         LINE#         592
  C:ABDBH         LINE#         593
  -------         ENDPROC       _HORA_ENTRADA_VEHICULO
  -------         PROC          _BLOCK_READ_CLOCK
  X:001EH         SYMBOL        datos_clock
  C:8EC9H         LINE#         599
  C:8ECCH         LINE#         600
  C:8ECCH         LINE#         602
  C:8EDEH         LINE#         603
  C:8EE8H         LINE#         605
  C:8EFCH         LINE#         606
  C:8F06H         LINE#         608
BL51 BANKED LINKER/LOCATER V6.22.2.0                                                  09/14/2021  15:59:56  PAGE 41


  C:8F1AH         LINE#         609
  C:8F24H         LINE#         611
  C:8F38H         LINE#         612
  C:8F42H         LINE#         614
  C:8F56H         LINE#         615
  C:8F60H         LINE#         617
  C:8F74H         LINE#         618
  C:8F7EH         LINE#         619
  -------         ENDPROC       _BLOCK_READ_CLOCK
  -------         PROC          COND_INI_CLOCK
  C:BE93H         LINE#         622
  C:BE93H         LINE#         623
  C:BE93H         LINE#         624
  C:BE95H         LINE#         625
  C:BE97H         LINE#         626
  C:BE99H         LINE#         627
  -------         ENDPROC       COND_INI_CLOCK
  -------         PROC          _CHECK_FECHAOUT
  X:009CH         SYMBOL        buffer
  -------         DO            
  X:009FH         SYMBOL        fecha_inicio
  X:00A3H         SYMBOL        fecha_fin
  X:00A7H         SYMBOL        datos_clk
  X:00ADH         SYMBOL        temp
  -------         ENDDO         
  C:8E00H         LINE#         637
  C:8E0BH         LINE#         638
  C:8E0BH         LINE#         644
  C:8E14H         LINE#         645
  C:8E43H         LINE#         646
  C:8E96H         LINE#         649
  C:8EB6H         LINE#         650
  C:8EB6H         LINE#         651
  C:8EBCH         LINE#         652
  C:8EBEH         LINE#         654
  C:8EBEH         LINE#         655
  C:8EC3H         LINE#         656
  C:8EC3H         LINE#         660
  C:8EC8H         LINE#         661
  -------         ENDPROC       _CHECK_FECHAOUT
  -------         ENDMOD        CLOCK

  -------         MODULE        DELAY
  C:0000H         SYMBOL        _ICE_DUMMY_
  C:B8FCH         PUBLIC        _Delay_10ms
  C:BDBDH         PUBLIC        _Delay_20us
  C:BD1DH         PUBLIC        _Delay_1ms
  C:BEE0H         PUBLIC        Delay
  -------         PROC          _DELAY_20US
  D:0006H         SYMBOL        cntd_us
  -------         DO            
  D:0004H         SYMBOL        i
  -------         ENDDO         
  C:BDBDH         LINE#         20
  C:BDBDH         LINE#         21
  C:BDBDH         LINE#         24
  C:BDC7H         LINE#         26
BL51 BANKED LINKER/LOCATER V6.22.2.0                                                  09/14/2021  15:59:56  PAGE 42


  C:BDCEH         LINE#         27
  -------         ENDPROC       _DELAY_20US
  -------         PROC          _DELAY_1MS
  D:0002H         SYMBOL        cntd_ms
  -------         DO            
  D:0082H         SYMBOL        i
  -------         ENDDO         
  C:BD1DH         LINE#         38
  C:BD21H         LINE#         39
  C:BD21H         LINE#         41
  C:BD37H         LINE#         42
  -------         ENDPROC       _DELAY_1MS
  -------         PROC          _DELAY_10MS
  X:0017H         SYMBOL        cntd_10ms
  -------         DO            
  X:0019H         SYMBOL        i
  -------         ENDDO         
  C:B8FCH         LINE#         54
  C:B904H         LINE#         55
  C:B904H         LINE#         57
  C:B935H         LINE#         58
  -------         ENDPROC       _DELAY_10MS
  -------         PROC          DELAY
  C:BEE0H         LINE#         60
  C:BEE0H         LINE#         62
  -------         ENDPROC       DELAY
  -------         ENDMOD        DELAY

  -------         MODULE        EEPROM
  C:0000H         SYMBOL        _ICE_DUMMY_
  C:B84AH         PUBLIC        confirmacion
  D:0090H         PUBLIC        P1
  C:81F6H         PUBLIC        _Write_EEprom_Ticket
  C:ABF2H         PUBLIC        _EscribirMemoria
  X:0212H         PUBLIC        l_chr
  C:BCA3H         PUBLIC        ackd
  B:0021H.6       PUBLIC        memory_flag
  B:00D0H.7       PUBLIC        CY
  C:BECBH         PUBLIC        p_me
  C:BDD7H         PUBLIC        start
  B:0090H.2       PUBLIC        sda
  C:BCC3H         PUBLIC        ack_lect
  B:0090H.3       PUBLIC        scl
  C:B797H         PUBLIC        _rd_eeprom
  C:BE80H         PUBLIC        stop
  C:AF07H         PUBLIC        Formato_eeprom
  X:0213H         PUBLIC        l_data_eeprom
  C:AF75H         PUBLIC        _wr_eeprom
  C:ACCCH         PUBLIC        _LeerMemoria
  C:BA4BH         PUBLIC        Incremente_Ticket
  X:0214H         PUBLIC        byte_rd
  C:8D36H         PUBLIC        Read_EEprom_Ticket
  C:BC3BH         PUBLIC        _e_d_m
  C:8C6AH         PUBLIC        _graba_serie
  C:B0EEH         PUBLIC        Lee_No_Ticket
  C:B0A1H         PUBLIC        l_d_m
  -------         PROC          L?0069
BL51 BANKED LINKER/LOCATER V6.22.2.0                                                  09/14/2021  15:59:56  PAGE 43


  -------         ENDPROC       L?0069
  -------         PROC          ACKD
  -------         DO            
  D:0006H         SYMBOL        i
  -------         ENDDO         
  C:BCA3H         LINE#         41
  C:BCA3H         LINE#         42
  C:BCA3H         LINE#         44
  C:BCA5H         LINE#         45
  C:BCA7H         LINE#         46
  C:BCA9H         LINE#         47
  C:BCACH         LINE#         48
  C:BCACH         LINE#         49
  C:BCAFH         LINE#         50
  C:BCAFH         LINE#         51
  C:BCB1H         LINE#         52
  C:BCB3H         LINE#         54
  C:BCB4H         LINE#         55
  C:BCB4H         LINE#         56
  C:BCBFH         LINE#         58
  C:BCBFH         LINE#         59
  C:BCBFH         LINE#         61
  C:BCBFH         LINE#         62
  -------         ENDPROC       ACKD
  -------         PROC          L?0073
  -------         ENDPROC       L?0073
  -------         PROC          ACK_LECT
  -------         DO            
  D:0006H         SYMBOL        i
  -------         ENDDO         
  C:BCC3H         LINE#         65
  C:BCC3H         LINE#         66
  C:BCC3H         LINE#         68
  C:BCC5H         LINE#         69
  C:BCC7H         LINE#         70
  C:BCC9H         LINE#         71
  C:BCCCH         LINE#         72
  C:BCCCH         LINE#         73
  C:BCCFH         LINE#         74
  C:BCCFH         LINE#         75
  C:BCD1H         LINE#         76
  C:BCD3H         LINE#         77
  C:BCD4H         LINE#         78
  C:BCD4H         LINE#         79
  C:BCDFH         LINE#         80
  -------         ENDPROC       ACK_LECT
  -------         PROC          P_ME
  C:BECBH         LINE#         82
  C:BECBH         LINE#         83
  C:BECBH         LINE#         84
  C:BECDH         LINE#         85
  C:BECEH         LINE#         86
  C:BED0H         LINE#         87
  -------         ENDPROC       P_ME
  -------         PROC          _E_D_M
  D:0007H         SYMBOL        a_serial_eeprom
  -------         DO            
BL51 BANKED LINKER/LOCATER V6.22.2.0                                                  09/14/2021  15:59:56  PAGE 44


  D:0006H         SYMBOL        nbits
  -------         ENDDO         
  C:BC3BH         LINE#         89
  C:BC3BH         LINE#         90
  C:BC3BH         LINE#         92
  C:BC47H         LINE#         93
  C:BC47H         LINE#         94
  C:BC4BH         LINE#         95
  C:BC4EH         LINE#         96
  C:BC4EH         LINE#         97
  C:BC50H         LINE#         98
  C:BC52H         LINE#         100
  C:BC52H         LINE#         101
  C:BC54H         LINE#         102
  C:BC54H         LINE#         103
  C:BC56H         LINE#         104
  C:BC59H         LINE#         105
  C:BC5CH         LINE#         107
  -------         ENDPROC       _E_D_M
  -------         PROC          L?0070
  -------         ENDPROC       L?0070
  -------         PROC          START
  C:BDD7H         LINE#         109
  C:BDD7H         LINE#         110
  C:BDD7H         LINE#         111
  C:BDD9H         LINE#         112
  C:BDDBH         LINE#         113
  C:BDDCH         LINE#         114
  C:BDDEH         LINE#         115
  C:BDE0H         LINE#         117
  -------         ENDPROC       START
  -------         PROC          STOP
  C:BE80H         LINE#         119
  C:BE80H         LINE#         120
  C:BE80H         LINE#         121
  C:BE82H         LINE#         122
  C:BE84H         LINE#         123
  C:BE85H         LINE#         124
  C:BE87H         LINE#         125
  C:BE89H         LINE#         127
  -------         ENDPROC       STOP
  -------         PROC          L_D_M
  -------         DO            
  D:0003H         SYMBOL        nbits
  -------         ENDDO         
  C:B0A1H         LINE#         129
  C:B0A1H         LINE#         130
  C:B0A1H         LINE#         132
  C:B0AEH         LINE#         133
  C:B0AEH         LINE#         134
  C:B0B0H         LINE#         135
  C:B0B3H         LINE#         136
  C:B0B3H         LINE#         137
  C:B0BAH         LINE#         138
  C:B0C3H         LINE#         139
  C:B0C3H         LINE#         140
  C:B0C7H         LINE#         141
BL51 BANKED LINKER/LOCATER V6.22.2.0                                                  09/14/2021  15:59:56  PAGE 45


  C:B0C9H         LINE#         142
  C:B0C9H         LINE#         143
  C:B0C9H         LINE#         144
  C:B0CCH         LINE#         145
  C:B0CCH         LINE#         146
  C:B0D3H         LINE#         147
  C:B0DDH         LINE#         148
  C:B0DDH         LINE#         149
  C:B0E1H         LINE#         150
  C:B0E3H         LINE#         151
  C:B0E3H         LINE#         152
  C:B0E3H         LINE#         153
  C:B0E6H         LINE#         154
  C:B0E8H         LINE#         155
  C:B0EDH         LINE#         156
  -------         ENDPROC       L_D_M
  -------         PROC          L?0068
  -------         ENDPROC       L?0068
  -------         PROC          _WR_EEPROM
  D:0002H         SYMBOL        control
  D:0004H         SYMBOL        Dir
  D:0003H         SYMBOL        data_eeprom
  -------         DO            
  D:0005H         SYMBOL        dir_h
  D:0001H         SYMBOL        dir_l
  -------         ENDDO         
  C:AF75H         LINE#         162
  C:AF77H         LINE#         163
  C:AF77H         LINE#         165
  C:AF7BH         LINE#         166
  C:AF7BH         LINE#         167
  C:AF7BH         LINE#         170
  C:AF7BH         LINE#         171
  C:AF7BH         LINE#         173
  C:AF7EH         LINE#         174
  C:AF80H         LINE#         175
  C:AF83H         LINE#         176
  C:AF85H         LINE#         177
  C:AF88H         LINE#         178
  C:AF8DH         LINE#         179
  C:AF90H         LINE#         180
  C:AF95H         LINE#         181
  C:AF98H         LINE#         182
  C:AF9BH         LINE#         183
  C:AFA2H         LINE#         185
  C:AFA4H         LINE#         186
  C:AFA6H         LINE#         187
  C:AFADH         LINE#         188
  -------         ENDPROC       _WR_EEPROM
  C:B793H         SYMBOL        L?0072
  -------         PROC          L?0071
  -------         ENDPROC       L?0071
  C:B793H         SYMBOL        L?0072
  -------         PROC          _RD_EEPROM
  D:0003H         SYMBOL        control
  D:0004H         SYMBOL        Dir
  -------         DO            
BL51 BANKED LINKER/LOCATER V6.22.2.0                                                  09/14/2021  15:59:56  PAGE 46


  D:0005H         SYMBOL        dir_h
  D:0002H         SYMBOL        dir_l
  -------         ENDDO         
  C:B797H         LINE#         226
  C:B799H         LINE#         227
  C:B799H         LINE#         230
  C:B79DH         LINE#         231
  C:B79DH         LINE#         232
  C:B79DH         LINE#         234
  C:B79DH         LINE#         235
  C:B79DH         LINE#         237
  C:B7A0H         LINE#         238
  C:B7A2H         LINE#         239
  C:B7A5H         LINE#         240
  C:B7A7H         LINE#         241
  C:B7AAH         LINE#         242
  C:B7AFH         LINE#         243
  C:B7B2H         LINE#         244
  C:B7B5H         LINE#         245
  C:B7BBH         LINE#         246
  C:B7BEH         LINE#         247
  C:B7C0H         LINE#         248
  C:B7C3H         LINE#         249
  C:B7C6H         LINE#         250
  C:B7C8H         LINE#         251
  C:B7CAH         LINE#         252
  C:B7CFH         LINE#         253
  -------         ENDPROC       _RD_EEPROM
  -------         PROC          _GRABA_SERIE
  X:0011H         SYMBOL        buffer
  -------         DO            
  X:0014H         SYMBOL        j
  X:0015H         SYMBOL        error
  -------         ENDDO         
  C:8C6AH         LINE#         260
  C:8C75H         LINE#         261
  C:8C75H         LINE#         264
  C:8C7AH         LINE#         269
  C:8C8CH         LINE#         271
  C:8C9FH         LINE#         272
  C:8C9FH         LINE#         273
  C:8CC8H         LINE#         274
  C:8CC8H         LINE#         275
  C:8CCEH         LINE#         277
  C:8CD7H         LINE#         278
  C:8CE5H         LINE#         279
  C:8CEEH         LINE#         280
  C:8CEEH         LINE#         282
  C:8CF6H         LINE#         286
  C:8CFCH         LINE#         287
  C:8CFCH         LINE#         288
  C:8D0AH         LINE#         290
  C:8D0AH         LINE#         292
  C:8D0AH         LINE#         293
  C:8D14H         LINE#         294
  C:8D1FH         LINE#         295
  C:8D2AH         LINE#         296
BL51 BANKED LINKER/LOCATER V6.22.2.0                                                  09/14/2021  15:59:56  PAGE 47


  C:8D35H         LINE#         298
  C:8D35H         LINE#         299
  -------         ENDPROC       _GRABA_SERIE
  -------         PROC          _WRITE_EEPROM_TICKET
  X:0016H         SYMBOL        buffer
  -------         DO            
  X:0019H         SYMBOL        cod_3
  X:001AH         SYMBOL        cod_2
  X:001BH         SYMBOL        cod_1
  X:001CH         SYMBOL        cod_0
  X:001DH         SYMBOL        Noticket
  D:0004H         SYMBOL        Bnoticket
  -------         ENDDO         
  C:81F6H         LINE#         300
  C:8201H         LINE#         301
  C:8201H         LINE#         303
  C:8209H         LINE#         304
  C:8212H         LINE#         305
  C:8220H         LINE#         306
  C:8229H         LINE#         307
  C:823DH         LINE#         309
  C:8246H         LINE#         310
  C:8259H         LINE#         311
  C:825EH         LINE#         312
  C:8261H         LINE#         314
  C:8274H         LINE#         315
  C:8279H         LINE#         316
  C:827CH         LINE#         318
  C:828FH         LINE#         319
  C:8294H         LINE#         320
  C:8297H         LINE#         322
  C:82A3H         LINE#         323
  C:82A6H         LINE#         324
  C:82AFH         LINE#         326
  C:82BDH         LINE#         327
  C:82CBH         LINE#         328
  C:82D9H         LINE#         329
  -------         ENDPROC       _WRITE_EEPROM_TICKET
  -------         PROC          LEE_NO_TICKET
  -------         DO            
  D:0004H         SYMBOL        Noticket
  X:0059H         SYMBOL        Lee_No_Ticket
  D:0007H         SYMBOL        num_chr
  -------         ENDDO         
  C:B0EEH         LINE#         334
  C:B0EEH         LINE#         335
  C:B0EEH         LINE#         339
  C:B0F1H         LINE#         340
  C:B10CH         LINE#         341
  C:B115H         LINE#         342
  C:B121H         LINE#         343
  C:B12AH         LINE#         344
  C:B133H         LINE#         345
  C:B139H         LINE#         346
  -------         ENDPROC       LEE_NO_TICKET
  -------         PROC          READ_EEPROM_TICKET
  -------         DO            
BL51 BANKED LINKER/LOCATER V6.22.2.0                                                  09/14/2021  15:59:56  PAGE 48


  D:0001H         SYMBOL        cod3
  X:0064H         SYMBOL        cod2
  X:0065H         SYMBOL        cod1
  X:0066H         SYMBOL        cod0
  X:0067H         SYMBOL        Noticket
  -------         ENDDO         
  C:8D36H         LINE#         350
  C:8D36H         LINE#         351
  C:8D36H         LINE#         353
  C:8D40H         LINE#         354
  C:8D47H         LINE#         355
  C:8D51H         LINE#         356
  C:8D5FH         LINE#         357
  C:8D69H         LINE#         359
  C:8D89H         LINE#         360
  C:8DAEH         LINE#         361
  C:8DD3H         LINE#         362
  C:8DF1H         LINE#         363
  C:8DFFH         LINE#         364
  -------         ENDPROC       READ_EEPROM_TICKET
  -------         PROC          INCREMENTE_TICKET
  -------         DO            
  D:0004H         SYMBOL        Noticket
  X:0009H         SYMBOL        Lee_No_Ticket
  -------         ENDDO         
  C:BA4BH         LINE#         368
  C:BA4BH         LINE#         369
  C:BA4BH         LINE#         373
  C:BA4EH         LINE#         374
  C:BA5BH         LINE#         375
  C:BA76H         LINE#         376
  -------         ENDPROC       INCREMENTE_TICKET
  -------         PROC          _LEERMEMORIA
  X:009CH         SYMBOL        addres
  X:009EH         SYMBOL        res
  -------         DO            
  D:0007H         SYMBOL        i
  -------         ENDDO         
  C:ACCCH         LINE#         382
  C:ACDDH         LINE#         383
  C:ACDDH         LINE#         385
  C:ACDDH         LINE#         386
  C:ACF9H         LINE#         387
  C:AD08H         LINE#         388
  C:AD16H         LINE#         389
  C:AD20H         LINE#         390
  C:AD23H         LINE#         391
  -------         ENDPROC       _LEERMEMORIA
  -------         PROC          _ESCRIBIRMEMORIA
  X:005DH         SYMBOL        addres
  X:005FH         SYMBOL        res
  C:ABF2H         LINE#         393
  C:AC03H         LINE#         394
  C:AC03H         LINE#         397
  C:AC13H         LINE#         398
  C:AC1AH         LINE#         399
  C:AC1DH         LINE#         401
BL51 BANKED LINKER/LOCATER V6.22.2.0                                                  09/14/2021  15:59:56  PAGE 49


  C:AC2BH         LINE#         402
  C:AC35H         LINE#         403
  C:AC37H         LINE#         404
  C:AC3AH         LINE#         405
  C:AC48H         LINE#         406
  C:AC52H         LINE#         407
  -------         ENDPROC       _ESCRIBIRMEMORIA
  -------         PROC          CONFIRMACION
  -------         DO            
  X:0011H         SYMBOL        hora
  D:0007H         SYMBOL        temp
  -------         ENDDO         
  C:B84AH         LINE#         410
  C:B84AH         LINE#         411
  C:B84AH         LINE#         413
  C:B84CH         LINE#         414
  C:B855H         LINE#         416
  C:B85BH         LINE#         417
  C:B85FH         LINE#         418
  C:B85FH         LINE#         420
  C:B863H         LINE#         421
  C:B86CH         LINE#         422
  C:B86CH         LINE#         424
  C:B871H         LINE#         425
  C:B873H         LINE#         426
  C:B873H         LINE#         428
  C:B877H         LINE#         429
  C:B880H         LINE#         430
  C:B880H         LINE#         431
  C:B880H         LINE#         432
  C:B880H         LINE#         433
  C:B882H         LINE#         435
  C:B882H         LINE#         436
  C:B885H         LINE#         437
  C:B885H         LINE#         438
  C:B885H         LINE#         439
  C:B885H         LINE#         442
  -------         ENDPROC       CONFIRMACION
  -------         PROC          FORMATO_EEPROM
  -------         DO            
  X:001CH         SYMBOL        dato
  X:001DH         SYMBOL        i
  X:001FH         SYMBOL        password
  -------         ENDDO         
  C:AF07H         LINE#         443
  C:AF07H         LINE#         444
  C:AF07H         LINE#         445
  C:AF0DH         LINE#         448
  C:AF22H         LINE#         449
  C:AF22H         LINE#         450
  C:AF2CH         LINE#         451
  C:AF3CH         LINE#         452
  C:AF46H         LINE#         453
  C:AF55H         LINE#         454
  -------         ENDPROC       FORMATO_EEPROM
  -------         ENDMOD        EEPROM

BL51 BANKED LINKER/LOCATER V6.22.2.0                                                  09/14/2021  15:59:56  PAGE 50


  -------         MODULE        IO_SENSORES
  C:0000H         SYMBOL        _ICE_DUMMY_
  D:0090H         PUBLIC        P1
  D:00B0H         PUBLIC        P3
  C:B494H         PUBLIC        Dir_board
  B:0021H.7       PUBLIC        PULSADOR_BOTTON
  C:BEA8H         PUBLIC        sel_Pulsa
  B:0090H.1       PUBLIC        DataIn
  C:BD69H         PUBLIC        Dir_Board_Monitor
  C:BEA1H         PUBLIC        sel_Auto
  C:B96FH         PUBLIC        ValidaSensoresPaso
  B:00B0H.3       PUBLIC        busy
  C:BCE0H         PUBLIC        ValidaSensor
  C:BEB6H         PUBLIC        sel_Sensor1
  C:BEAFH         PUBLIC        sel_Sensor2
  C:BC5DH         PUBLIC        ValidaSensor_cero
  C:AEACH         PUBLIC        Valida_Sensor1_Auto
  B:00B0H.5       PUBLIC        sel_A
  B:00B0H.6       PUBLIC        sel_B
  B:00B0H.7       PUBLIC        sel_C
  C:9628H         PUBLIC        msj_lcd_informativo
  C:BEBDH         PUBLIC        sel_Dir1
  C:BEC4H         PUBLIC        sel_Dir2
  C:BDE1H         PUBLIC        Botton
  C:BE9AH         PUBLIC        sel_Funcion
  -------         PROC          SEL_FUNCION
  C:BE9AH         LINE#         34
  C:BE9AH         LINE#         35
  C:BE9AH         LINE#         36
  C:BE9CH         LINE#         37
  C:BE9EH         LINE#         38
  C:BEA0H         LINE#         39
  -------         ENDPROC       SEL_FUNCION
  -------         PROC          SEL_AUTO
  C:BEA1H         LINE#         41
  C:BEA1H         LINE#         42
  C:BEA1H         LINE#         43
  C:BEA3H         LINE#         44
  C:BEA5H         LINE#         45
  C:BEA7H         LINE#         46
  -------         ENDPROC       SEL_AUTO
  -------         PROC          SEL_PULSA
  C:BEA8H         LINE#         48
  C:BEA8H         LINE#         49
  C:BEA8H         LINE#         50
  C:BEAAH         LINE#         51
  C:BEACH         LINE#         52
  C:BEAEH         LINE#         53
  -------         ENDPROC       SEL_PULSA
  -------         PROC          SEL_SENSOR2
  C:BEAFH         LINE#         56
  C:BEAFH         LINE#         57
  C:BEAFH         LINE#         58
  C:BEB1H         LINE#         59
  C:BEB3H         LINE#         60
  C:BEB5H         LINE#         61
  -------         ENDPROC       SEL_SENSOR2
BL51 BANKED LINKER/LOCATER V6.22.2.0                                                  09/14/2021  15:59:56  PAGE 51


  -------         PROC          SEL_SENSOR1
  C:BEB6H         LINE#         63
  C:BEB6H         LINE#         64
  C:BEB6H         LINE#         65
  C:BEB8H         LINE#         66
  C:BEBAH         LINE#         67
  C:BEBCH         LINE#         68
  -------         ENDPROC       SEL_SENSOR1
  -------         PROC          SEL_DIR1
  C:BEBDH         LINE#         70
  C:BEBDH         LINE#         71
  C:BEBDH         LINE#         72
  C:BEBFH         LINE#         73
  C:BEC1H         LINE#         74
  C:BEC3H         LINE#         75
  -------         ENDPROC       SEL_DIR1
  -------         PROC          SEL_DIR2
  C:BEC4H         LINE#         77
  C:BEC4H         LINE#         78
  C:BEC4H         LINE#         79
  C:BEC6H         LINE#         80
  C:BEC8H         LINE#         81
  C:BECAH         LINE#         82
  -------         ENDPROC       SEL_DIR2
  -------         PROC          BOTTON
  C:BDE1H         LINE#         83
  C:BDE1H         LINE#         84
  C:BDE1H         LINE#         85
  C:BDE4H         LINE#         86
  C:BDE7H         LINE#         87
  C:BDE7H         LINE#         88
  C:BDF0H         LINE#         89
  C:BDF2H         LINE#         90
  C:BDF2H         LINE#         92
  -------         ENDPROC       BOTTON
  -------         PROC          VALIDASENSOR
  -------         DO            
  D:0007H         SYMBOL        Valido
  D:0004H         SYMBOL        Tmin
  -------         ENDDO         
  C:BCE0H         LINE#         94
  C:BCE0H         LINE#         95
  C:BCE0H         LINE#         97
  C:BCE2H         LINE#         98
  C:BCE6H         LINE#         99
  C:BCF1H         LINE#         100
  C:BCF1H         LINE#         101
  C:BCF6H         LINE#         102
  C:BCFAH         LINE#         103
  C:BCFAH         LINE#         104
  C:BCFCH         LINE#         105
  C:BCFCH         LINE#         106
  C:BCFEH         LINE#         107
  C:BCFEH         LINE#         108
  -------         ENDPROC       VALIDASENSOR
  -------         PROC          VALIDASENSOR_CERO
  -------         DO            
BL51 BANKED LINKER/LOCATER V6.22.2.0                                                  09/14/2021  15:59:56  PAGE 52


  D:0007H         SYMBOL        Valido
  D:0004H         SYMBOL        Tmin
  -------         ENDDO         
  C:BC5DH         LINE#         109
  C:BC5DH         LINE#         110
  C:BC5DH         LINE#         112
  C:BC5FH         LINE#         113
  C:BC63H         LINE#         114
  C:BC72H         LINE#         115
  C:BC72H         LINE#         116
  C:BC77H         LINE#         117
  C:BC7BH         LINE#         118
  C:BC7BH         LINE#         119
  C:BC7CH         LINE#         120
  C:BC7CH         LINE#         121
  C:BC7EH         LINE#         122
  C:BC7EH         LINE#         123
  -------         ENDPROC       VALIDASENSOR_CERO
  -------         PROC          DIR_BOARD
  -------         DO            
  X:0033H         SYMBOL        Board
  D:0007H         SYMBOL        Board_High
  -------         ENDDO         
  C:B494H         LINE#         127
  C:B494H         LINE#         128
  C:B494H         LINE#         129
  C:B49AH         LINE#         131
  C:B49DH         LINE#         132
  C:B4A0H         LINE#         133
  C:B4A0H         LINE#         134
  C:B4A3H         LINE#         135
  C:B4A3H         LINE#         136
  C:B4A6H         LINE#         137
  C:B4A9H         LINE#         138
  C:B4A9H         LINE#         139
  C:B4B0H         LINE#         140
  C:B4B0H         LINE#         141
  C:B4B8H         LINE#         142
  C:B4B8H         LINE#         143
  C:B4C0H         LINE#         145
  C:B4C3H         LINE#         146
  C:B4C3H         LINE#         147
  C:B4C9H         LINE#         148
  C:B4C9H         LINE#         149
  C:B4CBH         LINE#         150
  C:B4CDH         LINE#         151
  C:B4CFH         LINE#         152
  C:B4CFH         LINE#         154
  C:B4CFH         LINE#         155
  C:B4D6H         LINE#         156
  -------         ENDPROC       DIR_BOARD
  -------         PROC          DIR_BOARD_MONITOR
  -------         DO            
  D:0007H         SYMBOL        Board_High
  -------         ENDDO         
  C:BD69H         LINE#         157
  C:BD69H         LINE#         158
BL51 BANKED LINKER/LOCATER V6.22.2.0                                                  09/14/2021  15:59:56  PAGE 53


  C:BD69H         LINE#         161
  C:BD72H         LINE#         162
  C:BD75H         LINE#         163
  C:BD75H         LINE#         164
  C:BD78H         LINE#         165
  C:BD78H         LINE#         166
  C:BD7AH         LINE#         167
  C:BD7AH         LINE#         168
  C:BD7AH         LINE#         169
  C:BD7EH         LINE#         170
  -------         ENDPROC       DIR_BOARD_MONITOR
  -------         PROC          VALIDA_SENSOR1_AUTO
  -------         DO            
  X:0012H         SYMBOL        sensor
  -------         ENDDO         
  C:AEACH         LINE#         174
  C:AEACH         LINE#         175
  C:AEACH         LINE#         177
  C:AEAFH         LINE#         178
  C:AEB2H         LINE#         179
  C:AEB5H         LINE#         180
  C:AEBAH         LINE#         181
  C:AEBAH         LINE#         182
  C:AEC1H         LINE#         183
  C:AEC5H         LINE#         184
  C:AEC5H         LINE#         185
  C:AEC5H         LINE#         186
  C:AEC7H         LINE#         188
  C:AEC7H         LINE#         189
  C:AECEH         LINE#         190
  C:AED3H         LINE#         191
  C:AED3H         LINE#         192
  C:AED3H         LINE#         193
  C:AED3H         LINE#         196
  C:AED5H         LINE#         198
  C:AED8H         LINE#         199
  C:AEDDH         LINE#         200
  C:AEDDH         LINE#         202
  C:AEE4H         LINE#         203
  C:AEEAH         LINE#         204
  C:AEF0H         LINE#         205
  C:AEF3H         LINE#         206
  C:AEF5H         LINE#         208
  C:AEF5H         LINE#         209
  C:AEFCH         LINE#         210
  C:AF01H         LINE#         211
  C:AF01H         LINE#         214
  C:AF01H         LINE#         216
  C:AF06H         LINE#         217
  -------         ENDPROC       VALIDA_SENSOR1_AUTO
  -------         PROC          VALIDASENSORESPASO
  -------         DO            
  X:0011H         SYMBOL        sensor
  -------         ENDDO         
  C:B96FH         LINE#         222
  C:B96FH         LINE#         223
  C:B96FH         LINE#         225
BL51 BANKED LINKER/LOCATER V6.22.2.0                                                  09/14/2021  15:59:56  PAGE 54


  C:B972H         LINE#         226
  C:B975H         LINE#         227
  C:B975H         LINE#         228
  C:B983H         LINE#         229
  C:B983H         LINE#         230
  C:B98BH         LINE#         232
  C:B98DH         LINE#         234
  C:B98DH         LINE#         235
  C:B993H         LINE#         236
  C:B995H         LINE#         237
  C:B995H         LINE#         238
  C:B995H         LINE#         239
  C:B995H         LINE#         240
  C:B99EH         LINE#         241
  C:B9A1H         LINE#         242
  C:B9A1H         LINE#         243
  C:B9A6H         LINE#         244
  -------         ENDPROC       VALIDASENSORESPASO
  -------         PROC          MSJ_LCD_INFORMATIVO
  -------         DO            
  X:021BH         SYMBOL        contador
  X:0001H         SYMBOL        info
  X:021CH         SYMBOL        toggle
  -------         ENDDO         
  C:9628H         LINE#         257
  C:9628H         LINE#         258
  C:9628H         LINE#         260
  C:962DH         LINE#         262
  C:9633H         LINE#         263
  C:9640H         LINE#         264
  C:9640H         LINE#         266
  C:9642H         LINE#         267
  C:9645H         LINE#         268
  C:9651H         LINE#         269
  C:9651H         LINE#         270
  C:965BH         LINE#         271
  C:965BH         LINE#         273
  C:9664H         LINE#         274
  C:966CH         LINE#         275
  C:9674H         LINE#         276
  C:9680H         LINE#         277
  C:9680H         LINE#         279
  C:9683H         LINE#         280
  C:9683H         LINE#         281
  C:9685H         LINE#         282
  C:9688H         LINE#         283
  C:968EH         LINE#         284
  C:968EH         LINE#         285
  C:969CH         LINE#         286
  C:969CH         LINE#         287
  C:96A2H         LINE#         288
  C:96A2H         LINE#         289
  C:96A4H         LINE#         290
  C:96B2H         LINE#         291
  C:96B2H         LINE#         292
  C:96BBH         LINE#         293
  C:96BEH         LINE#         294
BL51 BANKED LINKER/LOCATER V6.22.2.0                                                  09/14/2021  15:59:56  PAGE 55


  C:96BEH         LINE#         295
  C:96C3H         LINE#         296
  C:96C6H         LINE#         297
  C:96CBH         LINE#         298
  C:96CBH         LINE#         299
  C:96CBH         LINE#         300
  C:96CBH         LINE#         301
  C:96CBH         LINE#         302
  C:96CEH         LINE#         303
  C:96D1H         LINE#         304
  C:96D1H         LINE#         305
  C:96D6H         LINE#         306
  C:96D6H         LINE#         307
  C:96D6H         LINE#         308
  -------         ENDPROC       MSJ_LCD_INFORMATIVO
  -------         ENDMOD        IO_SENSORES

  -------         MODULE        PANTALLAS
  C:0000H         SYMBOL        _ICE_DUMMY_
  D:0080H         PUBLIC        P0
  C:AA89H         PUBLIC        Reloj_Pantalla_Lcd
  C:2D51H         PUBLIC        _PantallaLCD
  C:B458H         PUBLIC        _LCD_txt
  C:A70BH         PUBLIC        _Raspberry_data
  C:BBF7H         PUBLIC        _tx_chrlcd
  C:268FH         SYMBOL        _?ix1000
  C:2695H         SYMBOL        _?ix1001
  C:269BH         SYMBOL        _?ix1002
  C:26C3H         SYMBOL        _?ix1003
  C:B3C4H         PUBLIC        _LCD_txt_num_char
  C:4B57H         PUBLIC        _PantallaLCD_LINEA_2
  B:0098H.4       PUBLIC        REN
  B:0080H.7       PUBLIC        sel_com
  -------         PROC          _PANTALLALCD
  X:0018H         SYMBOL        cod_msg
  -------         DO            
  X:0019H         SYMBOL        Ini_LCD_Line_one
  X:001FH         SYMBOL        num_chr
  X:0020H         SYMBOL        msjpantalla
  -------         ENDDO         
  C:2D51H         LINE#         96
  C:2D56H         LINE#         97
  C:2D56H         LINE#         99
  C:2D69H         LINE#         108
  C:2D6BH         LINE#         110
  C:2D74H         LINE#         111
  C:2D74H         LINE#         112
  C:2D7EH         LINE#         114
  C:2DDAH         LINE#         115
  C:2DDAH         LINE#         117
  C:2DDAH         LINE#         118
  C:2DE8H         LINE#         119
  C:2DEEH         LINE#         120
  C:2DF1H         LINE#         121
  C:2DF7H         LINE#         122
  C:2DFAH         LINE#         124
  C:2DFAH         LINE#         126
BL51 BANKED LINKER/LOCATER V6.22.2.0                                                  09/14/2021  15:59:56  PAGE 56


  C:2E08H         LINE#         127
  C:2E0EH         LINE#         128
  C:2E11H         LINE#         129
  C:2E17H         LINE#         130
  C:2E1AH         LINE#         132
  C:2E1AH         LINE#         134
  C:2E28H         LINE#         135
  C:2E2EH         LINE#         136
  C:2E31H         LINE#         137
  C:2E37H         LINE#         138
  C:2E3AH         LINE#         139
  C:2E3AH         LINE#         140
  C:2E48H         LINE#         141
  C:2E4EH         LINE#         142
  C:2E51H         LINE#         143
  C:2E57H         LINE#         144
  C:2E5AH         LINE#         145
  C:2E5AH         LINE#         146
  C:2E68H         LINE#         147
  C:2E6EH         LINE#         148
  C:2E71H         LINE#         149
  C:2E77H         LINE#         150
  C:2E7AH         LINE#         151
  C:2E7AH         LINE#         152
  C:2E88H         LINE#         153
  C:2E8EH         LINE#         154
  C:2E91H         LINE#         155
  C:2E97H         LINE#         156
  C:2E9AH         LINE#         157
  C:2E9AH         LINE#         159
  C:2EA8H         LINE#         160
  C:2EAEH         LINE#         161
  C:2EB1H         LINE#         162
  C:2EB7H         LINE#         163
  C:2EBAH         LINE#         164
  C:2EBAH         LINE#         170
  C:2EBAH         LINE#         171
  C:2EC8H         LINE#         172
  C:2ECEH         LINE#         173
  C:2ED1H         LINE#         174
  C:2ED7H         LINE#         175
  C:2EDAH         LINE#         176
  C:2EDAH         LINE#         177
  C:2EE8H         LINE#         178
  C:2EEEH         LINE#         179
  C:2EF1H         LINE#         180
  C:2EF7H         LINE#         181
  C:2EFAH         LINE#         183
  C:2EFAH         LINE#         184
  C:2F08H         LINE#         185
  C:2F0EH         LINE#         186
  C:2F11H         LINE#         187
  C:2F17H         LINE#         188
  C:2F1AH         LINE#         190
  C:2F1AH         LINE#         191
  C:2F28H         LINE#         192
  C:2F2EH         LINE#         193
BL51 BANKED LINKER/LOCATER V6.22.2.0                                                  09/14/2021  15:59:56  PAGE 57


  C:2F31H         LINE#         194
  C:2F37H         LINE#         195
  C:2F3AH         LINE#         200
  C:2F3AH         LINE#         202
  C:2F48H         LINE#         203
  C:2F4EH         LINE#         204
  C:2F51H         LINE#         205
  C:2F57H         LINE#         206
  C:2F5AH         LINE#         208
  C:2F5AH         LINE#         210
  C:2F68H         LINE#         211
  C:2F6EH         LINE#         212
  C:2F71H         LINE#         213
  C:2F77H         LINE#         214
  C:2F7AH         LINE#         216
  C:2F7AH         LINE#         217
  C:2F88H         LINE#         218
  C:2F8EH         LINE#         219
  C:2F91H         LINE#         220
  C:2F97H         LINE#         221
  C:2F9AH         LINE#         223
  C:2F9AH         LINE#         225
  C:2FA8H         LINE#         226
  C:2FAEH         LINE#         227
  C:2FB1H         LINE#         228
  C:2FB7H         LINE#         229
  C:2FBAH         LINE#         231
  C:2FBAH         LINE#         233
  C:2FC8H         LINE#         234
  C:2FCEH         LINE#         235
  C:2FD1H         LINE#         236
  C:2FD7H         LINE#         237
  C:2FDAH         LINE#         239
  C:2FDAH         LINE#         240
  C:2FE8H         LINE#         241
  C:2FEEH         LINE#         242
  C:2FF1H         LINE#         243
  C:2FF7H         LINE#         244
  C:2FFAH         LINE#         246
  C:2FFAH         LINE#         247
  C:3008H         LINE#         248
  C:300EH         LINE#         249
  C:3011H         LINE#         250
  C:3017H         LINE#         251
  C:301AH         LINE#         253
  C:301AH         LINE#         255
  C:3028H         LINE#         256
  C:302EH         LINE#         257
  C:3031H         LINE#         258
  C:3037H         LINE#         259
  C:303AH         LINE#         261
  C:303AH         LINE#         262
  C:3048H         LINE#         263
  C:304EH         LINE#         264
  C:3051H         LINE#         265
  C:3057H         LINE#         266
  C:305AH         LINE#         267
BL51 BANKED LINKER/LOCATER V6.22.2.0                                                  09/14/2021  15:59:56  PAGE 58


  C:305AH         LINE#         268
  C:3068H         LINE#         269
  C:306EH         LINE#         270
  C:3071H         LINE#         271
  C:3077H         LINE#         272
  C:307AH         LINE#         273
  C:307AH         LINE#         274
  C:3088H         LINE#         275
  C:308EH         LINE#         276
  C:3091H         LINE#         277
  C:3097H         LINE#         278
  C:309AH         LINE#         279
  C:309AH         LINE#         280
  C:30A8H         LINE#         281
  C:30ABH         LINE#         282
  C:30B1H         LINE#         283
  C:30B3H         LINE#         287
  C:30B3H         LINE#         288
  C:30C1H         LINE#         289
  C:30C7H         LINE#         290
  C:30CAH         LINE#         291
  C:30D0H         LINE#         292
  C:30D2H         LINE#         293
  C:30D2H         LINE#         294
  C:30E0H         LINE#         295
  C:30E6H         LINE#         296
  C:30E9H         LINE#         297
  C:30EFH         LINE#         298
  C:30F1H         LINE#         299
  C:30F1H         LINE#         300
  C:30FFH         LINE#         301
  C:3105H         LINE#         302
  C:3108H         LINE#         303
  C:3113H         LINE#         304
  C:3113H         LINE#         313
  C:3113H         LINE#         315
  C:3113H         LINE#         316
  C:3113H         LINE#         317
  C:3115H         LINE#         319
  C:3116H         LINE#         321
  C:3116H         LINE#         322
  C:3118H         LINE#         323
  C:3186H         LINE#         324
  C:3186H         LINE#         327
  C:3186H         LINE#         328
  C:3192H         LINE#         329
  C:3192H         LINE#         331
  C:3195H         LINE#         332
  C:3195H         LINE#         335
  C:31A1H         LINE#         336
  C:31A1H         LINE#         337
  C:31A4H         LINE#         339
  C:31A4H         LINE#         340
  C:31B0H         LINE#         341
  C:31B0H         LINE#         343
  C:31B3H         LINE#         344
  C:31B3H         LINE#         345
BL51 BANKED LINKER/LOCATER V6.22.2.0                                                  09/14/2021  15:59:56  PAGE 59


  C:31BFH         LINE#         346
  C:31BFH         LINE#         348
  C:31C2H         LINE#         349
  C:31C2H         LINE#         350
  C:31CEH         LINE#         351
  C:31CEH         LINE#         353
  C:31D1H         LINE#         354
  C:31D1H         LINE#         355
  C:31DDH         LINE#         356
  C:31DDH         LINE#         358
  C:31E0H         LINE#         359
  C:31E0H         LINE#         360
  C:31ECH         LINE#         361
  C:31ECH         LINE#         363
  C:31EFH         LINE#         364
  C:31EFH         LINE#         365
  C:31FBH         LINE#         366
  C:31FBH         LINE#         368
  C:31FEH         LINE#         369
  C:31FEH         LINE#         370
  C:320AH         LINE#         371
  C:320AH         LINE#         373
  C:320DH         LINE#         374
  C:320DH         LINE#         375
  C:3219H         LINE#         376
  C:3219H         LINE#         378
  C:321CH         LINE#         380
  C:321CH         LINE#         381
  C:3228H         LINE#         382
  C:3228H         LINE#         384
  C:322BH         LINE#         386
  C:322BH         LINE#         387
  C:3237H         LINE#         388
  C:3237H         LINE#         390
  C:323AH         LINE#         392
  C:323AH         LINE#         393
  C:3246H         LINE#         394
  C:3246H         LINE#         396
  C:3249H         LINE#         400
  C:3249H         LINE#         401
  C:3255H         LINE#         402
  C:3255H         LINE#         404
  C:3258H         LINE#         406
  C:3258H         LINE#         407
  C:3264H         LINE#         408
  C:3264H         LINE#         410
  C:3267H         LINE#         412
  C:3267H         LINE#         413
  C:3273H         LINE#         414
  C:3273H         LINE#         417
  C:3276H         LINE#         418
  C:3276H         LINE#         419
  C:3282H         LINE#         420
  C:3282H         LINE#         422
  C:3285H         LINE#         423
  C:3285H         LINE#         424
  C:3291H         LINE#         425
BL51 BANKED LINKER/LOCATER V6.22.2.0                                                  09/14/2021  15:59:56  PAGE 60


  C:3291H         LINE#         427
  C:3294H         LINE#         428
  C:3294H         LINE#         429
  C:32A0H         LINE#         430
  C:32A0H         LINE#         432
  C:32A3H         LINE#         433
  C:32A3H         LINE#         434
  C:32AFH         LINE#         435
  C:32AFH         LINE#         437
  C:32B2H         LINE#         439
  C:32B2H         LINE#         440
  C:32BEH         LINE#         441
  C:32BEH         LINE#         443
  C:32C1H         LINE#         445
  C:32C1H         LINE#         446
  C:32CDH         LINE#         447
  C:32CDH         LINE#         449
  C:32D0H         LINE#         450
  C:32D0H         LINE#         451
  C:32DCH         LINE#         452
  C:32DCH         LINE#         454
  C:32DFH         LINE#         455
  C:32DFH         LINE#         456
  C:32EBH         LINE#         457
  C:32EBH         LINE#         459
  C:32EDH         LINE#         460
  C:32EDH         LINE#         461
  C:32F9H         LINE#         462
  C:32F9H         LINE#         464
  C:32FBH         LINE#         466
  C:32FBH         LINE#         467
  C:3307H         LINE#         468
  C:3307H         LINE#         470
  C:3309H         LINE#         471
  C:3309H         LINE#         472
  C:3315H         LINE#         473
  C:3315H         LINE#         475
  C:3317H         LINE#         476
  C:3317H         LINE#         477
  C:3323H         LINE#         478
  C:3323H         LINE#         480
  C:3325H         LINE#         482
  C:3325H         LINE#         483
  C:3331H         LINE#         484
  C:3331H         LINE#         486
  C:3333H         LINE#         489
  C:3333H         LINE#         490
  C:333FH         LINE#         491
  C:333FH         LINE#         493
  C:3341H         LINE#         494
  C:3341H         LINE#         495
  C:334DH         LINE#         496
  C:334DH         LINE#         498
  C:334FH         LINE#         499
  C:334FH         LINE#         500
  C:335BH         LINE#         501
  C:335BH         LINE#         502
BL51 BANKED LINKER/LOCATER V6.22.2.0                                                  09/14/2021  15:59:56  PAGE 61


  C:335DH         LINE#         504
  C:335DH         LINE#         505
  C:336CH         LINE#         506
  C:3375H         LINE#         507
  C:3375H         LINE#         512
  C:3375H         LINE#         513
  C:3375H         LINE#         514
  C:3375H         LINE#         516
  C:337AH         LINE#         517
  C:337CH         LINE#         518
  C:337CH         LINE#         522
  -------         ENDPROC       _PANTALLALCD
  -------         PROC          _PANTALLALCD_LINEA_2
  X:0011H         SYMBOL        cod_msg
  X:0012H         SYMBOL        buffer
  -------         DO            
  X:0015H         SYMBOL        Ini_LCD_Line_one
  X:001BH         SYMBOL        num_chr
  X:001CH         SYMBOL        msjpantalla
  -------         ENDDO         
  C:4B57H         LINE#         523
  C:4B65H         LINE#         524
  C:4B65H         LINE#         526
  C:4B78H         LINE#         528
  C:4B8BH         LINE#         535
  C:4B8DH         LINE#         537
  C:4B96H         LINE#         538
  C:4B96H         LINE#         541
  C:4BA4H         LINE#         542
  C:4BA4H         LINE#         544
  C:4BA4H         LINE#         545
  C:4BA7H         LINE#         546
  C:4BB5H         LINE#         547
  C:4BCAH         LINE#         548
  C:4BD0H         LINE#         549
  C:4BD6H         LINE#         550
  C:4BDCH         LINE#         551
  C:4BDCH         LINE#         552
  C:4BDEH         LINE#         553
  C:4BDEH         LINE#         554
  C:4BE1H         LINE#         555
  C:4BEFH         LINE#         556
  C:4C04H         LINE#         557
  C:4C0AH         LINE#         558
  C:4C10H         LINE#         559
  C:4C1BH         LINE#         560
  C:4C2BH         LINE#         561
  C:4C2BH         LINE#         565
  C:4C2BH         LINE#         567
  C:4C2BH         LINE#         569
  C:4C2BH         LINE#         570
  C:4C2DH         LINE#         571
  C:4C2EH         LINE#         573
  C:4C2EH         LINE#         574
  C:4C30H         LINE#         576
  C:4C58H         LINE#         577
  C:4C58H         LINE#         578
BL51 BANKED LINKER/LOCATER V6.22.2.0                                                  09/14/2021  15:59:56  PAGE 62


  C:4C58H         LINE#         581
  C:4C64H         LINE#         583
  C:4C64H         LINE#         585
  C:4C64H         LINE#         588
  C:4C64H         LINE#         591
  C:4C67H         LINE#         593
  C:4C67H         LINE#         594
  C:4C73H         LINE#         595
  C:4C73H         LINE#         596
  C:4C73H         LINE#         597
  C:4C73H         LINE#         598
  C:4C73H         LINE#         599
  C:4C73H         LINE#         601
  C:4C76H         LINE#         602
  C:4C76H         LINE#         604
  C:4C82H         LINE#         605
  C:4C85H         LINE#         606
  C:4C88H         LINE#         607
  C:4C88H         LINE#         609
  C:4C91H         LINE#         611
  C:4C91H         LINE#         612
  C:4C93H         LINE#         614
  C:4C93H         LINE#         616
  C:4CA4H         LINE#         618
  C:4CA7H         LINE#         620
  C:4CA7H         LINE#         621
  C:4CB2H         LINE#         622
  C:4CB2H         LINE#         623
  C:4CB9H         LINE#         625
  C:4CCFH         LINE#         627
  C:4CE6H         LINE#         628
  C:4CE9H         LINE#         630
  C:4CE9H         LINE#         631
  C:4CF0H         LINE#         633
  C:4CF0H         LINE#         634
  C:4CF0H         LINE#         637
  C:4CF3H         LINE#         638
  C:4CF3H         LINE#         639
  C:4D02H         LINE#         640
  C:4D20H         LINE#         641
  C:4D37H         LINE#         643
  C:4D37H         LINE#         645
  C:4D3AH         LINE#         646
  C:4D3AH         LINE#         647
  C:4D49H         LINE#         648
  C:4D5CH         LINE#         649
  C:4D76H         LINE#         650
  C:4D94H         LINE#         651
  C:4DABH         LINE#         652
  C:4DABH         LINE#         654
  C:4DADH         LINE#         655
  C:4DADH         LINE#         656
  C:4DBCH         LINE#         657
  C:4DDAH         LINE#         658
  C:4DF1H         LINE#         659
  C:4DF4H         LINE#         660
  C:4DF4H         LINE#         661
BL51 BANKED LINKER/LOCATER V6.22.2.0                                                  09/14/2021  15:59:56  PAGE 63


  C:4DF4H         LINE#         663
  C:4DF4H         LINE#         664
  C:4DF4H         LINE#         666
  C:4DF9H         LINE#         667
  C:4DFBH         LINE#         668
  C:4DFBH         LINE#         669
  -------         ENDPROC       _PANTALLALCD_LINEA_2
  C:BBEEH         SYMBOL        L?0176
  C:BBF1H         SYMBOL        L?0177
  C:BBF2H         SYMBOL        L?0178
  -------         PROC          L?0175
  -------         ENDPROC       L?0175
  C:BBEEH         SYMBOL        L?0176
  C:BBF1H         SYMBOL        L?0177
  C:BBF2H         SYMBOL        L?0178
  -------         PROC          _TX_CHRLCD
  D:0007H         SYMBOL        data_com
  X:004DH         SYMBOL        enable_char_add
  -------         DO            
  X:004EH         SYMBOL        d
  -------         ENDDO         
  C:BBF7H         LINE#         675
  C:BBFCH         LINE#         676
  C:BBFCH         LINE#         678
  C:BC04H         LINE#         679
  C:BC14H         LINE#         681
  -------         ENDPROC       _TX_CHRLCD
  -------         PROC          L?0181
  -------         ENDPROC       L?0181
  -------         PROC          _LCD_TXT
  X:0048H         SYMBOL        msg
  X:004BH         SYMBOL        enable_char_add
  -------         DO            
  X:004CH         SYMBOL        i
  -------         ENDDO         
  C:B458H         LINE#         688
  C:B466H         LINE#         689
  C:B466H         LINE#         692
  C:B483H         LINE#         693
  C:B483H         LINE#         694
  C:B48BH         LINE#         695
  C:B493H         LINE#         696
  -------         ENDPROC       _LCD_TXT
  -------         PROC          _LCD_TXT_NUM_CHAR
  X:001EH         SYMBOL        msg
  X:0021H         SYMBOL        length_char
  X:0022H         SYMBOL        enable_char_add
  -------         DO            
  X:0023H         SYMBOL        i
  -------         ENDDO         
  C:B3C4H         LINE#         703
  C:B3D2H         LINE#         704
  C:B3D2H         LINE#         707
  C:B3E5H         LINE#         708
  C:B3E5H         LINE#         709
  C:B401H         LINE#         710
  C:B409H         LINE#         711
BL51 BANKED LINKER/LOCATER V6.22.2.0                                                  09/14/2021  15:59:56  PAGE 64


  -------         ENDPROC       _LCD_TXT_NUM_CHAR
  C:A705H         SYMBOL        L?0180
  -------         PROC          L?0179
  -------         ENDPROC       L?0179
  C:A705H         SYMBOL        L?0180
  -------         PROC          _RASPBERRY_DATA
  X:0048H         SYMBOL        msjpantalla
  -------         DO            
  X:004BH         SYMBOL        i
  X:004CH         SYMBOL        lenth_cadena
  X:004DH         SYMBOL        d
  -------         ENDDO         
  C:A70BH         LINE#         713
  C:A716H         LINE#         714
  C:A716H         LINE#         721
  C:A71EH         LINE#         723
  C:A730H         LINE#         724
  C:A730H         LINE#         726
  C:A742H         LINE#         727
  C:A742H         LINE#         728
  C:A747H         LINE#         729
  C:A765H         LINE#         731
  C:A76DH         LINE#         734
  C:A77FH         LINE#         735
  C:A77FH         LINE#         737
  C:A784H         LINE#         739
  -------         ENDPROC       _RASPBERRY_DATA
  -------         PROC          RELOJ_PANTALLA_LCD
  -------         DO            
  X:0011H         SYMBOL        Ini_Clock_LCD
  -------         ENDDO         
  C:AA89H         LINE#         747
  C:AA89H         LINE#         748
  C:AA89H         LINE#         750
  C:AA9CH         LINE#         752
  C:AAA2H         LINE#         753
  C:AAA2H         LINE#         754
  C:AAA4H         LINE#         755
  C:AAADH         LINE#         759
  C:AAAFH         LINE#         760
  C:AABFH         LINE#         762
  C:AAC1H         LINE#         763
  C:AAC3H         LINE#         765
  C:AAC4H         LINE#         767
  C:AAC4H         LINE#         768
  C:AAC6H         LINE#         769
  C:AACBH         LINE#         770
  C:AADAH         LINE#         772
  C:AAE3H         LINE#         773
  C:AAFAH         LINE#         774
  C:AB03H         LINE#         777
  C:AB05H         LINE#         778
  C:AB05H         LINE#         779
  -------         ENDPROC       RELOJ_PANTALLA_LCD
  -------         ENDMOD        PANTALLAS

  -------         MODULE        PROG
BL51 BANKED LINKER/LOCATER V6.22.2.0                                                  09/14/2021  15:59:56  PAGE 65


  C:0000H         SYMBOL        _ICE_DUMMY_
  C:594BH         PUBLIC        Prog_fecha_vencimiento
  C:6B2BH         PUBLIC        Prog_Sin_Cobro
  C:75DCH         PUBLIC        _Ver_Horario_Desde_Hasta
  C:7A16H         PUBLIC        Prog_debug
  C:7D0AH         PUBLIC        Prog_AntiPassBack
  C:A01EH         PUBLIC        _GetOption
  X:01BAH         PUBLIC        validacion
  C:7F02H         PUBLIC        Prog_Validar_Tipo_Vehiculo_Mensual
  X:01C5H         PUBLIC        cursor
  C:74C2H         PUBLIC        _Prog_Horarios_on_off
  C:9975H         PUBLIC        Show
  C:4208H         PUBLIC        Ver_Prog
  C:BA7FH         PUBLIC        Addr_Horarios
  C:94C0H         PUBLIC        prog_id_cliente
  C:B521H         PUBLIC        _ValidarClave
  C:52F5H         PUBLIC        menu
  C:7B12H         PUBLIC        Prog_Use_Lpr
  C:AD32H         PUBLIC        _ListaComandos
  C:141FH         SYMBOL        _?ix1000
  C:142AH         SYMBOL        _?ix1001
  C:143AH         SYMBOL        _?ix1002
  C:144AH         SYMBOL        _?ix1003
  C:144EH         SYMBOL        _?ix1004
  C:69E6H         PUBLIC        Prog_Horarios
  C:1452H         SYMBOL        _?ix1005
  C:7FFEH         PUBLIC        Prog_Apb_Mensual
  C:80FAH         PUBLIC        Prog_mensuales
  C:9050H         PUBLIC        Prog_tarjeta_automatica_o_boton
  C:5549H         PUBLIC        _hash_id
  C:48A0H         PUBLIC        _Prog_Horario_dias
  C:928DH         PUBLIC        Prog_tiempo_gracia
  C:A911H         PUBLIC        _IngresaDato
  X:01D9H         PUBLIC        comandos
  C:B21AH         PUBLIC        First_Clave
  C:BD52H         PUBLIC        DisplayCursor
  C:7E06H         PUBLIC        Prog_Placa
  C:91D0H         PUBLIC        prog_cod_park
  C:6EE3H         PUBLIC        Ver_Horario
  C:739AH         PUBLIC        _Ver_Horario_dias
  C:5751H         PUBLIC        _Prog_Horario_Desde_Hasta
  C:7C0EH         PUBLIC        tipo_pantalla
  C:85A5H         PUBLIC        Prog_Address_High_Board
  C:B5E3H         PUBLIC        _GetCMD
  -------         PROC          _HASH_ID
  X:005DH         SYMBOL        clave
  -------         DO            
  X:0060H         SYMBOL        len_clave
  X:0061H         SYMBOL        i
  X:01B6H         SYMBOL        temp
  X:01B8H         SYMBOL        temp1
  X:0062H         SYMBOL        aleatorio
  X:006DH         SYMBOL        suma
  X:007DH         SYMBOL        xxor
  X:008DH         SYMBOL        usuario1
  X:0098H         SYMBOL        vencimiento_password
  -------         ENDDO         
BL51 BANKED LINKER/LOCATER V6.22.2.0                                                  09/14/2021  15:59:56  PAGE 66


  C:5549H         LINE#         128
  C:5554H         LINE#         129
  C:5554H         LINE#         132
  C:5567H         LINE#         134
  C:557AH         LINE#         135
  C:558DH         LINE#         139
  C:559AH         LINE#         140
  C:55B6H         LINE#         142
  C:55B6H         LINE#         143
  C:55BAH         LINE#         144
  C:55BCH         LINE#         146
  C:55BCH         LINE#         147
  C:55C3H         LINE#         148
  C:55C3H         LINE#         149
  C:55D6H         LINE#         150
  C:55EAH         LINE#         151
  C:55EAH         LINE#         152
  C:5616H         LINE#         153
  C:5621H         LINE#         154
  C:562EH         LINE#         155
  C:564CH         LINE#         156
  C:5657H         LINE#         157
  C:5664H         LINE#         158
  C:5688H         LINE#         159
  C:5690H         LINE#         160
  C:5690H         LINE#         161
  C:5695H         LINE#         162
  C:5695H         LINE#         163
  C:56AEH         LINE#         164
  C:56AEH         LINE#         165
  C:56BAH         LINE#         167
  C:56BAH         LINE#         168
  C:56C9H         LINE#         169
  C:56C9H         LINE#         170
  C:56D5H         LINE#         171
  C:56D5H         LINE#         172
  C:56EEH         LINE#         173
  C:56EEH         LINE#         174
  C:56F9H         LINE#         175
  C:56F9H         LINE#         176
  C:5712H         LINE#         177
  C:5712H         LINE#         178
  C:571DH         LINE#         179
  C:571DH         LINE#         180
  C:5732H         LINE#         182
  C:573BH         LINE#         183
  C:574AH         LINE#         185
  C:5750H         LINE#         186
  -------         ENDPROC       _HASH_ID
  -------         PROC          _LISTACOMANDOS
  X:0046H         SYMBOL        cmd
  -------         DO            
  X:0049H         SYMBOL        buf
  X:004CH         SYMBOL        i
  -------         ENDDO         
  C:AD32H         LINE#         193
  C:AD3DH         LINE#         194
BL51 BANKED LINKER/LOCATER V6.22.2.0                                                  09/14/2021  15:59:56  PAGE 67


  C:AD3DH         LINE#         198
  C:AD50H         LINE#         199
  C:AD50H         LINE#         200
  C:AD68H         LINE#         201
  C:AD83H         LINE#         202
  C:AD89H         LINE#         203
  C:AD91H         LINE#         205
  C:AD93H         LINE#         206
  -------         ENDPROC       _LISTACOMANDOS
  -------         PROC          L?0291
  -------         ENDPROC       L?0291
  -------         PROC          _VALIDARCLAVE
  X:005DH         SYMBOL        buffer
  -------         DO            
  X:0060H         SYMBOL        buf
  -------         ENDDO         
  C:B521H         LINE#         212
  C:B52CH         LINE#         213
  C:B52CH         LINE#         216
  C:B53BH         LINE#         217
  C:B556H         LINE#         218
  C:B558H         LINE#         221
  C:B55AH         LINE#         222
  -------         ENDPROC       _VALIDARCLAVE
  -------         PROC          L?0292
  -------         ENDPROC       L?0292
  -------         PROC          _GETCMD
  X:005DH         SYMBOL        in
  -------         DO            
  X:0060H         SYMBOL        tokens
  -------         ENDDO         
  C:B5E3H         LINE#         229
  C:B5EEH         LINE#         230
  C:B5EEH         LINE#         231
  C:B601H         LINE#         232
  -------         ENDPROC       _GETCMD
  -------         PROC          L?0290
  -------         ENDPROC       L?0290
  -------         PROC          _GETOPTION
  X:0046H         SYMBOL        in
  -------         DO            
  X:0049H         SYMBOL        tokensSpace
  X:004DH         SYMBOL        tokensQuote
  -------         ENDDO         
  C:A01EH         LINE#         238
  C:A029H         LINE#         239
  C:A029H         LINE#         240
  C:A03CH         LINE#         241
  C:A04FH         LINE#         244
  C:A061H         LINE#         245
  C:A06DH         LINE#         248
  C:A074H         LINE#         249
  C:A081H         LINE#         251
  C:A09AH         LINE#         252
  -------         ENDPROC       _GETOPTION
  -------         PROC          DISPLAYCURSOR
  C:BD52H         LINE#         257
BL51 BANKED LINKER/LOCATER V6.22.2.0                                                  09/14/2021  15:59:56  PAGE 68


  C:BD52H         LINE#         258
  C:BD52H         LINE#         259
  -------         ENDPROC       DISPLAYCURSOR
  C:A90DH         SYMBOL        L?0289
  -------         PROC          L?0288
  -------         ENDPROC       L?0288
  C:A90DH         SYMBOL        L?0289
  -------         PROC          _INGRESADATO
  X:0071H         SYMBOL        buffer
  X:0074H         SYMBOL        modo
  -------         DO            
  D:0006H         SYMBOL        i
  -------         ENDDO         
  C:A911H         LINE#         266
  C:A91FH         LINE#         267
  C:A91FH         LINE#         272
  C:A91FH         LINE#         273
  C:A931H         LINE#         274
  C:A937H         LINE#         275
  C:A937H         LINE#         276
  C:A952H         LINE#         277
  C:A954H         LINE#         279
  C:A954H         LINE#         280
  C:A959H         LINE#         281
  C:A959H         LINE#         282
  C:A96AH         LINE#         283
  C:A974H         LINE#         284
  C:A983H         LINE#         286
  C:A988H         LINE#         290
  -------         ENDPROC       _INGRESADATO
  -------         PROC          PROG_ID_CLIENTE
  -------         DO            
  X:0046H         SYMBOL        buffer
  X:0050H         SYMBOL        dataee
  -------         ENDDO         
  C:94C0H         LINE#         307
  C:94C0H         LINE#         308
  C:94C0H         LINE#         312
  C:94D2H         LINE#         313
  C:94EFH         LINE#         315
  C:9506H         LINE#         317
  C:950FH         LINE#         318
  C:9516H         LINE#         319
  C:9527H         LINE#         320
  C:9530H         LINE#         322
  C:9542H         LINE#         323
  C:955FH         LINE#         324
  -------         ENDPROC       PROG_ID_CLIENTE
  -------         PROC          PROG_COD_PARK
  -------         DO            
  X:0046H         SYMBOL        buffer
  X:0050H         SYMBOL        dataee
  -------         ENDDO         
  C:91D0H         LINE#         329
  C:91D0H         LINE#         330
  C:91D0H         LINE#         334
  C:91E3H         LINE#         335
BL51 BANKED LINKER/LOCATER V6.22.2.0                                                  09/14/2021  15:59:56  PAGE 69


  C:9200H         LINE#         337
  C:9217H         LINE#         339
  C:9220H         LINE#         340
  C:922BH         LINE#         341
  C:923CH         LINE#         342
  C:9246H         LINE#         344
  C:9259H         LINE#         345
  C:9276H         LINE#         346
  -------         ENDPROC       PROG_COD_PARK
  -------         PROC          PROG_TIEMPO_GRACIA
  -------         DO            
  X:0046H         SYMBOL        buffer
  X:0050H         SYMBOL        dataee
  -------         ENDDO         
  C:928DH         LINE#         351
  C:928DH         LINE#         352
  C:928DH         LINE#         356
  C:92A0H         LINE#         357
  C:92BDH         LINE#         359
  C:92D4H         LINE#         361
  C:92DDH         LINE#         362
  C:92E8H         LINE#         363
  C:92F9H         LINE#         364
  C:9303H         LINE#         366
  C:9316H         LINE#         367
  C:9333H         LINE#         368
  -------         ENDPROC       PROG_TIEMPO_GRACIA
  -------         PROC          PROG_SIN_COBRO
  -------         DO            
  X:0046H         SYMBOL        buffer
  X:0050H         SYMBOL        dataee
  -------         ENDDO         
  C:6B2BH         LINE#         374
  C:6B2BH         LINE#         375
  C:6B2BH         LINE#         381
  C:6B3EH         LINE#         382
  C:6B5BH         LINE#         383
  C:6B65H         LINE#         384
  C:6B65H         LINE#         385
  C:6B78H         LINE#         386
  C:6B7AH         LINE#         387
  C:6B86H         LINE#         388
  C:6B86H         LINE#         389
  C:6B99H         LINE#         390
  C:6B9BH         LINE#         392
  C:6B9BH         LINE#         393
  C:6BB2H         LINE#         394
  C:6BB2H         LINE#         396
  C:6BBBH         LINE#         397
  C:6BC6H         LINE#         398
  C:6BD7H         LINE#         399
  C:6BE1H         LINE#         401
  C:6BF4H         LINE#         402
  C:6C11H         LINE#         403
  C:6C1BH         LINE#         404
  C:6C1BH         LINE#         405
  C:6C2EH         LINE#         406
BL51 BANKED LINKER/LOCATER V6.22.2.0                                                  09/14/2021  15:59:56  PAGE 70


  C:6C30H         LINE#         407
  C:6C3CH         LINE#         408
  C:6C3CH         LINE#         409
  C:6C4FH         LINE#         410
  C:6C51H         LINE#         412
  C:6C51H         LINE#         413
  C:6C68H         LINE#         414
  C:6C68H         LINE#         416
  -------         ENDPROC       PROG_SIN_COBRO
  -------         PROC          PROG_DEBUG
  -------         DO            
  X:0046H         SYMBOL        buffer
  X:0050H         SYMBOL        dataee
  -------         ENDDO         
  C:7A16H         LINE#         422
  C:7A16H         LINE#         423
  C:7A16H         LINE#         428
  C:7A29H         LINE#         429
  C:7A46H         LINE#         430
  C:7A50H         LINE#         431
  C:7A50H         LINE#         432
  C:7A63H         LINE#         433
  C:7A65H         LINE#         435
  C:7A65H         LINE#         436
  C:7A7CH         LINE#         437
  C:7A7CH         LINE#         439
  C:7A85H         LINE#         440
  C:7A90H         LINE#         441
  C:7AA1H         LINE#         442
  C:7AABH         LINE#         444
  C:7ABEH         LINE#         445
  C:7ADBH         LINE#         446
  C:7AE5H         LINE#         447
  C:7AE5H         LINE#         448
  C:7AF8H         LINE#         449
  C:7AFAH         LINE#         451
  C:7AFAH         LINE#         452
  C:7B11H         LINE#         453
  C:7B11H         LINE#         454
  -------         ENDPROC       PROG_DEBUG
  -------         PROC          PROG_USE_LPR
  -------         DO            
  X:0046H         SYMBOL        buffer
  X:0050H         SYMBOL        dataee
  -------         ENDDO         
  C:7B12H         LINE#         459
  C:7B12H         LINE#         460
  C:7B12H         LINE#         465
  C:7B25H         LINE#         466
  C:7B42H         LINE#         467
  C:7B4CH         LINE#         468
  C:7B4CH         LINE#         469
  C:7B5FH         LINE#         470
  C:7B61H         LINE#         472
  C:7B61H         LINE#         473
  C:7B78H         LINE#         474
  C:7B78H         LINE#         476
BL51 BANKED LINKER/LOCATER V6.22.2.0                                                  09/14/2021  15:59:56  PAGE 71


  C:7B81H         LINE#         477
  C:7B8CH         LINE#         478
  C:7B9DH         LINE#         479
  C:7BA7H         LINE#         481
  C:7BBAH         LINE#         482
  C:7BD7H         LINE#         483
  C:7BE1H         LINE#         484
  C:7BE1H         LINE#         485
  C:7BF4H         LINE#         486
  C:7BF6H         LINE#         488
  C:7BF6H         LINE#         489
  C:7C0DH         LINE#         490
  C:7C0DH         LINE#         491
  -------         ENDPROC       PROG_USE_LPR
  -------         PROC          TIPO_PANTALLA
  -------         DO            
  X:0046H         SYMBOL        buffer
  X:0050H         SYMBOL        dataee
  -------         ENDDO         
  C:7C0EH         LINE#         498
  C:7C0EH         LINE#         499
  C:7C0EH         LINE#         504
  C:7C21H         LINE#         505
  C:7C3EH         LINE#         506
  C:7C48H         LINE#         507
  C:7C48H         LINE#         508
  C:7C5BH         LINE#         509
  C:7C5DH         LINE#         511
  C:7C5DH         LINE#         512
  C:7C74H         LINE#         513
  C:7C74H         LINE#         515
  C:7C7DH         LINE#         516
  C:7C88H         LINE#         517
  C:7C99H         LINE#         518
  C:7CA3H         LINE#         520
  C:7CB6H         LINE#         521
  C:7CD3H         LINE#         522
  C:7CDDH         LINE#         523
  C:7CDDH         LINE#         524
  C:7CF0H         LINE#         525
  C:7CF2H         LINE#         527
  C:7CF2H         LINE#         528
  C:7D09H         LINE#         529
  C:7D09H         LINE#         531
  -------         ENDPROC       TIPO_PANTALLA
  -------         PROC          PROG_TARJETA_AUTOMATICA_O_BOTON
  -------         DO            
  X:0046H         SYMBOL        buffer
  X:0050H         SYMBOL        dataee
  -------         ENDDO         
  C:9050H         LINE#         532
  C:9050H         LINE#         533
  C:9050H         LINE#         538
  C:9063H         LINE#         539
  C:9080H         LINE#         540
  C:908CH         LINE#         541
  C:908CH         LINE#         542
BL51 BANKED LINKER/LOCATER V6.22.2.0                                                  09/14/2021  15:59:56  PAGE 72


  C:9090H         LINE#         543
  C:9092H         LINE#         545
  C:9092H         LINE#         546
  C:9099H         LINE#         547
  C:9099H         LINE#         549
  C:90A2H         LINE#         550
  C:90ADH         LINE#         551
  C:90BEH         LINE#         552
  C:90C8H         LINE#         554
  C:90DBH         LINE#         555
  C:90F8H         LINE#         556
  C:9104H         LINE#         557
  C:9104H         LINE#         558
  C:9108H         LINE#         559
  C:910AH         LINE#         561
  C:910AH         LINE#         562
  C:9111H         LINE#         563
  C:9111H         LINE#         564
  -------         ENDPROC       PROG_TARJETA_AUTOMATICA_O_BOTON
  -------         PROC          PROG_ANTIPASSBACK
  -------         DO            
  X:0046H         SYMBOL        buffer
  X:0050H         SYMBOL        dataee
  -------         ENDDO         
  C:7D0AH         LINE#         565
  C:7D0AH         LINE#         566
  C:7D0AH         LINE#         571
  C:7D1DH         LINE#         572
  C:7D3AH         LINE#         573
  C:7D44H         LINE#         574
  C:7D44H         LINE#         575
  C:7D57H         LINE#         576
  C:7D59H         LINE#         578
  C:7D59H         LINE#         579
  C:7D70H         LINE#         580
  C:7D70H         LINE#         582
  C:7D79H         LINE#         583
  C:7D84H         LINE#         584
  C:7D95H         LINE#         585
  C:7D9FH         LINE#         587
  C:7DB2H         LINE#         588
  C:7DCFH         LINE#         589
  C:7DD9H         LINE#         590
  C:7DD9H         LINE#         591
  C:7DECH         LINE#         592
  C:7DEEH         LINE#         594
  C:7DEEH         LINE#         595
  C:7E05H         LINE#         596
  C:7E05H         LINE#         597
  -------         ENDPROC       PROG_ANTIPASSBACK
  -------         PROC          PROG_PLACA
  -------         DO            
  X:0046H         SYMBOL        buffer
  X:0050H         SYMBOL        dataee
  -------         ENDDO         
  C:7E06H         LINE#         598
  C:7E06H         LINE#         599
BL51 BANKED LINKER/LOCATER V6.22.2.0                                                  09/14/2021  15:59:56  PAGE 73


  C:7E06H         LINE#         604
  C:7E19H         LINE#         605
  C:7E36H         LINE#         606
  C:7E40H         LINE#         607
  C:7E40H         LINE#         608
  C:7E53H         LINE#         609
  C:7E55H         LINE#         611
  C:7E55H         LINE#         612
  C:7E6CH         LINE#         613
  C:7E6CH         LINE#         615
  C:7E75H         LINE#         616
  C:7E80H         LINE#         617
  C:7E91H         LINE#         618
  C:7E9BH         LINE#         620
  C:7EAEH         LINE#         621
  C:7ECBH         LINE#         622
  C:7ED5H         LINE#         623
  C:7ED5H         LINE#         624
  C:7EE8H         LINE#         625
  C:7EEAH         LINE#         627
  C:7EEAH         LINE#         628
  C:7F01H         LINE#         629
  C:7F01H         LINE#         630
  -------         ENDPROC       PROG_PLACA
  -------         PROC          PROG_ADDRESS_HIGH_BOARD
  -------         DO            
  X:0046H         SYMBOL        buffer
  X:0050H         SYMBOL        dataee
  -------         ENDDO         
  C:85A5H         LINE#         631
  C:85A5H         LINE#         632
  C:85A5H         LINE#         637
  C:85B8H         LINE#         638
  C:85D5H         LINE#         639
  C:85DFH         LINE#         640
  C:85DFH         LINE#         641
  C:85E3H         LINE#         642
  C:85E5H         LINE#         644
  C:85E5H         LINE#         645
  C:85FCH         LINE#         646
  C:85FCH         LINE#         648
  C:8605H         LINE#         649
  C:8610H         LINE#         650
  C:8621H         LINE#         651
  C:862BH         LINE#         653
  C:863EH         LINE#         654
  C:865BH         LINE#         655
  C:8665H         LINE#         656
  C:8665H         LINE#         657
  C:8669H         LINE#         658
  C:866BH         LINE#         660
  C:866BH         LINE#         661
  C:8682H         LINE#         662
  C:8682H         LINE#         663
  -------         ENDPROC       PROG_ADDRESS_HIGH_BOARD
  -------         PROC          ADDR_HORARIOS
  -------         DO            
BL51 BANKED LINKER/LOCATER V6.22.2.0                                                  09/14/2021  15:59:56  PAGE 74


  X:0074H         SYMBOL        ee_addr_horario
  -------         ENDDO         
  C:BA7FH         LINE#         665
  C:BA7FH         LINE#         666
  C:BA7FH         LINE#         669
  C:BA85H         LINE#         670
  C:BA89H         LINE#         671
  C:BA8DH         LINE#         672
  C:BA91H         LINE#         673
  C:BA95H         LINE#         674
  C:BA99H         LINE#         675
  C:BA9DH         LINE#         676
  C:BAA1H         LINE#         677
  C:BAA5H         LINE#         678
  C:BAA9H         LINE#         679
  C:BAACH         LINE#         680
  C:BAB2H         LINE#         681
  -------         ENDPROC       ADDR_HORARIOS
  -------         PROC          _PROG_HORARIOS_ON_OFF
  X:0061H         SYMBOL        addr
  -------         DO            
  X:0063H         SYMBOL        buffer
  X:006DH         SYMBOL        dataee
  X:006FH         SYMBOL        habilitado
  -------         ENDDO         
  C:74C2H         LINE#         682
  C:74CCH         LINE#         683
  C:74CCH         LINE#         686
  C:74DBH         LINE#         687
  C:74F8H         LINE#         688
  C:7502H         LINE#         689
  C:7502H         LINE#         690
  C:7515H         LINE#         691
  C:7517H         LINE#         693
  C:7517H         LINE#         694
  C:752EH         LINE#         695
  C:752EH         LINE#         696
  C:7537H         LINE#         697
  C:7542H         LINE#         698
  C:7553H         LINE#         699
  C:7562H         LINE#         701
  C:7579H         LINE#         702
  C:7596H         LINE#         703
  C:75A3H         LINE#         704
  C:75A3H         LINE#         705
  C:75A6H         LINE#         706
  C:75B9H         LINE#         707
  C:75BBH         LINE#         709
  C:75BBH         LINE#         710
  C:75C0H         LINE#         711
  C:75D5H         LINE#         712
  C:75D5H         LINE#         713
  C:75DBH         LINE#         714
  -------         ENDPROC       _PROG_HORARIOS_ON_OFF
  -------         PROC          _PROG_HORARIO_DESDE_HASTA
  X:0061H         SYMBOL        addr
  -------         DO            
BL51 BANKED LINKER/LOCATER V6.22.2.0                                                  09/14/2021  15:59:56  PAGE 75


  X:0063H         SYMBOL        buffer
  D:0007H         SYMBOL        dataee
  -------         ENDDO         
  C:5751H         LINE#         715
  C:5759H         LINE#         716
  C:5759H         LINE#         721
  C:5762H         LINE#         722
  C:5765H         LINE#         723
  C:576EH         LINE#         724
  C:5786H         LINE#         725
  C:5799H         LINE#         726
  C:57A7H         LINE#         727
  C:57BFH         LINE#         728
  C:57D2H         LINE#         729
  C:57E0H         LINE#         730
  C:57F8H         LINE#         731
  C:580BH         LINE#         732
  C:5819H         LINE#         733
  C:5831H         LINE#         734
  C:5844H         LINE#         735
  C:5852H         LINE#         739
  C:585BH         LINE#         740
  C:585EH         LINE#         742
  C:5867H         LINE#         744
  C:587FH         LINE#         745
  C:5892H         LINE#         746
  C:58A0H         LINE#         747
  C:58B8H         LINE#         748
  C:58CBH         LINE#         749
  C:58D9H         LINE#         750
  C:58F1H         LINE#         751
  C:5904H         LINE#         752
  C:5912H         LINE#         753
  C:592AH         LINE#         754
  C:593DH         LINE#         755
  -------         ENDPROC       _PROG_HORARIO_DESDE_HASTA
  -------         PROC          _VER_HORARIO_DESDE_HASTA
  X:0074H         SYMBOL        addr
  -------         DO            
  D:0007H         SYMBOL        dataee
  -------         ENDDO         
  C:75DCH         LINE#         757
  C:75E4H         LINE#         758
  C:75E4H         LINE#         760
  C:75EDH         LINE#         761
  C:7600H         LINE#         762
  C:760EH         LINE#         763
  C:7621H         LINE#         764
  C:762FH         LINE#         765
  C:7642H         LINE#         766
  C:7650H         LINE#         767
  C:7663H         LINE#         768
  C:7671H         LINE#         770
  C:7684H         LINE#         771
  C:7692H         LINE#         773
  C:76A5H         LINE#         774
  C:76B3H         LINE#         776
BL51 BANKED LINKER/LOCATER V6.22.2.0                                                  09/14/2021  15:59:56  PAGE 76


  C:76C6H         LINE#         777
  C:76D4H         LINE#         779
  C:76E7H         LINE#         780
  -------         ENDPROC       _VER_HORARIO_DESDE_HASTA
  -------         PROC          _PROG_HORARIO_DIAS
  X:0061H         SYMBOL        addr
  -------         DO            
  X:0063H         SYMBOL        buffer
  X:006DH         SYMBOL        dataee
  X:006EH         SYMBOL        j
  X:006FH         SYMBOL        temp
  -------         ENDDO         
  C:48A0H         LINE#         782
  C:48A8H         LINE#         783
  C:48A8H         LINE#         787
  C:48B1H         LINE#         788
  C:48BAH         LINE#         789
  C:48C3H         LINE#         790
  C:48CEH         LINE#         793
  C:48D7H         LINE#         795
  C:48EDH         LINE#         796
  C:48EDH         LINE#         798
  C:4900H         LINE#         799
  C:4900H         LINE#         800
  C:4909H         LINE#         802
  C:491EH         LINE#         803
  C:4936H         LINE#         804
  C:4943H         LINE#         805
  C:4943H         LINE#         807
  C:4959H         LINE#         808
  C:4959H         LINE#         809
  C:4962H         LINE#         810
  C:4977H         LINE#         811
  C:498FH         LINE#         812
  C:499CH         LINE#         813
  C:499CH         LINE#         815
  C:49B2H         LINE#         816
  C:49B2H         LINE#         817
  C:49BBH         LINE#         818
  C:49D0H         LINE#         819
  C:49E8H         LINE#         820
  C:49F5H         LINE#         821
  C:49F5H         LINE#         823
  C:4A0BH         LINE#         824
  C:4A0BH         LINE#         825
  C:4A14H         LINE#         826
  C:4A29H         LINE#         827
  C:4A41H         LINE#         828
  C:4A4EH         LINE#         829
  C:4A4EH         LINE#         831
  C:4A64H         LINE#         832
  C:4A64H         LINE#         833
  C:4A6DH         LINE#         834
  C:4A82H         LINE#         835
  C:4A9AH         LINE#         836
  C:4AA7H         LINE#         837
  C:4AA7H         LINE#         839
BL51 BANKED LINKER/LOCATER V6.22.2.0                                                  09/14/2021  15:59:56  PAGE 77


  C:4ABDH         LINE#         840
  C:4ABDH         LINE#         841
  C:4AC6H         LINE#         842
  C:4ADBH         LINE#         843
  C:4AF3H         LINE#         844
  C:4B00H         LINE#         845
  C:4B00H         LINE#         847
  C:4B16H         LINE#         848
  C:4B16H         LINE#         849
  C:4B1FH         LINE#         850
  C:4B2EH         LINE#         851
  C:4B40H         LINE#         852
  C:4B4DH         LINE#         853
  C:4B4DH         LINE#         854
  C:4B56H         LINE#         856
  -------         ENDPROC       _PROG_HORARIO_DIAS
  -------         PROC          _VER_HORARIO_DIAS
  X:0074H         SYMBOL        addr
  -------         DO            
  X:0076H         SYMBOL        dataee
  -------         ENDDO         
  C:739AH         LINE#         857
  C:73A2H         LINE#         858
  C:73A2H         LINE#         861
  C:73B2H         LINE#         862
  C:73B8H         LINE#         863
  C:73B8H         LINE#         864
  C:73BCH         LINE#         865
  C:73BEH         LINE#         867
  C:73BEH         LINE#         868
  C:73C5H         LINE#         869
  C:73C5H         LINE#         872
  C:73DDH         LINE#         873
  C:73E3H         LINE#         874
  C:73E3H         LINE#         875
  C:73E7H         LINE#         876
  C:73E9H         LINE#         878
  C:73E9H         LINE#         879
  C:73F0H         LINE#         880
  C:73F0H         LINE#         883
  C:7408H         LINE#         884
  C:740EH         LINE#         885
  C:740EH         LINE#         886
  C:7412H         LINE#         887
  C:7414H         LINE#         889
  C:7414H         LINE#         890
  C:741BH         LINE#         891
  C:741BH         LINE#         893
  C:7433H         LINE#         894
  C:7439H         LINE#         895
  C:7439H         LINE#         896
  C:743DH         LINE#         897
  C:743FH         LINE#         899
  C:743FH         LINE#         900
  C:7446H         LINE#         901
  C:7446H         LINE#         903
  C:745EH         LINE#         904
BL51 BANKED LINKER/LOCATER V6.22.2.0                                                  09/14/2021  15:59:56  PAGE 78


  C:7464H         LINE#         905
  C:7464H         LINE#         906
  C:7468H         LINE#         907
  C:746AH         LINE#         909
  C:746AH         LINE#         910
  C:7471H         LINE#         911
  C:7471H         LINE#         914
  C:7489H         LINE#         915
  C:748FH         LINE#         916
  C:748FH         LINE#         917
  C:7493H         LINE#         918
  C:7495H         LINE#         920
  C:7495H         LINE#         921
  C:749CH         LINE#         922
  C:749CH         LINE#         924
  C:74AEH         LINE#         925
  C:74B4H         LINE#         926
  C:74B4H         LINE#         927
  C:74B8H         LINE#         928
  C:74BAH         LINE#         930
  C:74BAH         LINE#         931
  C:74C1H         LINE#         932
  C:74C1H         LINE#         933
  -------         ENDPROC       _VER_HORARIO_DIAS
  -------         PROC          PROG_HORARIOS
  -------         DO            
  X:0046H         SYMBOL        buffer
  X:0050H         SYMBOL        ee_addr_horario
  X:005BH         SYMBOL        addr
  X:005DH         SYMBOL        temp
  X:005FH         SYMBOL        dataee
  X:0060H         SYMBOL        j
  -------         ENDDO         
  C:69E6H         LINE#         934
  C:69E6H         LINE#         935
  C:69E6H         LINE#         944
  C:69F2H         LINE#         948
  C:69FBH         LINE#         949
  C:6A06H         LINE#         951
  C:6A15H         LINE#         955
  C:6A2BH         LINE#         956
  C:6A31H         LINE#         960
  C:6A3FH         LINE#         961
  C:6A47H         LINE#         962
  C:6A47H         LINE#         964
  C:6A56H         LINE#         965
  C:6A6AH         LINE#         966
  C:6A6AH         LINE#         967
  C:6A7EH         LINE#         968
  C:6A86H         LINE#         970
  C:6A96H         LINE#         973
  C:6A99H         LINE#         977
  C:6AA4H         LINE#         980
  C:6AADH         LINE#         981
  C:6AB8H         LINE#         982
  C:6AC7H         LINE#         983
  C:6ADAH         LINE#         985
BL51 BANKED LINKER/LOCATER V6.22.2.0                                                  09/14/2021  15:59:56  PAGE 79


  C:6AF2H         LINE#         986
  C:6B0CH         LINE#         987
  C:6B14H         LINE#         988
  C:6B14H         LINE#         990
  C:6B22H         LINE#         991
  C:6B2AH         LINE#         992
  C:6B2AH         LINE#         993
  C:6B2AH         LINE#         995
  -------         ENDPROC       PROG_HORARIOS
  -------         PROC          PROG_VALIDAR_TIPO_VEHICULO_MENSUAL
  -------         DO            
  X:0046H         SYMBOL        buffer
  X:0050H         SYMBOL        dataee
  -------         ENDDO         
  C:7F02H         LINE#         996
  C:7F02H         LINE#         997
  C:7F02H         LINE#         1002
  C:7F15H         LINE#         1003
  C:7F32H         LINE#         1004
  C:7F3CH         LINE#         1005
  C:7F3CH         LINE#         1006
  C:7F4FH         LINE#         1007
  C:7F51H         LINE#         1009
  C:7F51H         LINE#         1010
  C:7F68H         LINE#         1011
  C:7F68H         LINE#         1013
  C:7F71H         LINE#         1014
  C:7F7CH         LINE#         1015
  C:7F8DH         LINE#         1016
  C:7F97H         LINE#         1018
  C:7FAAH         LINE#         1019
  C:7FC7H         LINE#         1020
  C:7FD1H         LINE#         1021
  C:7FD1H         LINE#         1022
  C:7FE4H         LINE#         1023
  C:7FE6H         LINE#         1025
  C:7FE6H         LINE#         1026
  C:7FFDH         LINE#         1027
  C:7FFDH         LINE#         1028
  -------         ENDPROC       PROG_VALIDAR_TIPO_VEHICULO_MENSUAL
  -------         PROC          PROG_APB_MENSUAL
  -------         DO            
  X:0046H         SYMBOL        buffer
  X:0050H         SYMBOL        dataee
  -------         ENDDO         
  C:7FFEH         LINE#         1029
  C:7FFEH         LINE#         1030
  C:7FFEH         LINE#         1035
  C:8011H         LINE#         1036
  C:802EH         LINE#         1037
  C:8038H         LINE#         1038
  C:8038H         LINE#         1039
  C:804BH         LINE#         1040
  C:804DH         LINE#         1042
  C:804DH         LINE#         1043
  C:8064H         LINE#         1044
  C:8064H         LINE#         1046
BL51 BANKED LINKER/LOCATER V6.22.2.0                                                  09/14/2021  15:59:56  PAGE 80


  C:806DH         LINE#         1047
  C:8078H         LINE#         1048
  C:8089H         LINE#         1049
  C:8093H         LINE#         1051
  C:80A6H         LINE#         1052
  C:80C3H         LINE#         1053
  C:80CDH         LINE#         1054
  C:80CDH         LINE#         1055
  C:80E0H         LINE#         1056
  C:80E2H         LINE#         1058
  C:80E2H         LINE#         1059
  C:80F9H         LINE#         1060
  C:80F9H         LINE#         1061
  -------         ENDPROC       PROG_APB_MENSUAL
  -------         PROC          PROG_FECHA_VENCIMIENTO
  -------         DO            
  X:0046H         SYMBOL        buffer
  X:0051H         SYMBOL        cmd
  X:0054H         SYMBOL        fecha
  X:005BH         SYMBOL        dataee
  -------         ENDDO         
  C:594BH         LINE#         1063
  C:594BH         LINE#         1064
  C:594BH         LINE#         1071
  C:5958H         LINE#         1072
  C:596FH         LINE#         1075
  C:5986H         LINE#         1077
  C:5986H         LINE#         1078
  C:598FH         LINE#         1079
  C:599CH         LINE#         1080
  C:59B3H         LINE#         1081
  C:59C5H         LINE#         1082
  C:59CEH         LINE#         1087
  C:59D9H         LINE#         1088
  C:59EDH         LINE#         1089
  C:59FAH         LINE#         1091
  C:5A03H         LINE#         1094
  C:5A0CH         LINE#         1095
  C:5A17H         LINE#         1096
  C:5A2EH         LINE#         1098
  C:5A36H         LINE#         1099
  C:5A3EH         LINE#         1100
  C:5A41H         LINE#         1102
  C:5A52H         LINE#         1103
  C:5A63H         LINE#         1105
  C:5A72H         LINE#         1106
  C:5A7AH         LINE#         1107
  C:5A82H         LINE#         1108
  C:5A85H         LINE#         1109
  C:5A96H         LINE#         1110
  C:5AA7H         LINE#         1111
  C:5AB6H         LINE#         1112
  C:5ABEH         LINE#         1113
  C:5AC6H         LINE#         1114
  C:5AC9H         LINE#         1115
  C:5ADAH         LINE#         1116
  C:5AEBH         LINE#         1117
BL51 BANKED LINKER/LOCATER V6.22.2.0                                                  09/14/2021  15:59:56  PAGE 81


  C:5AFAH         LINE#         1118
  C:5B05H         LINE#         1120
  C:5B12H         LINE#         1122
  C:5B29H         LINE#         1123
  -------         ENDPROC       PROG_FECHA_VENCIMIENTO
  -------         PROC          VER_HORARIO
  -------         DO            
  X:0059H         SYMBOL        buffer
  X:0063H         SYMBOL        ee_addr_horario
  X:006EH         SYMBOL        conta
  X:006FH         SYMBOL        addr
  X:0071H         SYMBOL        temp
  X:0073H         SYMBOL        dataee
  -------         ENDDO         
  C:6EE3H         LINE#         1126
  C:6EE3H         LINE#         1127
  C:6EE3H         LINE#         1136
  C:6EEFH         LINE#         1137
  C:6F05H         LINE#         1138
  C:6F05H         LINE#         1140
  C:6F15H         LINE#         1143
  C:6F2EH         LINE#         1144
  C:6F34H         LINE#         1147
  C:6F42H         LINE#         1148
  C:6F51H         LINE#         1149
  C:6F6BH         LINE#         1150
  C:6F76H         LINE#         1151
  C:6F76H         LINE#         1152
  C:6F7FH         LINE#         1154
  C:6F88H         LINE#         1155
  C:6F98H         LINE#         1156
  C:6F9BH         LINE#         1158
  C:6FA6H         LINE#         1159
  C:6FBEH         LINE#         1160
  C:6FD8H         LINE#         1161
  C:6FE2H         LINE#         1162
  C:6FE2H         LINE#         1163
  C:6FE9H         LINE#         1165
  C:6FF7H         LINE#         1166
  C:6FFFH         LINE#         1167
  C:7001H         LINE#         1169
  C:7001H         LINE#         1170
  C:7005H         LINE#         1171
  C:7005H         LINE#         1172
  C:7007H         LINE#         1174
  C:7007H         LINE#         1175
  C:7010H         LINE#         1176
  C:7010H         LINE#         1178
  C:7019H         LINE#         1181
  -------         ENDPROC       VER_HORARIO
  -------         PROC          PROG_MENSUALES
  -------         DO            
  X:0046H         SYMBOL        buffer
  X:0050H         SYMBOL        dataee
  -------         ENDDO         
  C:80FAH         LINE#         1182
  C:80FAH         LINE#         1183
BL51 BANKED LINKER/LOCATER V6.22.2.0                                                  09/14/2021  15:59:56  PAGE 82


  C:80FAH         LINE#         1188
  C:810DH         LINE#         1189
  C:812AH         LINE#         1190
  C:8134H         LINE#         1191
  C:8134H         LINE#         1192
  C:8147H         LINE#         1193
  C:8149H         LINE#         1195
  C:8149H         LINE#         1196
  C:8160H         LINE#         1197
  C:8160H         LINE#         1199
  C:8169H         LINE#         1200
  C:8174H         LINE#         1201
  C:8185H         LINE#         1202
  C:818FH         LINE#         1204
  C:81A2H         LINE#         1205
  C:81BFH         LINE#         1206
  C:81C9H         LINE#         1207
  C:81C9H         LINE#         1208
  C:81DCH         LINE#         1209
  C:81DEH         LINE#         1211
  C:81DEH         LINE#         1212
  C:81F5H         LINE#         1213
  C:81F5H         LINE#         1215
  -------         ENDPROC       PROG_MENSUALES
  -------         PROC          VER_PROG
  -------         DO            
  X:0046H         SYMBOL        buffer
  X:0050H         SYMBOL        dataee
  X:0052H         SYMBOL        fecha
  -------         ENDDO         
  C:4208H         LINE#         1217
  C:4208H         LINE#         1218
  C:4208H         LINE#         1224
  C:421AH         LINE#         1225
  C:4237H         LINE#         1227
  C:424EH         LINE#         1229
  C:4261H         LINE#         1230
  C:427EH         LINE#         1232
  C:4295H         LINE#         1234
  C:42A8H         LINE#         1235
  C:42C5H         LINE#         1236
  C:42D3H         LINE#         1237
  C:42D3H         LINE#         1238
  C:42D7H         LINE#         1239
  C:42D9H         LINE#         1241
  C:42D9H         LINE#         1242
  C:42E0H         LINE#         1243
  C:42E0H         LINE#         1245
  C:42F3H         LINE#         1246
  C:4310H         LINE#         1247
  C:431CH         LINE#         1248
  C:431CH         LINE#         1249
  C:4320H         LINE#         1250
  C:4322H         LINE#         1252
  C:4322H         LINE#         1253
  C:4329H         LINE#         1254
  C:4329H         LINE#         1256
BL51 BANKED LINKER/LOCATER V6.22.2.0                                                  09/14/2021  15:59:56  PAGE 83


  C:433CH         LINE#         1257
  C:4359H         LINE#         1258
  C:4365H         LINE#         1259
  C:4365H         LINE#         1260
  C:4369H         LINE#         1261
  C:436BH         LINE#         1263
  C:436BH         LINE#         1264
  C:4372H         LINE#         1265
  C:4372H         LINE#         1267
  C:4385H         LINE#         1268
  C:43A2H         LINE#         1269
  C:43AEH         LINE#         1270
  C:43AEH         LINE#         1271
  C:43B2H         LINE#         1272
  C:43B4H         LINE#         1274
  C:43B4H         LINE#         1275
  C:43BBH         LINE#         1276
  C:43BBH         LINE#         1278
  C:43CEH         LINE#         1279
  C:43EBH         LINE#         1280
  C:43F7H         LINE#         1281
  C:43F7H         LINE#         1282
  C:43FBH         LINE#         1283
  C:43FDH         LINE#         1285
  C:43FDH         LINE#         1286
  C:4404H         LINE#         1287
  C:4404H         LINE#         1289
  C:4417H         LINE#         1290
  C:4434H         LINE#         1291
  C:4440H         LINE#         1292
  C:4440H         LINE#         1293
  C:4444H         LINE#         1294
  C:4446H         LINE#         1296
  C:4446H         LINE#         1297
  C:444DH         LINE#         1298
  C:444DH         LINE#         1301
  C:4460H         LINE#         1302
  C:447DH         LINE#         1304
  C:4494H         LINE#         1306
  C:4497H         LINE#         1310
  C:44AAH         LINE#         1311
  C:44C7H         LINE#         1312
  C:44D3H         LINE#         1313
  C:44D3H         LINE#         1314
  C:44D7H         LINE#         1315
  C:44D9H         LINE#         1317
  C:44D9H         LINE#         1318
  C:44E0H         LINE#         1319
  C:44E0H         LINE#         1321
  C:44F3H         LINE#         1322
  C:4510H         LINE#         1323
  C:451CH         LINE#         1324
  C:451CH         LINE#         1325
  C:4520H         LINE#         1326
  C:4522H         LINE#         1328
  C:4522H         LINE#         1329
  C:4529H         LINE#         1330
BL51 BANKED LINKER/LOCATER V6.22.2.0                                                  09/14/2021  15:59:56  PAGE 84


  C:4529H         LINE#         1333
  C:453CH         LINE#         1334
  C:4559H         LINE#         1335
  C:4565H         LINE#         1336
  C:4565H         LINE#         1337
  C:4569H         LINE#         1338
  C:456BH         LINE#         1340
  C:456BH         LINE#         1341
  C:4572H         LINE#         1342
  C:4572H         LINE#         1345
  C:457FH         LINE#         1347
  C:4596H         LINE#         1348
  C:45ADH         LINE#         1351
  C:45B9H         LINE#         1352
  -------         ENDPROC       VER_PROG
  -------         PROC          SHOW
  C:9975H         LINE#         1359
  C:9975H         LINE#         1360
  C:9975H         LINE#         1361
  C:997EH         LINE#         1362
  C:9987H         LINE#         1363
  C:9990H         LINE#         1364
  C:9999H         LINE#         1365
  C:99A2H         LINE#         1366
  C:99ABH         LINE#         1367
  C:99B4H         LINE#         1368
  C:99BDH         LINE#         1369
  C:99C6H         LINE#         1370
  C:99CFH         LINE#         1371
  C:99D8H         LINE#         1372
  C:99E1H         LINE#         1373
  C:99EAH         LINE#         1374
  C:99F3H         LINE#         1375
  C:99FCH         LINE#         1376
  C:9A05H         LINE#         1377
  C:9A0EH         LINE#         1378
  -------         ENDPROC       SHOW
  -------         PROC          FIRST_CLAVE
  -------         DO            
  X:0046H         SYMBOL        clave
  -------         ENDDO         
  C:B21AH         LINE#         1385
  C:B21AH         LINE#         1386
  C:B21AH         LINE#         1390
  C:B223H         LINE#         1391
  C:B228H         LINE#         1392
  C:B23AH         LINE#         1393
  C:B247H         LINE#         1394
  C:B24DH         LINE#         1395
  C:B250H         LINE#         1396
  C:B253H         LINE#         1397
  C:B255H         LINE#         1399
  -------         ENDPROC       FIRST_CLAVE
  -------         PROC          MENU
  -------         DO            
  X:0001H         SYMBOL        cmd
  X:0004H         SYMBOL        option1
BL51 BANKED LINKER/LOCATER V6.22.2.0                                                  09/14/2021  15:59:56  PAGE 85


  X:0007H         SYMBOL        option2
  X:000AH         SYMBOL        opt_buffer
  X:0032H         SYMBOL        buffer
  D:0007H         SYMBOL        dato
  -------         ENDDO         
  C:52F5H         LINE#         1403
  C:52F5H         LINE#         1404
  C:52F5H         LINE#         1414
  C:52FEH         LINE#         1419
  C:530AH         LINE#         1420
  C:530AH         LINE#         1421
  C:530DH         LINE#         1422
  C:5317H         LINE#         1425
  C:5317H         LINE#         1427
  C:5317H         LINE#         1428
  C:5320H         LINE#         1429
  C:532DH         LINE#         1430
  C:5332H         LINE#         1431
  C:5348H         LINE#         1432
  C:535AH         LINE#         1433
  C:5363H         LINE#         1438
  C:536EH         LINE#         1439
  C:537CH         LINE#         1440
  C:5389H         LINE#         1442
  C:5392H         LINE#         1445
  C:539AH         LINE#         1446
  C:539EH         LINE#         1447
  C:539EH         LINE#         1448
  C:539EH         LINE#         1449
  C:53A1H         LINE#         1451
  C:53A1H         LINE#         1452
  C:53AAH         LINE#         1453
  C:53B4H         LINE#         1454
  C:53B4H         LINE#         1455
  C:53B4H         LINE#         1456
  C:53B4H         LINE#         1457
  C:53B7H         LINE#         1460
  C:53C2H         LINE#         1461
  C:53D0H         LINE#         1462
  C:53E4H         LINE#         1463
  C:53F8H         LINE#         1468
  C:540EH         LINE#         1469
  C:540EH         LINE#         1471
  C:541DH         LINE#         1472
  C:541FH         LINE#         1473
  C:542FH         LINE#         1474
  C:542FH         LINE#         1476
  C:543EH         LINE#         1477
  C:545CH         LINE#         1478
  C:545CH         LINE#         1484
  C:546FH         LINE#         1485
  C:546FH         LINE#         1486
  C:54BBH         LINE#         1487
  C:54BBH         LINE#         1488
  C:54BBH         LINE#         1489
  C:54BEH         LINE#         1491
  C:54C1H         LINE#         1493
BL51 BANKED LINKER/LOCATER V6.22.2.0                                                  09/14/2021  15:59:56  PAGE 86


  C:54C1H         LINE#         1494
  C:54C4H         LINE#         1495
  C:54C7H         LINE#         1496
  C:54C7H         LINE#         1497
  C:54CAH         LINE#         1498
  C:54CDH         LINE#         1499
  C:54CDH         LINE#         1500
  C:54D0H         LINE#         1501
  C:54D3H         LINE#         1502
  C:54D3H         LINE#         1503
  C:54D6H         LINE#         1504
  C:54D9H         LINE#         1505
  C:54D9H         LINE#         1506
  C:54DCH         LINE#         1507
  C:54DFH         LINE#         1508
  C:54DFH         LINE#         1509
  C:54E2H         LINE#         1510
  C:54E5H         LINE#         1511
  C:54E5H         LINE#         1512
  C:54E8H         LINE#         1513
  C:54EBH         LINE#         1514
  C:54EBH         LINE#         1515
  C:54EEH         LINE#         1516
  C:54F1H         LINE#         1517
  C:54F1H         LINE#         1518
  C:54F4H         LINE#         1519
  C:54F7H         LINE#         1520
  C:54F7H         LINE#         1521
  C:54FAH         LINE#         1522
  C:54FDH         LINE#         1523
  C:54FDH         LINE#         1524
  C:5500H         LINE#         1525
  C:5503H         LINE#         1526
  C:5503H         LINE#         1527
  C:5506H         LINE#         1528
  C:5509H         LINE#         1529
  C:5509H         LINE#         1530
  C:550CH         LINE#         1531
  C:550FH         LINE#         1533
  C:550FH         LINE#         1534
  C:5512H         LINE#         1535
  C:5515H         LINE#         1536
  C:5515H         LINE#         1537
  C:5518H         LINE#         1538
  C:551BH         LINE#         1539
  C:551BH         LINE#         1540
  C:551EH         LINE#         1541
  C:5521H         LINE#         1542
  C:5521H         LINE#         1544
  C:5521H         LINE#         1545
  C:5521H         LINE#         1546
  C:5524H         LINE#         1547
  C:5527H         LINE#         1550
  C:5527H         LINE#         1551
  C:5545H         LINE#         1552
  C:5548H         LINE#         1553
  C:5548H         LINE#         1554
BL51 BANKED LINKER/LOCATER V6.22.2.0                                                  09/14/2021  15:59:56  PAGE 87


  C:5548H         LINE#         1555
  C:5548H         LINE#         1556
  -------         ENDPROC       MENU
  -------         ENDMOD        PROG

  -------         MODULE        PTO_PARALELO
  C:0000H         SYMBOL        _ICE_DUMMY_
  D:0080H         PUBLIC        P0
  D:00A0H         PUBLIC        P2
  D:00B0H         PUBLIC        P3
  C:6DA7H         PUBLIC        load_and_send_id_cod
  C:9D28H         PUBLIC        _recibe_port
  B:00B0H.2       PUBLIC        ready
  B:0080H.6       PUBLIC        rx_in_data
  C:BDF3H         PUBLIC        Pulso_Bus
  C:A2D1H         PUBLIC        _send_portERR
  B:00B0H.3       PUBLIC        busy
  C:B13AH         PUBLIC        load_and_send_info_reloj
  C:9576H         PUBLIC        _send_port
  B:00B0H.4       PUBLIC        port_clk
  C:BE74H         PUBLIC        cond_ini_pto
  -------         PROC          _RECIBE_PORT
  X:0001H         SYMBOL        buffer_port
  -------         DO            
  D:0006H         SYMBOL        count
  X:0004H         SYMBOL        time_out
  X:0005H         SYMBOL        num_data
  X:0006H         SYMBOL        T_ANCHO
  X:0008H         SYMBOL        data_temp
  -------         ENDDO         
  C:9D28H         LINE#         61
  C:9D33H         LINE#         62
  C:9D33H         LINE#         66
  C:9D3CH         LINE#         67
  C:9D3FH         LINE#         70
  C:9D42H         LINE#         71
  C:9D42H         LINE#         73
  C:9D45H         LINE#         74
  C:9D4AH         LINE#         75
  C:9D4CH         LINE#         76
  C:9D50H         LINE#         77
  C:9D52H         LINE#         80
  C:9D57H         LINE#         81
  C:9D60H         LINE#         82
  C:9D60H         LINE#         83
  C:9D63H         LINE#         84
  C:9D63H         LINE#         86
  C:9D68H         LINE#         87
  C:9D6CH         LINE#         88
  C:9D6CH         LINE#         89
  C:9D6EH         LINE#         90
  C:9D70H         LINE#         91
  C:9D70H         LINE#         92
  C:9D70H         LINE#         94
  C:9D70H         LINE#         95
  C:9D7DH         LINE#         96
  C:9D7DH         LINE#         98
BL51 BANKED LINKER/LOCATER V6.22.2.0                                                  09/14/2021  15:59:56  PAGE 88


  C:9D80H         LINE#         99
  C:9D80H         LINE#         101
  C:9D86H         LINE#         103
  C:9D88H         LINE#         104
  C:9D9CH         LINE#         105
  C:9DA6H         LINE#         106
  C:9DACH         LINE#         107
  C:9DB2H         LINE#         108
  C:9DB4H         LINE#         109
  C:9DB4H         LINE#         110
  C:9DB4H         LINE#         111
  C:9DB4H         LINE#         114
  C:9DB6H         LINE#         115
  C:9DB8H         LINE#         116
  C:9DB8H         LINE#         117
  C:9DBBH         LINE#         119
  C:9DC0H         LINE#         120
  -------         ENDPROC       _RECIBE_PORT
  -------         PROC          _SEND_PORT
  X:0016H         SYMBOL        buffer_port
  X:0019H         SYMBOL        length_char
  -------         DO            
  X:001AH         SYMBOL        cont
  X:001EH         SYMBOL        timeOut
  X:001FH         SYMBOL        length
  -------         ENDDO         
  C:9576H         LINE#         127
  C:9584H         LINE#         128
  C:9584H         LINE#         133
  C:9588H         LINE#         135
  C:958AH         LINE#         136
  C:958CH         LINE#         137
  C:958EH         LINE#         138
  C:9593H         LINE#         139
  C:9595H         LINE#         140
  C:959FH         LINE#         142
  C:95A8H         LINE#         143
  C:95A8H         LINE#         144
  C:95AAH         LINE#         145
  C:95ACH         LINE#         146
  C:95D0H         LINE#         147
  C:95E4H         LINE#         148
  C:95E4H         LINE#         149
  C:95E7H         LINE#         151
  C:95E7H         LINE#         152
  C:95E9H         LINE#         153
  C:95F2H         LINE#         154
  C:95F2H         LINE#         158
  C:95F2H         LINE#         160
  C:9602H         LINE#         161
  C:9605H         LINE#         162
  C:960FH         LINE#         164
  C:9615H         LINE#         165
  C:9618H         LINE#         167
  C:9618H         LINE#         169
  C:961BH         LINE#         170
  C:961DH         LINE#         171
BL51 BANKED LINKER/LOCATER V6.22.2.0                                                  09/14/2021  15:59:56  PAGE 89


  C:961FH         LINE#         172
  C:9621H         LINE#         173
  -------         ENDPROC       _SEND_PORT
  -------         PROC          PULSO_BUS
  C:BDF3H         LINE#         181
  C:BDF3H         LINE#         182
  C:BDF3H         LINE#         183
  C:BDF5H         LINE#         184
  C:BDFCH         LINE#         185
  C:BDFEH         LINE#         186
  -------         ENDPROC       PULSO_BUS
  -------         PROC          _SEND_PORTERR
  X:0018H         SYMBOL        cod_err
  -------         DO            
  X:0019H         SYMBOL        timeOut
  X:001AH         SYMBOL        cont
  -------         ENDDO         
  C:A2D1H         LINE#         191
  C:A2D7H         LINE#         192
  C:A2D7H         LINE#         196
  C:A2D9H         LINE#         197
  C:A2DBH         LINE#         198
  C:A2DEH         LINE#         199
  C:A2E6H         LINE#         201
  C:A2E8H         LINE#         202
  C:A2EAH         LINE#         203
  C:A2F3H         LINE#         204
  C:A2F3H         LINE#         205
  C:A315H         LINE#         206
  C:A329H         LINE#         207
  C:A329H         LINE#         208
  C:A32EH         LINE#         209
  C:A32EH         LINE#         210
  C:A330H         LINE#         211
  C:A339H         LINE#         212
  C:A339H         LINE#         213
  C:A33FH         LINE#         214
  C:A342H         LINE#         215
  C:A342H         LINE#         216
  C:A344H         LINE#         217
  C:A346H         LINE#         218
  C:A348H         LINE#         220
  C:A34BH         LINE#         222
  C:A352H         LINE#         223
  -------         ENDPROC       _SEND_PORTERR
  -------         PROC          COND_INI_PTO
  C:BE74H         LINE#         229
  C:BE74H         LINE#         230
  C:BE74H         LINE#         232
  C:BE76H         LINE#         233
  C:BE78H         LINE#         234
  C:BE7AH         LINE#         235
  C:BE7DH         LINE#         236
  -------         ENDPROC       COND_INI_PTO
  -------         PROC          LOAD_AND_SEND_INFO_RELOJ
  -------         DO            
  X:0002H         SYMBOL        buffer_info
BL51 BANKED LINKER/LOCATER V6.22.2.0                                                  09/14/2021  15:59:56  PAGE 90


  -------         ENDDO         
  C:B13AH         LINE#         242
  C:B13AH         LINE#         243
  C:B13AH         LINE#         246
  C:B140H         LINE#         248
  C:B144H         LINE#         254
  C:B14DH         LINE#         257
  C:B157H         LINE#         258
  C:B15BH         LINE#         259
  C:B15EH         LINE#         260
  C:B167H         LINE#         261
  C:B178H         LINE#         262
  C:B17BH         LINE#         263
  -------         ENDPROC       LOAD_AND_SEND_INFO_RELOJ
  -------         PROC          LOAD_AND_SEND_ID_COD
  -------         DO            
  X:0002H         SYMBOL        buffer_info
  X:000DH         SYMBOL        buf
  X:0011H         SYMBOL        i
  X:0012H         SYMBOL        ID_CLIENTE
  X:0014H         SYMBOL        COD_PARK
  -------         ENDDO         
  C:6DA7H         LINE#         270
  C:6DA7H         LINE#         271
  C:6DA7H         LINE#         279
  C:6DB7H         LINE#         281
  C:6DC8H         LINE#         283
  C:6DCEH         LINE#         284
  C:6DD2H         LINE#         285
  C:6DD5H         LINE#         287
  C:6DFBH         LINE#         288
  C:6E12H         LINE#         291
  C:6E29H         LINE#         294
  C:6E4FH         LINE#         295
  C:6E66H         LINE#         297
  C:6E7DH         LINE#         298
  C:6E8BH         LINE#         299
  C:6E9CH         LINE#         300
  C:6EAFH         LINE#         301
  C:6EB5H         LINE#         302
  C:6EBEH         LINE#         303
  C:6ED2H         LINE#         304
  C:6ED5H         LINE#         305
  -------         ENDPROC       LOAD_AND_SEND_ID_COD
  -------         ENDMOD        PTO_PARALELO

  -------         MODULE        TIBBO
  C:0000H         SYMBOL        _ICE_DUMMY_
  C:B40AH         PUBLIC        _Debug_HexDec
  C:B1DCH         PUBLIC        _Debug_txt_Tibbo
  D:0080H         PUBLIC        P0
  D:0090H         PUBLIC        P1
  B:0090H.0       PUBLIC        txd2
  B:00A8H.7       PUBLIC        EA
  C:B9A7H         PUBLIC        _Debug_txt_rs232
  C:B005H         PUBLIC        _Debug_Buffer_rs232_lcd
  C:B189H         PUBLIC        _tx_aux
BL51 BANKED LINKER/LOCATER V6.22.2.0                                                  09/14/2021  15:59:56  PAGE 91


  B:0080H.0       PUBLIC        rx_ip
  C:BE8AH         PUBLIC        Debug_Dividir_texto
  C:BED6H         PUBLIC        cond_ini_tibbo
  C:BE49H         PUBLIC        time_mbit
  C:A359H         PUBLIC        rx_Data
  C:BD85H         PUBLIC        time_bit
  C:B61DH         PUBLIC        _Debug_pto_paralelo
  C:B7D0H         PUBLIC        _Debug_monitor
  C:A576H         PUBLIC        _DebugBufferMF
  C:B262H         PUBLIC        _Debug_chr_Tibbo
  B:0080H.7       PUBLIC        sel_com
  C:B2A9H         PUBLIC        _Debug_chr_rs232_lcd
  C:BD7FH         SYMBOL        L?0080
  -------         PROC          L?0079
  -------         ENDPROC       L?0079
  C:BD7FH         SYMBOL        L?0080
  -------         PROC          TIME_BIT
  -------         DO            
  D:0007H         SYMBOL        j
  -------         ENDDO         
  C:BD85H         LINE#         21
  C:BD85H         LINE#         22
  C:BD85H         LINE#         24
  C:BD91H         LINE#         25
  C:BD91H         LINE#         26
  C:BD94H         LINE#         52
  -------         ENDPROC       TIME_BIT
  -------         PROC          TIME_MBIT
  -------         DO            
  D:0007H         SYMBOL        j
  -------         ENDDO         
  C:BE49H         LINE#         55
  C:BE49H         LINE#         56
  C:BE49H         LINE#         60
  C:BE55H         LINE#         61
  C:BE55H         LINE#         71
  C:BE58H         LINE#         73
  -------         ENDPROC       TIME_MBIT
  -------         PROC          L?0083
  -------         ENDPROC       L?0083
  -------         PROC          _TX_AUX
  D:0006H         SYMBOL        caracter
  -------         DO            
  D:0004H         SYMBOL        j
  D:0005H         SYMBOL        temporal
  D:0006H         SYMBOL        bitTX
  -------         ENDDO         
  C:B189H         LINE#         78
  C:B18BH         LINE#         79
  C:B18BH         LINE#         82
  C:B18DH         LINE#         83
  C:B18FH         LINE#         84
  C:B192H         LINE#         85
  C:B193H         LINE#         86
  C:B194H         LINE#         87
  C:B196H         LINE#         88
  C:B19AH         LINE#         89
BL51 BANKED LINKER/LOCATER V6.22.2.0                                                  09/14/2021  15:59:56  PAGE 92


  C:B19CH         LINE#         90
  C:B19CH         LINE#         91
  C:B19EH         LINE#         92
  C:B1A0H         LINE#         94
  C:B1A0H         LINE#         95
  C:B1A2H         LINE#         96
  C:B1A2H         LINE#         97
  C:B1A5H         LINE#         98
  C:B1B1H         LINE#         99
  C:B1B1H         LINE#         100
  C:B1B5H         LINE#         101
  C:B1B8H         LINE#         102
  C:B1BAH         LINE#         103
  C:B1BAH         LINE#         104
  C:B1BCH         LINE#         105
  C:B1BEH         LINE#         107
  C:B1BEH         LINE#         108
  C:B1C0H         LINE#         109
  C:B1C0H         LINE#         110
  C:B1C3H         LINE#         111
  C:B1C6H         LINE#         112
  C:B1C8H         LINE#         113
  C:B1CBH         LINE#         114
  C:B1CEH         LINE#         116
  C:B1D0H         LINE#         117
  -------         ENDPROC       _TX_AUX
  -------         PROC          _DEBUG_HEXDEC
  D:0007H         SYMBOL        xfc
  -------         DO            
  X:0018H         SYMBOL        valor
  D:0006H         SYMBOL        centena
  D:0003H         SYMBOL        decena
  D:0002H         SYMBOL        unidad
  -------         ENDDO         
  C:B40AH         LINE#         120
  C:B40AH         LINE#         121
  C:B40AH         LINE#         124
  C:B411H         LINE#         126
  C:B412H         LINE#         127
  C:B413H         LINE#         128
  C:B414H         LINE#         129
  C:B41CH         LINE#         130
  C:B41CH         LINE#         131
  C:B426H         LINE#         132
  C:B426H         LINE#         133
  C:B42AH         LINE#         134
  C:B42BH         LINE#         135
  C:B42DH         LINE#         136
  C:B437H         LINE#         137
  C:B437H         LINE#         138
  C:B43BH         LINE#         139
  C:B43CH         LINE#         140
  C:B43EH         LINE#         141
  C:B440H         LINE#         142
  C:B444H         LINE#         143
  C:B448H         LINE#         144
  C:B44FH         LINE#         146
BL51 BANKED LINKER/LOCATER V6.22.2.0                                                  09/14/2021  15:59:56  PAGE 93


  C:B44FH         LINE#         147
  -------         ENDPROC       _DEBUG_HEXDEC
  -------         PROC          _DEBUG_CHR_TIBBO
  D:0003H         SYMBOL        Dat
  -------         DO            
  D:0007H         SYMBOL        temp
  -------         ENDDO         
  C:B262H         LINE#         152
  C:B264H         LINE#         153
  C:B264H         LINE#         155
  C:B26CH         LINE#         156
  C:B26CH         LINE#         157
  C:B273H         LINE#         158
  C:B286H         LINE#         160
  C:B289H         LINE#         162
  C:B28DH         LINE#         163
  C:B2A0H         LINE#         164
  C:B2A3H         LINE#         165
  C:B2A8H         LINE#         167
  C:B2A8H         LINE#         168
  -------         ENDPROC       _DEBUG_CHR_TIBBO
  -------         PROC          _DEBUG_CHR_RS232_LCD
  X:0017H         SYMBOL        Dat
  -------         DO            
  D:0007H         SYMBOL        temp
  D:0006H         SYMBOL        d
  -------         ENDDO         
  C:B2A9H         LINE#         169
  C:B2AEH         LINE#         170
  C:B2AEH         LINE#         172
  C:B2B4H         LINE#         173
  C:B2C7H         LINE#         174
  C:B2CCH         LINE#         175
  C:B2D3H         LINE#         176
  C:B2E6H         LINE#         177
  C:B2EBH         LINE#         178
  -------         ENDPROC       _DEBUG_CHR_RS232_LCD
  -------         PROC          _DEBUGBUFFERMF
  X:0027H         SYMBOL        str
  X:002AH         SYMBOL        num_char
  X:002BH         SYMBOL        io
  -------         DO            
  X:002CH         SYMBOL        j
  -------         ENDDO         
  C:A576H         LINE#         186
  C:A584H         LINE#         187
  C:A584H         LINE#         191
  C:A58CH         LINE#         192
  C:A58CH         LINE#         193
  C:A59BH         LINE#         194
  C:A59BH         LINE#         195
  C:A5A1H         LINE#         196
  C:A5A3H         LINE#         197
  C:A5B0H         LINE#         198
  C:A5B0H         LINE#         199
  C:A5B9H         LINE#         200
  C:A5B9H         LINE#         202
BL51 BANKED LINKER/LOCATER V6.22.2.0                                                  09/14/2021  15:59:56  PAGE 94


  C:A5CBH         LINE#         203
  C:A5CBH         LINE#         204
  C:A5DDH         LINE#         205
  C:A5E7H         LINE#         206
  C:A5EFH         LINE#         207
  C:A5F4H         LINE#         208
  C:A5F9H         LINE#         209
  C:A5F9H         LINE#         211
  -------         ENDPROC       _DEBUGBUFFERMF
  -------         PROC          _DEBUG_BUFFER_RS232_LCD
  X:0011H         SYMBOL        str
  X:0014H         SYMBOL        num_char
  -------         DO            
  X:0015H         SYMBOL        j
  X:0016H         SYMBOL        d
  -------         ENDDO         
  C:B005H         LINE#         212
  C:B013H         LINE#         213
  C:B013H         LINE#         215
  C:B015H         LINE#         216
  C:B023H         LINE#         217
  C:B023H         LINE#         218
  C:B035H         LINE#         219
  C:B03FH         LINE#         220
  C:B047H         LINE#         221
  C:B051H         LINE#         224
  C:B053H         LINE#         225
  -------         ENDPROC       _DEBUG_BUFFER_RS232_LCD
  C:B1D6H         SYMBOL        L?0082
  -------         PROC          L?0081
  -------         ENDPROC       L?0081
  C:B1D6H         SYMBOL        L?0082
  -------         PROC          _DEBUG_TXT_TIBBO
  X:0064H         SYMBOL        str
  -------         DO            
  X:0067H         SYMBOL        i
  -------         ENDDO         
  C:B1DCH         LINE#         229
  C:B1E7H         LINE#         230
  C:B1E7H         LINE#         232
  C:B1EAH         LINE#         234
  C:B1F2H         LINE#         235
  C:B1F2H         LINE#         236
  C:B20EH         LINE#         237
  C:B20EH         LINE#         238
  C:B211H         LINE#         239
  C:B219H         LINE#         241
  C:B219H         LINE#         242
  -------         ENDPROC       _DEBUG_TXT_TIBBO
  -------         PROC          _DEBUG_TXT_RS232
  X:0004H         SYMBOL        str
  -------         DO            
  X:0007H         SYMBOL        i
  X:0008H         SYMBOL        d
  -------         ENDDO         
  C:B9A7H         LINE#         243
  C:B9B2H         LINE#         244
BL51 BANKED LINKER/LOCATER V6.22.2.0                                                  09/14/2021  15:59:56  PAGE 95


  C:B9B2H         LINE#         246
  C:B9B5H         LINE#         249
  C:B9CEH         LINE#         250
  C:B9CEH         LINE#         251
  C:B9D6H         LINE#         252
  C:B9DEH         LINE#         255
  -------         ENDPROC       _DEBUG_TXT_RS232
  -------         PROC          DEBUG_DIVIDIR_TEXTO
  C:BE8AH         LINE#         256
  C:BE8AH         LINE#         257
  C:BE8AH         LINE#         258
  -------         ENDPROC       DEBUG_DIVIDIR_TEXTO
  -------         PROC          RX_DATA
  -------         DO            
  D:0006H         SYMBOL        temporal
  -------         ENDDO         
  C:A359H         LINE#         264
  C:A359H         LINE#         265
  C:A359H         LINE#         268
  C:A35BH         LINE#         269
  C:A35EH         LINE#         271
  C:A361H         LINE#         273
  C:A36DH         LINE#         274
  C:A36DH         LINE#         276
  C:A370H         LINE#         278
  C:A37CH         LINE#         279
  C:A37CH         LINE#         281
  C:A37FH         LINE#         283
  C:A38BH         LINE#         284
  C:A38BH         LINE#         286
  C:A38EH         LINE#         288
  C:A39AH         LINE#         289
  C:A39AH         LINE#         291
  C:A39DH         LINE#         293
  C:A3A9H         LINE#         294
  C:A3A9H         LINE#         296
  C:A3ACH         LINE#         298
  C:A3B8H         LINE#         299
  C:A3B8H         LINE#         301
  C:A3BBH         LINE#         303
  C:A3C7H         LINE#         304
  C:A3C7H         LINE#         306
  C:A3CAH         LINE#         307
  C:A3D8H         LINE#         309
  C:A3DBH         LINE#         310
  C:A3DEH         LINE#         311
  C:A3DEH         LINE#         312
  C:A3DEH         LINE#         315
  C:A3E0H         LINE#         317
  -------         ENDPROC       RX_DATA
  -------         PROC          COND_INI_TIBBO
  C:BED6H         LINE#         335
  C:BED6H         LINE#         336
  C:BED6H         LINE#         338
  C:BED8H         LINE#         339
  C:BEDAH         LINE#         340
  -------         ENDPROC       COND_INI_TIBBO
BL51 BANKED LINKER/LOCATER V6.22.2.0                                                  09/14/2021  15:59:56  PAGE 96


  -------         PROC          _DEBUG_PTO_PARALELO
  X:0001H         SYMBOL        buffer
  X:0004H         SYMBOL        Length_trama
  C:B61DH         LINE#         341
  C:B62BH         LINE#         342
  C:B62BH         LINE#         344
  C:B634H         LINE#         345
  C:B64BH         LINE#         346
  C:B654H         LINE#         347
  C:B657H         LINE#         348
  C:B65AH         LINE#         349
  -------         ENDPROC       _DEBUG_PTO_PARALELO
  -------         PROC          _DEBUG_MONITOR
  X:0011H         SYMBOL        buffer
  X:0014H         SYMBOL        Length_trama
  C:B7D0H         LINE#         352
  C:B7DEH         LINE#         353
  C:B7DEH         LINE#         354
  C:B7E1H         LINE#         355
  C:B7EAH         LINE#         356
  C:B7F8H         LINE#         357
  C:B7FBH         LINE#         358
  C:B804H         LINE#         359
  C:B807H         LINE#         360
  C:B80AH         LINE#         361
  -------         ENDPROC       _DEBUG_MONITOR
  -------         ENDMOD        TIBBO

  -------         MODULE        UART
  C:0000H         SYMBOL        _ICE_DUMMY_
  C:BC15H         PUBLIC        com_getchar
  C:BE05H         PUBLIC        com_rbuflen
  C:BE17H         PUBLIC        com_tbuflen
  B:00A8H.4       PUBLIC        ES
  B:0098H.0       PUBLIC        RI
  C:B8C1H         PUBLIC        _com_putchar
  B:0098H.1       PUBLIC        TI
  B:0021H.4       PUBLIC        aSk
  B:00B8H.4       PUBLIC        PS
  D:000DH         SYMBOL        r_in
  D:000EH         SYMBOL        r_out
  D:000FH         SYMBOL        t_in
  D:0010H         SYMBOL        t_out
  D:0099H         PUBLIC        SBUF
  D:0087H         PUBLIC        PCON
  D:0089H         PUBLIC        TMOD
  B:0021H.5       SYMBOL        ti_restart
  B:00A8H.3       PUBLIC        ET1
  D:008DH         PUBLIC        TH1
  B:0098H.7       PUBLIC        SM0
  B:0098H.6       PUBLIC        SM1
  D:008BH         PUBLIC        TL1
  B:0098H.5       PUBLIC        SM2
  B:0088H.6       PUBLIC        TR1
  C:BB72H         PUBLIC        com_initialize
  X:0217H         PUBLIC        cnt__ask_off
  B:0098H.4       PUBLIC        REN
BL51 BANKED LINKER/LOCATER V6.22.2.0                                                  09/14/2021  15:59:56  PAGE 97


  C:B6DAH         PUBLIC        com_baudrate
  C:5B40H         SYMBOL        com_isr
  -------         PROC          COM_ISR
  -------         DO            
  X:0215H         SYMBOL        cDatoRx
  D:0006H         SYMBOL        k
  D:0007H         SYMBOL        bcc
  X:0216H         SYMBOL        num_datos
  -------         ENDDO         
  C:5B40H         LINE#         102
  C:5B55H         LINE#         110
  C:5B5BH         LINE#         111
  C:5B5BH         LINE#         113
  C:5B5DH         LINE#         114
  C:5B63H         LINE#         115
  C:5B73H         LINE#         116
  C:5B73H         LINE#         117
  C:5B7EH         LINE#         118
  C:5B80H         LINE#         120
  C:5B80H         LINE#         121
  C:5B90H         LINE#         122
  C:5B90H         LINE#         123
  C:5B95H         LINE#         124
  C:5B95H         LINE#         125
  C:5BB2H         LINE#         126
  C:5BB2H         LINE#         130
  C:5BB2H         LINE#         133
  C:5BC1H         LINE#         134
  C:5BC1H         LINE#         135
  C:5BC3H         LINE#         136
  C:5BCBH         LINE#         137
  C:5BD0H         LINE#         139
  C:5BD0H         LINE#         141
  C:5BD3H         LINE#         145
  C:5BD3H         LINE#         146
  C:5BD3H         LINE#         147
  C:5BEBH         LINE#         148
  C:5BFAH         LINE#         149
  C:5BFAH         LINE#         150
  C:5BFAH         LINE#         151
  C:5BFCH         LINE#         153
  C:5BFCH         LINE#         154
  C:5BFEH         LINE#         155
  C:5BFEH         LINE#         156
  C:5BFEH         LINE#         157
  C:5C01H         LINE#         161
  C:5C01H         LINE#         163
  C:5C0AH         LINE#         164
  C:5C0AH         LINE#         166
  C:5C10H         LINE#         167
  C:5C23H         LINE#         168
  C:5C23H         LINE#         169
  C:5C26H         LINE#         171
  C:5C26H         LINE#         172
  C:5C3BH         LINE#         173
  C:5C41H         LINE#         174
  C:5C41H         LINE#         176
BL51 BANKED LINKER/LOCATER V6.22.2.0                                                  09/14/2021  15:59:56  PAGE 98


  C:5C44H         LINE#         180
  C:5C44H         LINE#         182
  C:5C5CH         LINE#         183
  C:5C62H         LINE#         184
  C:5C65H         LINE#         185
  C:5C65H         LINE#         186
  C:5C7DH         LINE#         187
  C:5C7DH         LINE#         188
  C:5C7EH         LINE#         189
  C:5C8BH         LINE#         190
  C:5C8BH         LINE#         191
  C:5C98H         LINE#         192
  C:5C9BH         LINE#         193
  C:5CA9H         LINE#         194
  C:5CA9H         LINE#         195
  C:5CABH         LINE#         196
  C:5CB0H         LINE#         197
  C:5CB2H         LINE#         198
  C:5CB6H         LINE#         200
  C:5CB8H         LINE#         202
  C:5CB8H         LINE#         203
  C:5CB8H         LINE#         204
  C:5CB8H         LINE#         205
  C:5CBAH         LINE#         207
  C:5CBAH         LINE#         208
  C:5CBAH         LINE#         209
  C:5CBAH         LINE#         211
  C:5CBCH         LINE#         213
  C:5CBCH         LINE#         214
  C:5CC2H         LINE#         215
  C:5CC2H         LINE#         217
  C:5CC4H         LINE#         218
  C:5CC4H         LINE#         219
  C:5CDCH         LINE#         220
  C:5CFAH         LINE#         221
  C:5CFAH         LINE#         222
  C:5CFCH         LINE#         223
  C:5CFEH         LINE#         224
  C:5CFEH         LINE#         225
  C:5CFEH         LINE#         227
  C:5D00H         LINE#         231
  C:5D00H         LINE#         232
  C:5D05H         LINE#         233
  C:5D05H         LINE#         234
  C:5D05H         LINE#         235
  C:5D05H         LINE#         240
  C:5D08H         LINE#         241
  C:5D08H         LINE#         242
  C:5D0AH         LINE#         244
  C:5D10H         LINE#         245
  C:5D10H         LINE#         246
  C:5D1AH         LINE#         248
  C:5D1CH         LINE#         249
  C:5D1EH         LINE#         250
  C:5D20H         LINE#         252
  C:5D20H         LINE#         253
  C:5D22H         LINE#         254
BL51 BANKED LINKER/LOCATER V6.22.2.0                                                  09/14/2021  15:59:56  PAGE 99


  C:5D22H         LINE#         255
  C:5D22H         LINE#         257
  -------         ENDPROC       COM_ISR
  -------         PROC          COM_INITIALIZE
  C:BB72H         LINE#         273
  C:BB79H         LINE#         274
  C:BB79H         LINE#         278
  C:BB7CH         LINE#         283
  C:BB7FH         LINE#         284
  C:BB81H         LINE#         286
  C:BB83H         LINE#         287
  C:BB85H         LINE#         292
  C:BB89H         LINE#         293
  C:BB8BH         LINE#         294
  C:BB8DH         LINE#         296
  C:BB8FH         LINE#         297
  C:BB91H         LINE#         298
  C:BB93H         LINE#         300
  C:BB95H         LINE#         301
  C:BB97H         LINE#         302
  -------         ENDPROC       COM_INITIALIZE
  -------         PROC          COM_BAUDRATE
  -------         DO            
  D:0007H         SYMBOL        dataee
  -------         ENDDO         
  C:B6DAH         LINE#         308
  C:B6E1H         LINE#         310
  C:B6E1H         LINE#         312
  C:B6EAH         LINE#         317
  C:B6ECH         LINE#         318
  C:B6EFH         LINE#         319
  C:B6F1H         LINE#         324
  C:B6F3H         LINE#         325
  C:B6F5H         LINE#         327
  C:B6F8H         LINE#         329
  C:B6FBH         LINE#         330
  C:B6FEH         LINE#         332
  C:B701H         LINE#         333
  C:B701H         LINE#         334
  C:B704H         LINE#         335
  C:B707H         LINE#         336
  C:B709H         LINE#         337
  C:B70BH         LINE#         339
  C:B70BH         LINE#         341
  C:B70EH         LINE#         342
  C:B711H         LINE#         343
  C:B713H         LINE#         344
  C:B713H         LINE#         345
  -------         ENDPROC       COM_BAUDRATE
  -------         PROC          _COM_PUTCHAR
  X:00AAH         SYMBOL        c
  C:B8C1H         LINE#         351
  C:B8CDH         LINE#         352
  C:B8CDH         LINE#         356
  C:B8DAH         LINE#         357
  C:B8DEH         LINE#         363
  C:B8ECH         LINE#         365
BL51 BANKED LINKER/LOCATER V6.22.2.0                                                  09/14/2021  15:59:56  PAGE 100


  C:B8EEH         LINE#         367
  C:B8F1H         LINE#         368
  C:B8F1H         LINE#         369
  C:B8F3H         LINE#         370
  C:B8F5H         LINE#         371
  C:B8F5H         LINE#         373
  C:B8F7H         LINE#         374
  -------         ENDPROC       _COM_PUTCHAR
  -------         PROC          COM_GETCHAR
  C:BC15H         LINE#         380
  C:BC1CH         LINE#         381
  C:BC1CH         LINE#         382
  C:BC22H         LINE#         383
  C:BC28H         LINE#         385
  C:BC36H         LINE#         386
  -------         ENDPROC       COM_GETCHAR
  -------         PROC          COM_RBUFLEN
  C:BE05H         LINE#         392
  C:BE0CH         LINE#         393
  C:BE0CH         LINE#         394
  C:BE12H         LINE#         395
  -------         ENDPROC       COM_RBUFLEN
  -------         PROC          COM_TBUFLEN
  C:BE17H         LINE#         401
  C:BE1EH         LINE#         402
  C:BE1EH         LINE#         403
  C:BE24H         LINE#         404
  -------         ENDPROC       COM_TBUFLEN
  -------         ENDMOD        UART

  -------         MODULE        LINTECH
  C:0000H         SYMBOL        _ICE_DUMMY_
  C:9B56H         PUBLIC        _Inicializa
  C:8F8DH         PUBLIC        _RD_MF
  C:9781H         PUBLIC        Dwload_EEprom
  C:9EEAH         PUBLIC        _Card_Insercion
  C:83D7H         PUBLIC        _Mov_Card
  C:7916H         PUBLIC        _WR_MF
  C:8B9BH         PUBLIC        _Dwload_EEprom_prog
  C:A12BH         PUBLIC        LoadVerify_EEprom
  C:A3E1H         PUBLIC        Unique_Identifier_UID
  C:AA09H         PUBLIC        Power_off
  C:A4F0H         PUBLIC        _Check_Status
  C:96D7H         PUBLIC        Clave_Seguridad_S2
  C:A989H         PUBLIC        Aut_Card_check_Status
  -------         PROC          _INICIALIZA
  X:0002H         SYMBOL        TipoMovimiento
  -------         DO            
  D:0003H         SYMBOL        j
  X:0003H         SYMBOL        bcc
  X:0004H         SYMBOL        g_scArrTxComSoft
  -------         ENDDO         
  C:9B56H         LINE#         69
  C:9B5BH         LINE#         70
  C:9B5BH         LINE#         73
  C:9B5EH         LINE#         74
  C:9B74H         LINE#         75
BL51 BANKED LINKER/LOCATER V6.22.2.0                                                  09/14/2021  15:59:56  PAGE 101


  C:9B74H         LINE#         77
  C:9B7DH         LINE#         79
  C:9B83H         LINE#         80
  C:9B86H         LINE#         81
  C:9B88H         LINE#         82
  C:9B8CH         LINE#         83
  C:9B90H         LINE#         84
  C:9B94H         LINE#         85
  C:9B9CH         LINE#         86
  C:9BA0H         LINE#         87
  C:9BACH         LINE#         88
  C:9BACH         LINE#         89
  C:9BC0H         LINE#         90
  C:9BC3H         LINE#         91
  C:9BCBH         LINE#         92
  C:9BCDH         LINE#         93
  C:9BD2H         LINE#         94
  C:9BE1H         LINE#         95
  C:9BECH         LINE#         96
  C:9BF2H         LINE#         97
  C:9BF2H         LINE#         98
  -------         ENDPROC       _INICIALIZA
  -------         PROC          _CHECK_STATUS
  X:0002H         SYMBOL        Detalle
  -------         DO            
  D:0006H         SYMBOL        j
  D:0007H         SYMBOL        bcc
  X:0003H         SYMBOL        g_scArrTxComSoft
  -------         ENDDO         
  C:A4F0H         LINE#         110
  C:A4F5H         LINE#         111
  C:A4F5H         LINE#         115
  C:A4FBH         LINE#         116
  C:A4FBH         LINE#         117
  C:A4FFH         LINE#         118
  C:A501H         LINE#         120
  C:A501H         LINE#         121
  C:A508H         LINE#         122
  C:A508H         LINE#         123
  C:A50AH         LINE#         125
  C:A510H         LINE#         126
  C:A513H         LINE#         127
  C:A515H         LINE#         128
  C:A519H         LINE#         129
  C:A51DH         LINE#         130
  C:A521H         LINE#         131
  C:A529H         LINE#         132
  C:A52DH         LINE#         133
  C:A539H         LINE#         134
  C:A539H         LINE#         135
  C:A546H         LINE#         136
  C:A549H         LINE#         137
  C:A54EH         LINE#         138
  C:A550H         LINE#         139
  C:A555H         LINE#         140
  C:A564H         LINE#         141
  C:A56FH         LINE#         142
BL51 BANKED LINKER/LOCATER V6.22.2.0                                                  09/14/2021  15:59:56  PAGE 102


  C:A575H         LINE#         143
  -------         ENDPROC       _CHECK_STATUS
  -------         PROC          _CARD_INSERCION
  D:0007H         SYMBOL        Tipo
  -------         DO            
  D:0006H         SYMBOL        j
  D:0007H         SYMBOL        bcc
  X:0002H         SYMBOL        g_scArrTxComSoft
  -------         ENDDO         
  C:9EEAH         LINE#         153
  C:9EEAH         LINE#         154
  C:9EEAH         LINE#         157
  C:9EF7H         LINE#         158
  C:9EF7H         LINE#         159
  C:9EFEH         LINE#         160
  C:9F04H         LINE#         161
  C:9F06H         LINE#         163
  C:9F06H         LINE#         165
  C:9F0DH         LINE#         166
  C:9F13H         LINE#         168
  C:9F13H         LINE#         170
  C:9F15H         LINE#         172
  C:9F1BH         LINE#         173
  C:9F1EH         LINE#         174
  C:9F20H         LINE#         175
  C:9F24H         LINE#         176
  C:9F28H         LINE#         177
  C:9F2CH         LINE#         179
  C:9F32H         LINE#         180
  C:9F3EH         LINE#         181
  C:9F3EH         LINE#         182
  C:9F4BH         LINE#         183
  C:9F4EH         LINE#         185
  C:9F53H         LINE#         187
  C:9F55H         LINE#         188
  C:9F5AH         LINE#         189
  C:9F69H         LINE#         190
  C:9F74H         LINE#         191
  C:9F7AH         LINE#         192
  -------         ENDPROC       _CARD_INSERCION
  -------         PROC          _MOV_CARD
  X:0002H         SYMBOL        Posicion
  -------         DO            
  D:0003H         SYMBOL        j
  X:0003H         SYMBOL        bcc
  X:0004H         SYMBOL        g_scArrTxComSoft
  -------         ENDDO         
  C:83D7H         LINE#         203
  C:83DCH         LINE#         204
  C:83DCH         LINE#         207
  C:83DFH         LINE#         209
  C:83FFH         LINE#         210
  C:83FFH         LINE#         211
  C:8406H         LINE#         212
  C:8406H         LINE#         213
  C:840CH         LINE#         214
  C:840EH         LINE#         215
BL51 BANKED LINKER/LOCATER V6.22.2.0                                                  09/14/2021  15:59:56  PAGE 103


  C:8415H         LINE#         216
  C:8415H         LINE#         217
  C:841BH         LINE#         218
  C:841DH         LINE#         219
  C:8424H         LINE#         220
  C:8424H         LINE#         221
  C:842AH         LINE#         222
  C:842CH         LINE#         223
  C:8433H         LINE#         224
  C:8433H         LINE#         225
  C:8439H         LINE#         226
  C:843BH         LINE#         227
  C:8442H         LINE#         228
  C:8442H         LINE#         229
  C:844BH         LINE#         230
  C:844BH         LINE#         232
  C:8451H         LINE#         233
  C:8454H         LINE#         234
  C:8456H         LINE#         235
  C:845AH         LINE#         236
  C:845EH         LINE#         237
  C:8462H         LINE#         238
  C:846AH         LINE#         239
  C:846EH         LINE#         240
  C:847AH         LINE#         241
  C:847AH         LINE#         242
  C:848EH         LINE#         243
  C:8491H         LINE#         244
  C:8499H         LINE#         245
  C:849BH         LINE#         246
  C:84A0H         LINE#         247
  C:84AFH         LINE#         248
  C:84BAH         LINE#         249
  C:84C0H         LINE#         250
  C:84C0H         LINE#         252
  -------         ENDPROC       _MOV_CARD
  -------         PROC          AUT_CARD_CHECK_STATUS
  -------         DO            
  D:0003H         SYMBOL        j
  X:0002H         SYMBOL        bcc
  X:0003H         SYMBOL        g_scArrTxComSoft
  -------         ENDDO         
  C:A989H         LINE#         258
  C:A989H         LINE#         259
  C:A989H         LINE#         262
  C:A98EH         LINE#         264
  C:A997H         LINE#         266
  C:A99DH         LINE#         267
  C:A9A0H         LINE#         268
  C:A9A2H         LINE#         269
  C:A9A6H         LINE#         270
  C:A9AAH         LINE#         271
  C:A9AEH         LINE#         272
  C:A9B2H         LINE#         273
  C:A9B6H         LINE#         274
  C:A9C2H         LINE#         275
  C:A9C2H         LINE#         276
BL51 BANKED LINKER/LOCATER V6.22.2.0                                                  09/14/2021  15:59:56  PAGE 104


  C:A9D6H         LINE#         277
  C:A9D9H         LINE#         278
  C:A9E1H         LINE#         279
  C:A9E3H         LINE#         280
  C:A9E8H         LINE#         281
  C:A9F7H         LINE#         282
  C:AA02H         LINE#         283
  C:AA08H         LINE#         284
  -------         ENDPROC       AUT_CARD_CHECK_STATUS
  -------         PROC          CLAVE_SEGURIDAD_S2
  -------         DO            
  D:0003H         SYMBOL        j
  X:0002H         SYMBOL        bcc
  X:0003H         SYMBOL        g_scArrTxComSoft
  -------         ENDDO         
  C:96D7H         LINE#         287
  C:96D7H         LINE#         288
  C:96D7H         LINE#         291
  C:96DCH         LINE#         292
  C:96E5H         LINE#         295
  C:96EBH         LINE#         296
  C:96EEH         LINE#         297
  C:96F0H         LINE#         298
  C:96F4H         LINE#         299
  C:96F8H         LINE#         300
  C:96FCH         LINE#         301
  C:9700H         LINE#         302
  C:9703H         LINE#         303
  C:9707H         LINE#         304
  C:970AH         LINE#         305
  C:970EH         LINE#         307
  C:9712H         LINE#         309
  C:9716H         LINE#         310
  C:971AH         LINE#         311
  C:971EH         LINE#         312
  C:9722H         LINE#         313
  C:9726H         LINE#         314
  C:972AH         LINE#         317
  C:972EH         LINE#         319
  C:973AH         LINE#         320
  C:973AH         LINE#         321
  C:974EH         LINE#         322
  C:9751H         LINE#         323
  C:9759H         LINE#         324
  C:975BH         LINE#         325
  C:9760H         LINE#         326
  C:976FH         LINE#         327
  C:977AH         LINE#         328
  C:9780H         LINE#         331
  -------         ENDPROC       CLAVE_SEGURIDAD_S2
  -------         PROC          DWLOAD_EEPROM
  -------         DO            
  D:0003H         SYMBOL        j
  X:0002H         SYMBOL        bcc
  X:0003H         SYMBOL        g_scArrTxComSoft
  -------         ENDDO         
  C:9781H         LINE#         336
BL51 BANKED LINKER/LOCATER V6.22.2.0                                                  09/14/2021  15:59:56  PAGE 105


  C:9781H         LINE#         337
  C:9781H         LINE#         340
  C:9786H         LINE#         341
  C:978FH         LINE#         343
  C:9795H         LINE#         344
  C:9798H         LINE#         345
  C:979AH         LINE#         346
  C:979EH         LINE#         347
  C:97A2H         LINE#         348
  C:97A6H         LINE#         349
  C:97AAH         LINE#         350
  C:97ADH         LINE#         351
  C:97B1H         LINE#         352
  C:97B4H         LINE#         353
  C:97B7H         LINE#         354
  C:97BBH         LINE#         355
  C:97BFH         LINE#         356
  C:97C3H         LINE#         357
  C:97C7H         LINE#         358
  C:97CBH         LINE#         359
  C:97CFH         LINE#         360
  C:97D3H         LINE#         361
  C:97D7H         LINE#         363
  C:97E3H         LINE#         364
  C:97E3H         LINE#         365
  C:97F7H         LINE#         366
  C:97FAH         LINE#         367
  C:9802H         LINE#         368
  C:9804H         LINE#         369
  C:9809H         LINE#         370
  C:9818H         LINE#         371
  C:9823H         LINE#         372
  C:9829H         LINE#         373
  -------         ENDPROC       DWLOAD_EEPROM
  -------         PROC          _DWLOAD_EEPROM_PROG
  X:0026H         SYMBOL        password
  -------         DO            
  D:0003H         SYMBOL        j
  X:0029H         SYMBOL        bcc
  X:002AH         SYMBOL        g_scArrTxComSoft
  -------         ENDDO         
  C:8B9BH         LINE#         375
  C:8BA6H         LINE#         376
  C:8BA6H         LINE#         379
  C:8BA9H         LINE#         380
  C:8BB2H         LINE#         382
  C:8BB8H         LINE#         383
  C:8BBBH         LINE#         384
  C:8BBDH         LINE#         385
  C:8BC1H         LINE#         386
  C:8BC5H         LINE#         387
  C:8BC9H         LINE#         388
  C:8BCDH         LINE#         389
  C:8BD0H         LINE#         390
  C:8BD4H         LINE#         391
  C:8BD7H         LINE#         392
  C:8BDAH         LINE#         393
BL51 BANKED LINKER/LOCATER V6.22.2.0                                                  09/14/2021  15:59:56  PAGE 106


  C:8BDEH         LINE#         394
  C:8BF0H         LINE#         395
  C:8BFAH         LINE#         396
  C:8C04H         LINE#         397
  C:8C0EH         LINE#         398
  C:8C18H         LINE#         399
  C:8C22H         LINE#         400
  C:8C26H         LINE#         402
  C:8C32H         LINE#         403
  C:8C32H         LINE#         404
  C:8C46H         LINE#         405
  C:8C49H         LINE#         406
  C:8C51H         LINE#         407
  C:8C53H         LINE#         408
  C:8C58H         LINE#         410
  C:8C63H         LINE#         411
  C:8C69H         LINE#         412
  -------         ENDPROC       _DWLOAD_EEPROM_PROG
  -------         PROC          LOADVERIFY_EEPROM
  -------         DO            
  D:0003H         SYMBOL        j
  X:0002H         SYMBOL        bcc
  X:0003H         SYMBOL        g_scArrTxComSoft
  -------         ENDDO         
  C:A12BH         LINE#         417
  C:A12BH         LINE#         418
  C:A12BH         LINE#         421
  C:A130H         LINE#         422
  C:A139H         LINE#         425
  C:A13FH         LINE#         426
  C:A142H         LINE#         427
  C:A144H         LINE#         428
  C:A148H         LINE#         429
  C:A14CH         LINE#         430
  C:A150H         LINE#         431
  C:A154H         LINE#         432
  C:A157H         LINE#         433
  C:A15BH         LINE#         434
  C:A15EH         LINE#         435
  C:A161H         LINE#         436
  C:A165H         LINE#         441
  C:A171H         LINE#         442
  C:A171H         LINE#         443
  C:A185H         LINE#         444
  C:A188H         LINE#         445
  C:A190H         LINE#         446
  C:A192H         LINE#         447
  C:A197H         LINE#         448
  C:A1A6H         LINE#         449
  C:A1B1H         LINE#         450
  C:A1B7H         LINE#         452
  -------         ENDPROC       LOADVERIFY_EEPROM
  -------         PROC          _RD_MF
  X:0002H         SYMBOL        Sector
  X:0003H         SYMBOL        Bloque
  -------         DO            
  D:0003H         SYMBOL        j
BL51 BANKED LINKER/LOCATER V6.22.2.0                                                  09/14/2021  15:59:56  PAGE 107


  X:0004H         SYMBOL        bcc
  X:0005H         SYMBOL        g_scArrTxComSoft
  -------         ENDDO         
  C:8F8DH         LINE#         458
  C:8F95H         LINE#         459
  C:8F95H         LINE#         463
  C:8F98H         LINE#         465
  C:8FA1H         LINE#         466
  C:8FA9H         LINE#         468
  C:8FB2H         LINE#         469
  C:8FBAH         LINE#         470
  C:8FC3H         LINE#         473
  C:8FC9H         LINE#         474
  C:8FCCH         LINE#         475
  C:8FCEH         LINE#         476
  C:8FD2H         LINE#         477
  C:8FD6H         LINE#         478
  C:8FDAH         LINE#         479
  C:8FDEH         LINE#         480
  C:8FE1H         LINE#         481
  C:8FE5H         LINE#         482
  C:8FEDH         LINE#         483
  C:8FF5H         LINE#         484
  C:8FF9H         LINE#         485
  C:8FFDH         LINE#         487
  C:9009H         LINE#         488
  C:9009H         LINE#         489
  C:901DH         LINE#         490
  C:9020H         LINE#         491
  C:9028H         LINE#         494
  C:902AH         LINE#         495
  C:902FH         LINE#         496
  C:903EH         LINE#         497
  C:9049H         LINE#         498
  C:904FH         LINE#         500
  -------         ENDPROC       _RD_MF
  -------         PROC          _WR_MF
  X:0002H         SYMBOL        Sector
  X:0003H         SYMBOL        Bloque
  X:0004H         SYMBOL        buffer
  -------         DO            
  D:0005H         SYMBOL        j
  X:0007H         SYMBOL        bcc
  X:0008H         SYMBOL        g_scArrTxComSoft
  -------         ENDDO         
  C:7916H         LINE#         507
  C:7927H         LINE#         509
  C:7927H         LINE#         512
  C:792AH         LINE#         514
  C:7933H         LINE#         515
  C:793BH         LINE#         517
  C:7944H         LINE#         518
  C:794CH         LINE#         519
  C:7955H         LINE#         521
  C:795BH         LINE#         522
  C:795EH         LINE#         523
  C:7960H         LINE#         524
BL51 BANKED LINKER/LOCATER V6.22.2.0                                                  09/14/2021  15:59:56  PAGE 108


  C:7964H         LINE#         526
  C:7968H         LINE#         527
  C:796CH         LINE#         528
  C:7970H         LINE#         529
  C:7973H         LINE#         530
  C:7977H         LINE#         531
  C:797FH         LINE#         532
  C:7987H         LINE#         533
  C:798BH         LINE#         535
  C:7997H         LINE#         536
  C:7997H         LINE#         537
  C:79B7H         LINE#         538
  C:79BAH         LINE#         540
  C:79C0H         LINE#         542
  C:79CCH         LINE#         543
  C:79CCH         LINE#         544
  C:79E3H         LINE#         545
  C:79E6H         LINE#         546
  C:79EEH         LINE#         549
  C:79F0H         LINE#         550
  C:79F5H         LINE#         551
  C:7A04H         LINE#         552
  C:7A0FH         LINE#         553
  C:7A15H         LINE#         555
  -------         ENDPROC       _WR_MF
  -------         PROC          UNIQUE_IDENTIFIER_UID
  -------         DO            
  D:0003H         SYMBOL        j
  X:0002H         SYMBOL        bcc
  X:0003H         SYMBOL        g_scArrTxComSoft
  -------         ENDDO         
  C:A3E1H         LINE#         560
  C:A3E1H         LINE#         561
  C:A3E1H         LINE#         564
  C:A3E6H         LINE#         566
  C:A3EFH         LINE#         568
  C:A3F5H         LINE#         569
  C:A3F8H         LINE#         570
  C:A3FAH         LINE#         571
  C:A3FEH         LINE#         572
  C:A402H         LINE#         573
  C:A406H         LINE#         574
  C:A40AH         LINE#         575
  C:A40EH         LINE#         576
  C:A412H         LINE#         577
  C:A416H         LINE#         578
  C:A422H         LINE#         579
  C:A422H         LINE#         580
  C:A436H         LINE#         581
  C:A439H         LINE#         582
  C:A441H         LINE#         583
  C:A443H         LINE#         584
  C:A448H         LINE#         585
  C:A457H         LINE#         586
  C:A462H         LINE#         587
  C:A468H         LINE#         588
  -------         ENDPROC       UNIQUE_IDENTIFIER_UID
BL51 BANKED LINKER/LOCATER V6.22.2.0                                                  09/14/2021  15:59:56  PAGE 109


  -------         PROC          POWER_OFF
  -------         DO            
  D:0003H         SYMBOL        j
  X:0002H         SYMBOL        bcc
  X:0003H         SYMBOL        g_scArrTxComSoft
  -------         ENDDO         
  C:AA09H         LINE#         589
  C:AA09H         LINE#         590
  C:AA09H         LINE#         593
  C:AA0EH         LINE#         595
  C:AA17H         LINE#         597
  C:AA1DH         LINE#         598
  C:AA20H         LINE#         599
  C:AA22H         LINE#         600
  C:AA26H         LINE#         601
  C:AA2AH         LINE#         602
  C:AA2EH         LINE#         603
  C:AA32H         LINE#         604
  C:AA36H         LINE#         605
  C:AA42H         LINE#         606
  C:AA42H         LINE#         607
  C:AA56H         LINE#         608
  C:AA59H         LINE#         609
  C:AA61H         LINE#         610
  C:AA63H         LINE#         611
  C:AA68H         LINE#         612
  C:AA77H         LINE#         613
  C:AA82H         LINE#         614
  C:AA88H         LINE#         617
  -------         ENDPROC       POWER_OFF
  -------         ENDMOD        LINTECH

  -------         MODULE        VERIFICADOR
  C:0000H         SYMBOL        _ICE_DUMMY_
  D:0080H         PUBLIC        P0
  C:9AB8H         PUBLIC        Ingreso_Vehiculo
  D:0090H         PUBLIC        P1
  C:BB1CH         PUBLIC        _Armar_Trama_Tarjeta_Sector1_Bloque0
  D:00B0H         PUBLIC        P3
  C:8914H         PUBLIC        _Valida_Tipo_Tarjeta
  C:B829H         PUBLIC        _Load_Secuencia_Expedidor
  C:5D35H         PUBLIC        _Armar_Trama_Tarjeta_Sector1_Bloque2
  C:509FH         PUBLIC        _Armar_Trama_Pto_Paralelo_Expedidor
  B:0080H.2       PUBLIC        led_err_imp
  C:BB9CH         PUBLIC        Analiza_Presencia_rotacion
  C:A09BH         PUBLIC        _Disparo_Lock_Entrada_Vehiculo
  C:A5FAH         PUBLIC        _Armar_Trama_Placa
  C:8683H         PUBLIC        _rta_cmd_transporte
  C:4DFCH         PUBLIC        _Armar_Trama_Monitor
  C:6C69H         PUBLIC        Secuencia_inicio_expedidor
  C:89EEH         PUBLIC        _Analiza_Uid_Card
  B:0080H.0       PUBLIC        rx_ip
  B:0080H.3       PUBLIC        Atascado_GP0_PIN_3
  B:0090H.7       PUBLIC        lock
  C:9DC1H         PUBLIC        _Responde_Lectura_Tarjeta_Sector1_Bloque0
  C:9112H         PUBLIC        error_rx_pto
  C:5F20H         PUBLIC        _Responde_Lectura_Tarjeta_Sector1_Bloque1
BL51 BANKED LINKER/LOCATER V6.22.2.0                                                  09/14/2021  15:59:56  PAGE 110


  C:7148H         PUBLIC        _Responde_Lectura_Tarjeta_Sector1_Bloque2
  C:B337H         PUBLIC        Respuesta_Placa_Cancel
  B:0090H.1       PUBLIC        DataIn
  C:98D0H         PUBLIC        _Send_Pto_Paralelo
  C:B718H         PUBLIC        Trama_Validacion_P_N
  B:0022H.0       PUBLIC        MenSual
  C:701AH         PUBLIC        _Armar_Trama_Pto_Paralelo_Expedidor_Mensual
  C:674CH         PUBLIC        _Responde_ReeLectura_Tarjeta_Sector1_Bloque2
  C:38AFH         PUBLIC        _SecuenciaExpedidorMF
  C:BAE4H         PUBLIC        Pregunta_Placa_Habilitada
  C:ADF2H         PUBLIC        _Pregunta_Lpr
  C:A1B8H         PUBLIC        Wait_Placa
  C:AB06H         PUBLIC        Responde_Estado_Sensores_Transporte
  C:9BF3H         PUBLIC        Entrega_Card_Captura
  C:AE4FH         PUBLIC        _Respuesta_Segunda_clave
  X:0147H         SYMBOL        Estado
  C:BA15H         PUBLIC        _Responde_Write_Tarjeta_Sector1_Bloque0
  C:B9DFH         PUBLIC        _Responde_Write_Tarjeta_Sector1_Bloque1
  C:B2F0H         PUBLIC        _Responde_Write_Tarjeta_Sector2_Bloque0
  C:A469H         PUBLIC        _Responde_Write_Tarjeta_Sector1_Bloque2
  C:A785H         PUBLIC        Responde_Tipo_Tarjeta
  C:BAB3H         PUBLIC        _Tarjeta_Rotacion
  -------         PROC          TRAMA_VALIDACION_P_N
  -------         DO            
  D:0007H         SYMBOL        Trama_Validacion_P_N
  -------         ENDDO         
  C:B718H         LINE#         579
  C:B718H         LINE#         580
  C:B718H         LINE#         581
  C:B71AH         LINE#         583
  C:B730H         LINE#         584
  C:B730H         LINE#         585
  C:B733H         LINE#         586
  C:B733H         LINE#         587
  C:B735H         LINE#         590
  C:B73DH         LINE#         591
  C:B73DH         LINE#         593
  C:B73FH         LINE#         595
  C:B740H         LINE#         596
  C:B744H         LINE#         597
  C:B744H         LINE#         599
  C:B746H         LINE#         601
  C:B747H         LINE#         603
  C:B747H         LINE#         604
  C:B750H         LINE#         605
  C:B752H         LINE#         607
  C:B752H         LINE#         608
  C:B753H         LINE#         610
  C:B753H         LINE#         612
  C:B755H         LINE#         614
  C:B755H         LINE#         616
  C:B755H         LINE#         618
  C:B755H         LINE#         619
  -------         ENDPROC       TRAMA_VALIDACION_P_N
  -------         PROC          ERROR_RX_PTO
  -------         DO            
  X:00B7H         SYMBOL        cnt_espera_ask_on
BL51 BANKED LINKER/LOCATER V6.22.2.0                                                  09/14/2021  15:59:56  PAGE 111


  X:0007H         SYMBOL        error_rx_pto
  -------         ENDDO         
  C:9112H         LINE#         643
  C:9112H         LINE#         644
  C:9112H         LINE#         647
  C:9118H         LINE#         651
  C:9121H         LINE#         652
  C:9129H         LINE#         653
  C:9132H         LINE#         654
  C:913AH         LINE#         655
  C:9143H         LINE#         656
  C:9146H         LINE#         658
  C:9146H         LINE#         659
  C:914CH         LINE#         660
  C:9156H         LINE#         661
  C:9156H         LINE#         662
  C:915FH         LINE#         663
  C:9161H         LINE#         664
  C:9168H         LINE#         665
  C:916DH         LINE#         666
  C:9173H         LINE#         667
  C:9178H         LINE#         668
  C:917AH         LINE#         669
  C:9181H         LINE#         670
  C:9187H         LINE#         671
  C:9187H         LINE#         673
  C:9187H         LINE#         674
  C:918CH         LINE#         675
  C:918CH         LINE#         676
  C:918CH         LINE#         677
  C:918EH         LINE#         679
  C:918EH         LINE#         680
  C:919CH         LINE#         681
  C:91AFH         LINE#         682
  C:91AFH         LINE#         683
  C:91B0H         LINE#         685
  C:91B6H         LINE#         686
  C:91BAH         LINE#         687
  C:91BCH         LINE#         688
  C:91BCH         LINE#         689
  C:91BEH         LINE#         691
  C:91BEH         LINE#         692
  C:91BFH         LINE#         693
  C:91C4H         LINE#         694
  C:91CAH         LINE#         695
  C:91CAH         LINE#         696
  C:91CAH         LINE#         697
  C:91CFH         LINE#         698
  -------         ENDPROC       ERROR_RX_PTO
  -------         PROC          _RTA_CMD_TRANSPORTE
  X:0002H         SYMBOL        secuencia_Expedidor
  -------         DO            
  X:0005H         SYMBOL        temp
  X:0006H         SYMBOL        EstadoComSeqMF
  -------         ENDDO         
  C:8683H         LINE#         714
  C:868EH         LINE#         715
BL51 BANKED LINKER/LOCATER V6.22.2.0                                                  09/14/2021  15:59:56  PAGE 112


  C:868EH         LINE#         721
  C:869BH         LINE#         722
  C:869BH         LINE#         723
  C:86A3H         LINE#         724
  C:86A3H         LINE#         725
  C:86B1H         LINE#         726
  C:86B4H         LINE#         727
  C:86BAH         LINE#         728
  C:86BAH         LINE#         729
  C:86C3H         LINE#         730
  C:86D7H         LINE#         731
  C:86DFH         LINE#         732
  C:86DFH         LINE#         733
  C:86E8H         LINE#         734
  C:86E8H         LINE#         736
  C:86F9H         LINE#         738
  C:86FBH         LINE#         740
  C:86FBH         LINE#         743
  C:8713H         LINE#         744
  C:8713H         LINE#         745
  C:871EH         LINE#         746
  C:8720H         LINE#         748
  C:8720H         LINE#         749
  C:872EH         LINE#         750
  C:872EH         LINE#         751
  C:872EH         LINE#         752
  C:8730H         LINE#         754
  C:8730H         LINE#         756
  C:8744H         LINE#         757
  C:8759H         LINE#         758
  C:8759H         LINE#         759
  C:875EH         LINE#         760
  -------         ENDPROC       _RTA_CMD_TRANSPORTE
  -------         PROC          ANALIZA_PRESENCIA_ROTACION
  -------         DO            
  X:0002H         SYMBOL        Estado_expedidor
  -------         ENDDO         
  C:BB9CH         LINE#         821
  C:BB9CH         LINE#         822
  C:BB9CH         LINE#         824
  C:BBA2H         LINE#         825
  C:BBA2H         LINE#         827
  C:BBA8H         LINE#         828
  C:BBAAH         LINE#         830
  C:BBAAH         LINE#         832
  C:BBAFH         LINE#         833
  C:BBB4H         LINE#         834
  C:BBBAH         LINE#         835
  C:BBC0H         LINE#         837
  C:BBC0H         LINE#         838
  C:BBC5H         LINE#         839
  -------         ENDPROC       ANALIZA_PRESENCIA_ROTACION
  -------         PROC          _ANALIZA_UID_CARD
  X:0002H         SYMBOL        Atributos_Expedidor
  -------         DO            
  X:0005H         SYMBOL        Estado_expedidor
  D:0007H         SYMBOL        temp
BL51 BANKED LINKER/LOCATER V6.22.2.0                                                  09/14/2021  15:59:56  PAGE 113


  X:0006H         SYMBOL        buffer_UID
  -------         ENDDO         
  C:89EEH         LINE#         843
  C:89F9H         LINE#         844
  C:89F9H         LINE#         848
  C:8A09H         LINE#         849
  C:8A09H         LINE#         851
  C:8A15H         LINE#         852
  C:8A15H         LINE#         853
  C:8A2DH         LINE#         855
  C:8A30H         LINE#         857
  C:8A39H         LINE#         858
  C:8A4AH         LINE#         861
  C:8A53H         LINE#         862
  C:8A5BH         LINE#         863
  C:8A63H         LINE#         864
  C:8A6BH         LINE#         865
  C:8A73H         LINE#         866
  C:8A7CH         LINE#         868
  C:8A93H         LINE#         869
  C:8A9DH         LINE#         870
  C:8AA7H         LINE#         871
  C:8AB1H         LINE#         872
  C:8AB7H         LINE#         873
  C:8AB9H         LINE#         875
  C:8AB9H         LINE#         876
  C:8ABFH         LINE#         877
  C:8ABFH         LINE#         878
  C:8AC4H         LINE#         879
  -------         ENDPROC       _ANALIZA_UID_CARD
  -------         PROC          INGRESO_VEHICULO
  -------         DO            
  X:0002H         SYMBOL        CardAutomatic
  X:00B9H         SYMBOL        pulseboton
  -------         ENDDO         
  C:9AB8H         LINE#         883
  C:9AB8H         LINE#         884
  C:9AB8H         LINE#         887
  C:9AC1H         LINE#         889
  C:9ACAH         LINE#         890
  C:9ACAH         LINE#         892
  C:9AD8H         LINE#         894
  C:9ADBH         LINE#         895
  C:9ADBH         LINE#         897
  C:9ADEH         LINE#         899
  C:9ADEH         LINE#         901
  C:9AE6H         LINE#         902
  C:9AE6H         LINE#         903
  C:9AEFH         LINE#         904
  C:9AF4H         LINE#         905
  C:9AF4H         LINE#         906
  C:9AF6H         LINE#         908
  C:9AF6H         LINE#         910
  C:9AF9H         LINE#         911
  C:9AF9H         LINE#         913
  C:9AFCH         LINE#         915
  C:9AFCH         LINE#         917
BL51 BANKED LINKER/LOCATER V6.22.2.0                                                  09/14/2021  15:59:56  PAGE 114


  C:9B09H         LINE#         918
  C:9B0EH         LINE#         919
  C:9B13H         LINE#         920
  C:9B15H         LINE#         922
  C:9B15H         LINE#         923
  C:9B1BH         LINE#         926
  C:9B1BH         LINE#         927
  C:9B1EH         LINE#         928
  C:9B21H         LINE#         929
  C:9B21H         LINE#         930
  C:9B23H         LINE#         931
  C:9B28H         LINE#         932
  C:9B2CH         LINE#         933
  C:9B32H         LINE#         934
  C:9B34H         LINE#         936
  C:9B34H         LINE#         937
  C:9B37H         LINE#         938
  C:9B37H         LINE#         940
  C:9B3AH         LINE#         942
  C:9B3AH         LINE#         943
  C:9B40H         LINE#         944
  C:9B46H         LINE#         945
  C:9B46H         LINE#         948
  C:9B46H         LINE#         949
  C:9B48H         LINE#         951
  C:9B48H         LINE#         954
  C:9B4AH         LINE#         955
  C:9B50H         LINE#         956
  C:9B50H         LINE#         957
  C:9B55H         LINE#         958
  -------         ENDPROC       INGRESO_VEHICULO
  -------         PROC          RESPONDE_ESTADO_SENSORES_TRANSPORTE
  -------         DO            
  X:0002H         SYMBOL        Estado_expedidor
  -------         ENDDO         
  C:AB06H         LINE#         965
  C:AB06H         LINE#         966
  C:AB06H         LINE#         969
  C:AB0FH         LINE#         971
  C:AB17H         LINE#         972
  C:AB17H         LINE#         974
  C:AB22H         LINE#         975
  C:AB22H         LINE#         976
  C:AB26H         LINE#         977
  C:AB26H         LINE#         978
  C:AB2FH         LINE#         979
  C:AB34H         LINE#         981
  C:AB34H         LINE#         983
  C:AB36H         LINE#         985
  C:AB36H         LINE#         988
  C:AB3CH         LINE#         990
  C:AB3CH         LINE#         991
  C:AB3EH         LINE#         993
  C:AB3EH         LINE#         995
  C:AB47H         LINE#         997
  C:AB4CH         LINE#         1000
  C:AB51H         LINE#         1001
BL51 BANKED LINKER/LOCATER V6.22.2.0                                                  09/14/2021  15:59:56  PAGE 115


  C:AB51H         LINE#         1002
  C:AB53H         LINE#         1003
  C:AB5AH         LINE#         1004
  C:AB5AH         LINE#         1006
  C:AB60H         LINE#         1008
  C:AB60H         LINE#         1009
  C:AB62H         LINE#         1010
  C:AB69H         LINE#         1012
  C:AB69H         LINE#         1013
  C:AB72H         LINE#         1014
  C:AB78H         LINE#         1015
  C:AB78H         LINE#         1020
  C:AB7DH         LINE#         1021
  -------         ENDPROC       RESPONDE_ESTADO_SENSORES_TRANSPORTE
  -------         PROC          RESPONDE_TIPO_TARJETA
  -------         DO            
  X:0002H         SYMBOL        Estado_expedidor
  -------         ENDDO         
  C:A785H         LINE#         1037
  C:A785H         LINE#         1038
  C:A785H         LINE#         1041
  C:A78EH         LINE#         1043
  C:A796H         LINE#         1044
  C:A796H         LINE#         1045
  C:A7A1H         LINE#         1046
  C:A7A1H         LINE#         1047
  C:A7AAH         LINE#         1048
  C:A7B0H         LINE#         1049
  C:A7B0H         LINE#         1050
  C:A7B0H         LINE#         1051
  C:A7B2H         LINE#         1053
  C:A7B2H         LINE#         1054
  C:A7B5H         LINE#         1055
  C:A7B5H         LINE#         1056
  C:A7B7H         LINE#         1058
  C:A7B7H         LINE#         1059
  C:A7BEH         LINE#         1060
  C:A7BEH         LINE#         1062
  C:A7C7H         LINE#         1064
  C:A7CCH         LINE#         1065
  C:A7D1H         LINE#         1067
  C:A7D4H         LINE#         1069
  C:A7D6H         LINE#         1071
  C:A7D6H         LINE#         1073
  C:A7D6H         LINE#         1074
  C:A7D6H         LINE#         1075
  C:A7D6H         LINE#         1076
  C:A7D6H         LINE#         1077
  C:A7D8H         LINE#         1079
  C:A7D8H         LINE#         1080
  C:A7DFH         LINE#         1081
  C:A7DFH         LINE#         1084
  C:A7E8H         LINE#         1086
  C:A7EDH         LINE#         1087
  C:A7F2H         LINE#         1089
  C:A7F8H         LINE#         1092
  C:A7FAH         LINE#         1094
BL51 BANKED LINKER/LOCATER V6.22.2.0                                                  09/14/2021  15:59:56  PAGE 116


  C:A7FAH         LINE#         1096
  C:A7FCH         LINE#         1097
  C:A801H         LINE#         1098
  C:A801H         LINE#         1099
  C:A801H         LINE#         1101
  C:A806H         LINE#         1102
  -------         ENDPROC       RESPONDE_TIPO_TARJETA
  -------         PROC          _RESPONDE_LECTURA_TARJETA_SECTOR1_BLOQUE1
  X:0002H         SYMBOL        Atributos_Expedidor
  -------         DO            
  D:0007H         SYMBOL        temp
  X:0005H         SYMBOL        Estado_expedidor
  X:0006H         SYMBOL        buffer_S1_B1
  X:0017H         SYMBOL        ID_CLIENTE
  D:0007H         SYMBOL        COD_PARK
  X:00BAH         SYMBOL        falla
  -------         ENDDO         
  C:5F20H         LINE#         1114
  C:5F2BH         LINE#         1115
  C:5F2BH         LINE#         1122
  C:5F34H         LINE#         1126
  C:5F44H         LINE#         1127
  C:5F44H         LINE#         1129
  C:5F50H         LINE#         1130
  C:5F50H         LINE#         1131
  C:5F68H         LINE#         1133
  C:5F6BH         LINE#         1136
  C:5F74H         LINE#         1137
  C:5F85H         LINE#         1138
  C:5F92H         LINE#         1139
  C:5F9BH         LINE#         1142
  C:5FBAH         LINE#         1143
  C:5FBAH         LINE#         1145
  C:5FC3H         LINE#         1146
  C:5FCBH         LINE#         1147
  C:5FD4H         LINE#         1149
  C:5FDDH         LINE#         1150
  C:5FE5H         LINE#         1151
  C:5FEEH         LINE#         1153
  C:5FF7H         LINE#         1154
  C:5FFFH         LINE#         1155
  C:6008H         LINE#         1157
  C:6011H         LINE#         1158
  C:6019H         LINE#         1159
  C:6022H         LINE#         1161
  C:602BH         LINE#         1162
  C:6033H         LINE#         1163
  C:603CH         LINE#         1165
  C:6053H         LINE#         1167
  C:605DH         LINE#         1168
  C:6067H         LINE#         1169
  C:6071H         LINE#         1171
  C:6076H         LINE#         1172
  C:6089H         LINE#         1173
  C:608EH         LINE#         1174
  C:6094H         LINE#         1176
  C:6096H         LINE#         1178
BL51 BANKED LINKER/LOCATER V6.22.2.0                                                  09/14/2021  15:59:56  PAGE 117


  C:6096H         LINE#         1179
  C:609BH         LINE#         1180
  C:60A4H         LINE#         1181
  C:60A9H         LINE#         1182
  C:60ABH         LINE#         1183
  C:60ABH         LINE#         1184
  C:60ABH         LINE#         1185
  C:60ADH         LINE#         1187
  C:60ADH         LINE#         1189
  C:60B5H         LINE#         1190
  C:60B5H         LINE#         1191
  C:60BBH         LINE#         1192
  C:60BBH         LINE#         1193
  C:60C8H         LINE#         1195
  C:60C8H         LINE#         1196
  C:60D1H         LINE#         1197
  C:60D7H         LINE#         1199
  C:60D9H         LINE#         1201
  C:60D9H         LINE#         1202
  C:60DEH         LINE#         1203
  C:60E7H         LINE#         1204
  C:60ECH         LINE#         1205
  C:60F1H         LINE#         1206
  C:60F7H         LINE#         1207
  C:60F7H         LINE#         1208
  C:60F7H         LINE#         1210
  C:60FCH         LINE#         1211
  -------         ENDPROC       _RESPONDE_LECTURA_TARJETA_SECTOR1_BLOQUE1
  -------         PROC          _RESPONDE_LECTURA_TARJETA_SECTOR1_BLOQUE2
  X:0002H         SYMBOL        Atributos_Expedidor
  -------         DO            
  D:0007H         SYMBOL        temp
  X:0005H         SYMBOL        Estado_expedidor
  X:0006H         SYMBOL        buffer_S1_B2
  -------         ENDDO         
  C:7148H         LINE#         1216
  C:7153H         LINE#         1217
  C:7153H         LINE#         1223
  C:715CH         LINE#         1227
  C:716CH         LINE#         1228
  C:716CH         LINE#         1230
  C:7178H         LINE#         1231
  C:7178H         LINE#         1232
  C:7190H         LINE#         1233
  C:7193H         LINE#         1234
  C:719CH         LINE#         1235
  C:71ADH         LINE#         1239
  C:71B6H         LINE#         1240
  C:71C3H         LINE#         1241
  C:71DFH         LINE#         1242
  C:71E8H         LINE#         1244
  C:71F1H         LINE#         1246
  C:720DH         LINE#         1247
  C:7217H         LINE#         1248
  C:7220H         LINE#         1251
  C:7229H         LINE#         1252
  C:7231H         LINE#         1253
BL51 BANKED LINKER/LOCATER V6.22.2.0                                                  09/14/2021  15:59:56  PAGE 118


  C:723AH         LINE#         1257
  C:7251H         LINE#         1260
  C:725DH         LINE#         1261
  C:7263H         LINE#         1264
  C:7265H         LINE#         1266
  C:7265H         LINE#         1267
  C:726BH         LINE#         1268
  C:726BH         LINE#         1269
  C:7270H         LINE#         1270
  -------         ENDPROC       _RESPONDE_LECTURA_TARJETA_SECTOR1_BLOQUE2
  -------         PROC          _RESPONDE_LECTURA_TARJETA_SECTOR1_BLOQUE0
  X:0002H         SYMBOL        Nombre_Mensual
  -------         DO            
  D:0007H         SYMBOL        temp
  X:0005H         SYMBOL        Estado_expedidor
  -------         ENDDO         
  C:9DC1H         LINE#         1272
  C:9DCCH         LINE#         1273
  C:9DCCH         LINE#         1279
  C:9DD5H         LINE#         1283
  C:9DE2H         LINE#         1284
  C:9DE2H         LINE#         1286
  C:9DEEH         LINE#         1287
  C:9DEEH         LINE#         1288
  C:9E0EH         LINE#         1289
  C:9E11H         LINE#         1290
  C:9E25H         LINE#         1291
  C:9E2EH         LINE#         1292
  C:9E3CH         LINE#         1293
  C:9E45H         LINE#         1294
  C:9E4BH         LINE#         1297
  C:9E4DH         LINE#         1299
  C:9E4DH         LINE#         1300
  C:9E53H         LINE#         1301
  C:9E53H         LINE#         1302
  C:9E58H         LINE#         1303
  -------         ENDPROC       _RESPONDE_LECTURA_TARJETA_SECTOR1_BLOQUE0
  -------         PROC          _RESPONDE_REELECTURA_TARJETA_SECTOR1_BLOQUE2
  X:0002H         SYMBOL        lectura_anterior
  X:0005H         SYMBOL        Atributos_Expedidor
  -------         DO            
  D:0007H         SYMBOL        temp
  X:0008H         SYMBOL        Estado_expedidor
  X:0009H         SYMBOL        reelectura
  X:00BBH         SYMBOL        error_lectura
  -------         ENDDO         
  C:674CH         LINE#         1304
  C:6757H         LINE#         1305
  C:6757H         LINE#         1311
  C:6760H         LINE#         1314
  C:6770H         LINE#         1315
  C:6770H         LINE#         1317
  C:677CH         LINE#         1318
  C:677CH         LINE#         1319
  C:679CH         LINE#         1320
  C:679FH         LINE#         1321
  C:67B3H         LINE#         1322
BL51 BANKED LINKER/LOCATER V6.22.2.0                                                  09/14/2021  15:59:56  PAGE 119


  C:67BCH         LINE#         1323
  C:67D2H         LINE#         1324
  C:67DBH         LINE#         1326
  C:67FFH         LINE#         1327
  C:67FFH         LINE#         1328
  C:6803H         LINE#         1329
  C:680CH         LINE#         1330
  C:6815H         LINE#         1331
  C:6825H         LINE#         1332
  C:6837H         LINE#         1333
  C:683DH         LINE#         1334
  C:683DH         LINE#         1335
  C:683FH         LINE#         1337
  C:683FH         LINE#         1338
  C:6845H         LINE#         1339
  C:6855H         LINE#         1340
  C:6855H         LINE#         1341
  C:6858H         LINE#         1342
  C:685EH         LINE#         1344
  C:6860H         LINE#         1346
  C:6860H         LINE#         1347
  C:6863H         LINE#         1348
  C:686CH         LINE#         1349
  C:687CH         LINE#         1350
  C:688FH         LINE#         1351
  C:6895H         LINE#         1353
  C:6895H         LINE#         1354
  C:6895H         LINE#         1356
  C:6895H         LINE#         1357
  C:689AH         LINE#         1358
  -------         ENDPROC       _RESPONDE_REELECTURA_TARJETA_SECTOR1_BLOQUE2
  -------         PROC          _RESPONDE_WRITE_TARJETA_SECTOR1_BLOQUE1
  X:0002H         SYMBOL        Buffer_Write_MF
  -------         DO            
  D:0007H         SYMBOL        Estado_expedidor
  -------         ENDDO         
  C:B9DFH         LINE#         1359
  C:B9EAH         LINE#         1360
  C:B9EAH         LINE#         1362
  C:B9F3H         LINE#         1363
  C:B9FCH         LINE#         1364
  C:BA12H         LINE#         1365
  C:BA14H         LINE#         1366
  C:BA14H         LINE#         1367
  -------         ENDPROC       _RESPONDE_WRITE_TARJETA_SECTOR1_BLOQUE1
  -------         PROC          _RESPONDE_WRITE_TARJETA_SECTOR1_BLOQUE2
  X:0002H         SYMBOL        Atributos_Expedidor
  X:0005H         SYMBOL        Buffer_Write_MF
  -------         DO            
  X:0008H         SYMBOL        Estado_expedidor
  -------         ENDDO         
  C:A469H         LINE#         1368
  C:A474H         LINE#         1369
  C:A474H         LINE#         1371
  C:A47DH         LINE#         1372
  C:A486H         LINE#         1373
  C:A49CH         LINE#         1374
BL51 BANKED LINKER/LOCATER V6.22.2.0                                                  09/14/2021  15:59:56  PAGE 120


  C:A4ACH         LINE#         1375
  C:A4ACH         LINE#         1378
  C:A4AFH         LINE#         1379
  C:A4C1H         LINE#         1380
  C:A4C7H         LINE#         1381
  C:A4CDH         LINE#         1382
  C:A4CFH         LINE#         1384
  C:A4CFH         LINE#         1385
  C:A4D2H         LINE#         1386
  C:A4E4H         LINE#         1387
  C:A4EAH         LINE#         1389
  C:A4EAH         LINE#         1390
  C:A4EFH         LINE#         1391
  -------         ENDPROC       _RESPONDE_WRITE_TARJETA_SECTOR1_BLOQUE2
  -------         PROC          _RESPONDE_WRITE_TARJETA_SECTOR1_BLOQUE0
  X:0002H         SYMBOL        Buffer_Write_MF
  C:BA15H         LINE#         1394
  C:BA20H         LINE#         1395
  C:BA20H         LINE#         1397
  C:BA29H         LINE#         1398
  C:BA32H         LINE#         1399
  C:BA48H         LINE#         1401
  C:BA4AH         LINE#         1402
  -------         ENDPROC       _RESPONDE_WRITE_TARJETA_SECTOR1_BLOQUE0
  -------         PROC          _RESPONDE_WRITE_TARJETA_SECTOR2_BLOQUE0
  X:0002H         SYMBOL        Buffer_Write_MF
  C:B2F0H         LINE#         1405
  C:B2FBH         LINE#         1406
  C:B2FBH         LINE#         1408
  C:B304H         LINE#         1409
  C:B30DH         LINE#         1410
  C:B316H         LINE#         1411
  C:B31FH         LINE#         1412
  C:B334H         LINE#         1413
  C:B336H         LINE#         1414
  -------         ENDPROC       _RESPONDE_WRITE_TARJETA_SECTOR2_BLOQUE0
  -------         PROC          _PREGUNTA_LPR
  X:0002H         SYMBOL        Atributos_Expedidor
  -------         DO            
  D:0007H         SYMBOL        Estado_expedidor
  X:0005H         SYMBOL        contador
  X:0007H         SYMBOL        time_out
  -------         ENDDO         
  C:ADF2H         LINE#         1418
  C:ADFDH         LINE#         1419
  C:ADFDH         LINE#         1421
  C:AE02H         LINE#         1422
  C:AE06H         LINE#         1423
  C:AE0FH         LINE#         1424
  C:AE1DH         LINE#         1425
  C:AE2BH         LINE#         1426
  C:AE2BH         LINE#         1428
  C:AE3CH         LINE#         1429
  C:AE48H         LINE#         1430
  C:AE48H         LINE#         1431
  C:AE4CH         LINE#         1433
  C:AE4CH         LINE#         1434
BL51 BANKED LINKER/LOCATER V6.22.2.0                                                  09/14/2021  15:59:56  PAGE 121


  C:AE4CH         LINE#         1437
  C:AE4EH         LINE#         1439
  C:AE4EH         LINE#         1440
  -------         ENDPROC       _PREGUNTA_LPR
  -------         PROC          PREGUNTA_PLACA_HABILITADA
  -------         DO            
  X:0002H         SYMBOL        Estado_expedidor
  -------         ENDDO         
  C:BAE4H         LINE#         1442
  C:BAE4H         LINE#         1443
  C:BAE4H         LINE#         1445
  C:BAEDH         LINE#         1446
  C:BAFCH         LINE#         1447
  C:BAFCH         LINE#         1449
  C:BAFFH         LINE#         1450
  C:BB04H         LINE#         1451
  C:BB09H         LINE#         1452
  C:BB0BH         LINE#         1454
  C:BB0BH         LINE#         1455
  C:BB0EH         LINE#         1456
  C:BB0EH         LINE#         1457
  C:BB13H         LINE#         1458
  -------         ENDPROC       PREGUNTA_PLACA_HABILITADA
  -------         PROC          _RESPUESTA_SEGUNDA_CLAVE
  X:0002H         SYMBOL        Atributos_Expedidor
  X:0005H         SYMBOL        Buffer_Write_MF
  C:AE4FH         LINE#         1459
  C:AE5AH         LINE#         1460
  C:AE5AH         LINE#         1462
  C:AE63H         LINE#         1463
  C:AE79H         LINE#         1466
  C:AE89H         LINE#         1467
  C:AE9BH         LINE#         1468
  C:AEA9H         LINE#         1470
  C:AEABH         LINE#         1471
  -------         ENDPROC       _RESPUESTA_SEGUNDA_CLAVE
  -------         PROC          RESPUESTA_PLACA_CANCEL
  -------         DO            
  X:0003H         SYMBOL        Estado_expedidor
  -------         ENDDO         
  C:B337H         LINE#         1472
  C:B337H         LINE#         1473
  C:B337H         LINE#         1477
  C:B340H         LINE#         1478
  C:B349H         LINE#         1479
  C:B352H         LINE#         1483
  C:B368H         LINE#         1484
  C:B368H         LINE#         1485
  C:B370H         LINE#         1486
  C:B370H         LINE#         1487
  C:B372H         LINE#         1489
  C:B372H         LINE#         1491
  C:B378H         LINE#         1493
  C:B378H         LINE#         1494
  C:B37DH         LINE#         1495
  -------         ENDPROC       RESPUESTA_PLACA_CANCEL
  -------         PROC          _ARMAR_TRAMA_TARJETA_SECTOR1_BLOQUE2
BL51 BANKED LINKER/LOCATER V6.22.2.0                                                  09/14/2021  15:59:56  PAGE 122


  X:000FH         SYMBOL        Atributos_Expedidor
  X:0012H         SYMBOL        Buffer_Write_MF
  C:5D35H         LINE#         1527
  C:5D40H         LINE#         1528
  C:5D40H         LINE#         1533
  C:5D64H         LINE#         1534
  C:5D8BH         LINE#         1535
  C:5DB2H         LINE#         1536
  C:5DD9H         LINE#         1537
  C:5E00H         LINE#         1540
  C:5E07H         LINE#         1541
  C:5E0EH         LINE#         1542
  C:5E15H         LINE#         1544
  C:5E2AH         LINE#         1545
  C:5E2AH         LINE#         1546
  C:5E41H         LINE#         1547
  C:5E5AH         LINE#         1548
  C:5E5AH         LINE#         1549
  C:5E5DH         LINE#         1553
  C:5E5DH         LINE#         1555
  C:5E8CH         LINE#         1556
  C:5EBBH         LINE#         1558
  C:5ED3H         LINE#         1559
  C:5ED3H         LINE#         1560
  C:5EE0H         LINE#         1561
  C:5EE2H         LINE#         1563
  C:5EE2H         LINE#         1564
  C:5EF2H         LINE#         1565
  C:5EF2H         LINE#         1566
  C:5EF2H         LINE#         1568
  C:5F04H         LINE#         1569
  C:5F0BH         LINE#         1570
  C:5F12H         LINE#         1571
  C:5F19H         LINE#         1572
  -------         ENDPROC       _ARMAR_TRAMA_TARJETA_SECTOR1_BLOQUE2
  -------         PROC          L?0346
  -------         ENDPROC       L?0346
  -------         PROC          _ARMAR_TRAMA_TARJETA_SECTOR1_BLOQUE0
  X:000CH         SYMBOL        Buffer_Write_MF
  C:BB1CH         LINE#         1574
  C:BB27H         LINE#         1575
  C:BB27H         LINE#         1577
  -------         ENDPROC       _ARMAR_TRAMA_TARJETA_SECTOR1_BLOQUE0
  -------         PROC          _ARMAR_TRAMA_PTO_PARALELO_EXPEDIDOR
  X:0009H         SYMBOL        Atributos_Expedidor
  X:000CH         SYMBOL        longitud_trama_pto_paralelo
  -------         DO            
  X:00BCH         SYMBOL        buffer
  X:000FH         SYMBOL        ticket
  X:001AH         SYMBOL        j
  -------         ENDDO         
  C:509FH         LINE#         1579
  C:50AAH         LINE#         1580
  C:50AAH         LINE#         1587
  C:50B0H         LINE#         1588
  C:50B4H         LINE#         1589
  C:50B7H         LINE#         1590
BL51 BANKED LINKER/LOCATER V6.22.2.0                                                  09/14/2021  15:59:56  PAGE 123


  C:50C3H         LINE#         1591
  C:50DAH         LINE#         1592
  C:50E8H         LINE#         1594
  C:50F9H         LINE#         1596
  C:5125H         LINE#         1597
  C:5151H         LINE#         1598
  C:517DH         LINE#         1599
  C:51A9H         LINE#         1600
  C:51D5H         LINE#         1601
  C:51E9H         LINE#         1611
  C:51F8H         LINE#         1612
  C:51F8H         LINE#         1613
  C:51FEH         LINE#         1614
  C:51FEH         LINE#         1615
  C:5215H         LINE#         1616
  C:522BH         LINE#         1617
  C:5241H         LINE#         1618
  C:5257H         LINE#         1619
  C:526DH         LINE#         1620
  C:5282H         LINE#         1621
  C:5282H         LINE#         1622
  C:5284H         LINE#         1624
  C:5284H         LINE#         1625
  C:5297H         LINE#         1626
  C:5297H         LINE#         1627
  C:5297H         LINE#         1628
  C:5299H         LINE#         1630
  C:5299H         LINE#         1631
  C:52ADH         LINE#         1632
  C:52C0H         LINE#         1633
  C:52C0H         LINE#         1634
  C:52CEH         LINE#         1635
  C:52DCH         LINE#         1636
  C:52EEH         LINE#         1638
  C:52F4H         LINE#         1639
  -------         ENDPROC       _ARMAR_TRAMA_PTO_PARALELO_EXPEDIDOR
  -------         PROC          _ARMAR_TRAMA_PTO_PARALELO_EXPEDIDOR_MENSUAL
  X:0009H         SYMBOL        Atributos_Expedidor
  X:000CH         SYMBOL        longitud_trama_pto_paralelo
  -------         DO            
  X:00D8H         SYMBOL        buffer
  -------         ENDDO         
  C:701AH         LINE#         1640
  C:7025H         LINE#         1641
  C:7025H         LINE#         1647
  C:702BH         LINE#         1648
  C:702FH         LINE#         1649
  C:7044H         LINE#         1650
  C:704EH         LINE#         1651
  C:7058H         LINE#         1652
  C:7062H         LINE#         1656
  C:7073H         LINE#         1657
  C:708FH         LINE#         1658
  C:70ABH         LINE#         1659
  C:70C7H         LINE#         1660
  C:70E3H         LINE#         1670
  C:70EFH         LINE#         1671
BL51 BANKED LINKER/LOCATER V6.22.2.0                                                  09/14/2021  15:59:56  PAGE 124


  C:70EFH         LINE#         1673
  C:70F6H         LINE#         1674
  C:70FAH         LINE#         1675
  C:70FEH         LINE#         1676
  C:7102H         LINE#         1677
  C:7106H         LINE#         1678
  C:710AH         LINE#         1680
  C:710AH         LINE#         1682
  C:7120H         LINE#         1683
  C:7120H         LINE#         1684
  C:7123H         LINE#         1685
  C:7125H         LINE#         1687
  C:7125H         LINE#         1688
  C:7128H         LINE#         1689
  C:7128H         LINE#         1691
  C:712EH         LINE#         1692
  C:7131H         LINE#         1693
  C:7141H         LINE#         1694
  C:7147H         LINE#         1695
  -------         ENDPROC       _ARMAR_TRAMA_PTO_PARALELO_EXPEDIDOR_MENSUAL
  -------         PROC          _ARMAR_TRAMA_MONITOR
  X:0009H         SYMBOL        Atributos_Expedidor
  -------         DO            
  X:00F4H         SYMBOL        buffer
  X:000CH         SYMBOL        ticket
  X:0017H         SYMBOL        j
  -------         ENDDO         
  C:4DFCH         LINE#         1696
  C:4E07H         LINE#         1697
  C:4E07H         LINE#         1703
  C:4E0CH         LINE#         1704
  C:4E12H         LINE#         1705
  C:4E1AH         LINE#         1706
  C:4E1EH         LINE#         1707
  C:4E27H         LINE#         1708
  C:4E27H         LINE#         1709
  C:4E2AH         LINE#         1710
  C:4E2CH         LINE#         1712
  C:4E2CH         LINE#         1713
  C:4E2FH         LINE#         1714
  C:4E2FH         LINE#         1717
  C:4E32H         LINE#         1718
  C:4E32H         LINE#         1719
  C:4E37H         LINE#         1720
  C:4E43H         LINE#         1721
  C:4E5AH         LINE#         1722
  C:4E5DH         LINE#         1724
  C:4E5DH         LINE#         1725
  C:4E78H         LINE#         1726
  C:4E86H         LINE#         1727
  C:4E94H         LINE#         1728
  C:4EA0H         LINE#         1729
  C:4EAEH         LINE#         1730
  C:4EE7H         LINE#         1732
  C:4EE7H         LINE#         1733
  C:4EF5H         LINE#         1734
  C:4F06H         LINE#         1737
BL51 BANKED LINKER/LOCATER V6.22.2.0                                                  09/14/2021  15:59:56  PAGE 125


  C:4F32H         LINE#         1738
  C:4F50H         LINE#         1741
  C:4F71H         LINE#         1742
  C:4F8FH         LINE#         1745
  C:4FB0H         LINE#         1746
  C:4FCEH         LINE#         1749
  C:4FEFH         LINE#         1750
  C:500DH         LINE#         1753
  C:502EH         LINE#         1754
  C:504CH         LINE#         1755
  C:505FH         LINE#         1758
  C:506DH         LINE#         1760
  C:507BH         LINE#         1761
  C:5088H         LINE#         1762
  C:5094H         LINE#         1763
  C:5099H         LINE#         1764
  C:509EH         LINE#         1765
  -------         ENDPROC       _ARMAR_TRAMA_MONITOR
  -------         PROC          _ARMAR_TRAMA_PLACA
  X:0008H         SYMBOL        Buffer_Write_MF
  -------         DO            
  D:0007H         SYMBOL        j
  X:000BH         SYMBOL        len_placa
  -------         ENDDO         
  C:A5FAH         LINE#         1766
  C:A605H         LINE#         1767
  C:A605H         LINE#         1770
  C:A613H         LINE#         1771
  C:A615H         LINE#         1772
  C:A615H         LINE#         1773
  C:A623H         LINE#         1774
  C:A623H         LINE#         1775
  C:A631H         LINE#         1776
  C:A63DH         LINE#         1777
  C:A63DH         LINE#         1778
  C:A657H         LINE#         1779
  C:A65AH         LINE#         1781
  C:A666H         LINE#         1782
  C:A666H         LINE#         1783
  C:A67AH         LINE#         1784
  C:A67DH         LINE#         1785
  -------         ENDPROC       _ARMAR_TRAMA_PLACA
  C:B80DH         SYMBOL        L?0345
  -------         PROC          L?0344
  -------         ENDPROC       L?0344
  C:B80DH         SYMBOL        L?0345
  -------         PROC          _LOAD_SECUENCIA_EXPEDIDOR
  D:0001H         SYMBOL        Secuencia_Expedidor
  D:0004H         SYMBOL        estadoactivo
  X:0007H         SYMBOL        estadoactual
  X:0009H         SYMBOL        estadofuturo
  C:B829H         LINE#         1786
  C:B829H         LINE#         1787
  C:B829H         LINE#         1788
  C:B830H         LINE#         1789
  C:B838H         LINE#         1790
  C:B843H         LINE#         1791
BL51 BANKED LINKER/LOCATER V6.22.2.0                                                  09/14/2021  15:59:56  PAGE 126


  C:B849H         LINE#         1792
  -------         ENDPROC       _LOAD_SECUENCIA_EXPEDIDOR
  -------         PROC          _DISPARO_LOCK_ENTRADA_VEHICULO
  X:0002H         SYMBOL        Nombre_Mensual
  -------         DO            
  X:0005H         SYMBOL        Estado_expedidor
  X:010CH         SYMBOL        take_card
  -------         ENDDO         
  C:A09BH         LINE#         1793
  C:A0A6H         LINE#         1794
  C:A0A6H         LINE#         1799
  C:A0AFH         LINE#         1803
  C:A0B6H         LINE#         1804
  C:A0B6H         LINE#         1806
  C:A0BFH         LINE#         1808
  C:A0C5H         LINE#         1809
  C:A0C7H         LINE#         1810
  C:A0CCH         LINE#         1812
  C:A0DCH         LINE#         1813
  C:A0E2H         LINE#         1816
  C:A0E4H         LINE#         1817
  C:A0ECH         LINE#         1818
  C:A0ECH         LINE#         1819
  C:A0F2H         LINE#         1820
  C:A0F2H         LINE#         1821
  C:A0FFH         LINE#         1822
  C:A104H         LINE#         1823
  C:A109H         LINE#         1824
  C:A10BH         LINE#         1826
  C:A10BH         LINE#         1827
  C:A111H         LINE#         1829
  C:A111H         LINE#         1831
  C:A117H         LINE#         1832
  C:A11DH         LINE#         1834
  C:A11FH         LINE#         1836
  C:A11FH         LINE#         1837
  C:A125H         LINE#         1838
  C:A125H         LINE#         1840
  C:A125H         LINE#         1845
  C:A12AH         LINE#         1846
  -------         ENDPROC       _DISPARO_LOCK_ENTRADA_VEHICULO
  -------         PROC          _SEND_PTO_PARALELO
  X:0002H         SYMBOL        Atributos_Expedidor
  -------         DO            
  X:0005H         SYMBOL        Trama_Expedidor
  X:0008H         SYMBOL        leng_trama_pto
  -------         ENDDO         
  C:98D0H         LINE#         1847
  C:98DBH         LINE#         1848
  C:98DBH         LINE#         1851
  C:98DEH         LINE#         1852
  C:98DEH         LINE#         1853
  C:9905H         LINE#         1854
  C:9907H         LINE#         1856
  C:9907H         LINE#         1857
  C:992EH         LINE#         1858
  C:9931H         LINE#         1859
BL51 BANKED LINKER/LOCATER V6.22.2.0                                                  09/14/2021  15:59:56  PAGE 127


  C:9931H         LINE#         1861
  C:9942H         LINE#         1862
  C:994BH         LINE#         1863
  C:9962H         LINE#         1867
  C:9965H         LINE#         1868
  C:996BH         LINE#         1869
  C:9970H         LINE#         1870
  C:9972H         LINE#         1871
  C:9974H         LINE#         1872
  -------         ENDPROC       _SEND_PTO_PARALELO
  -------         PROC          ENTREGA_CARD_CAPTURA
  -------         DO            
  X:0002H         SYMBOL        Estado_expedidor
  -------         ENDDO         
  C:9BF3H         LINE#         1876
  C:9BF3H         LINE#         1877
  C:9BF3H         LINE#         1881
  C:9BFCH         LINE#         1882
  C:9BFFH         LINE#         1883
  C:9C02H         LINE#         1884
  C:9C02H         LINE#         1885
  C:9C0CH         LINE#         1886
  C:9C0CH         LINE#         1887
  C:9C0EH         LINE#         1888
  C:9C10H         LINE#         1889
  C:9C19H         LINE#         1890
  C:9C19H         LINE#         1891
  C:9C19H         LINE#         1893
  C:9C1BH         LINE#         1895
  C:9C1BH         LINE#         1896
  C:9C21H         LINE#         1897
  C:9C21H         LINE#         1899
  C:9C27H         LINE#         1901
  C:9C3AH         LINE#         1902
  C:9C3AH         LINE#         1903
  C:9C47H         LINE#         1904
  C:9C47H         LINE#         1905
  C:9C49H         LINE#         1906
  C:9C52H         LINE#         1908
  C:9C54H         LINE#         1909
  C:9C59H         LINE#         1910
  C:9C5FH         LINE#         1912
  C:9C61H         LINE#         1913
  C:9C6EH         LINE#         1914
  C:9C6EH         LINE#         1915
  C:9C74H         LINE#         1916
  C:9C74H         LINE#         1917
  C:9C74H         LINE#         1919
  C:9C76H         LINE#         1921
  C:9C76H         LINE#         1922
  C:9C78H         LINE#         1923
  C:9C81H         LINE#         1924
  C:9C83H         LINE#         1925
  C:9C88H         LINE#         1926
  C:9C88H         LINE#         1927
  C:9C88H         LINE#         1929
  C:9C8DH         LINE#         1930
BL51 BANKED LINKER/LOCATER V6.22.2.0                                                  09/14/2021  15:59:56  PAGE 128


  -------         ENDPROC       ENTREGA_CARD_CAPTURA
  -------         PROC          WAIT_PLACA
  -------         DO            
  X:0002H         SYMBOL        Estado_expedidor
  -------         ENDDO         
  C:A1B8H         LINE#         1931
  C:A1B8H         LINE#         1932
  C:A1B8H         LINE#         1936
  C:A1C1H         LINE#         1938
  C:A1D7H         LINE#         1939
  C:A1D7H         LINE#         1940
  C:A1DAH         LINE#         1941
  C:A1DAH         LINE#         1943
  C:A1DDH         LINE#         1944
  C:A1DDH         LINE#         1945
  C:A1DFH         LINE#         1947
  C:A1E5H         LINE#         1948
  C:A1E5H         LINE#         1950
  C:A1EDH         LINE#         1951
  C:A1EFH         LINE#         1954
  C:A1EFH         LINE#         1955
  C:A1F5H         LINE#         1956
  C:A208H         LINE#         1957
  C:A208H         LINE#         1958
  C:A215H         LINE#         1959
  C:A215H         LINE#         1961
  C:A224H         LINE#         1962
  C:A22AH         LINE#         1963
  C:A22CH         LINE#         1964
  C:A239H         LINE#         1965
  C:A239H         LINE#         1966
  C:A23FH         LINE#         1967
  C:A23FH         LINE#         1968
  C:A23FH         LINE#         1969
  C:A23FH         LINE#         1970
  C:A244H         LINE#         1971
  -------         ENDPROC       WAIT_PLACA
  -------         PROC          _TARJETA_ROTACION
  D:0001H         SYMBOL        Atributos_Expedidor
  X:000CH         SYMBOL        Buffer_Write_MF
  C:BAB3H         LINE#         2049
  C:BAB3H         LINE#         2050
  C:BAB3H         LINE#         2051
  C:BAB8H         LINE#         2052
  C:BAC1H         LINE#         2053
  C:BAE1H         LINE#         2054
  C:BAE3H         LINE#         2057
  -------         ENDPROC       _TARJETA_ROTACION
  -------         PROC          _VALIDA_TIPO_TARJETA
  X:0002H         SYMBOL        Atributos_Expedidor
  X:0005H         SYMBOL        Buffer_Write_MF
  -------         DO            
  X:0008H         SYMBOL        Estado_expedidor
  -------         ENDDO         
  C:8914H         LINE#         2058
  C:891FH         LINE#         2059
  C:891FH         LINE#         2100
BL51 BANKED LINKER/LOCATER V6.22.2.0                                                  09/14/2021  15:59:56  PAGE 129


  C:892CH         LINE#         2101
  C:892CH         LINE#         2103
  C:8935H         LINE#         2104
  C:893BH         LINE#         2105
  C:893BH         LINE#         2106
  C:8947H         LINE#         2107
  C:8947H         LINE#         2108
  C:8964H         LINE#         2110
  C:8964H         LINE#         2111
  C:8981H         LINE#         2112
  C:8983H         LINE#         2114
  C:8983H         LINE#         2115
  C:898CH         LINE#         2116
  C:8991H         LINE#         2117
  C:8993H         LINE#         2118
  C:8993H         LINE#         2119
  C:8993H         LINE#         2120
  C:8995H         LINE#         2122
  C:8995H         LINE#         2123
  C:899EH         LINE#         2124
  C:89C6H         LINE#         2125
  C:89C6H         LINE#         2126
  C:89C8H         LINE#         2128
  C:89C8H         LINE#         2130
  C:89CDH         LINE#         2131
  C:89D2H         LINE#         2132
  C:89D2H         LINE#         2133
  C:89D2H         LINE#         2134
  C:89D4H         LINE#         2136
  C:89D4H         LINE#         2137
  C:89DDH         LINE#         2138
  C:89E2H         LINE#         2140
  C:89E8H         LINE#         2141
  C:89E8H         LINE#         2143
  C:89EDH         LINE#         2144
  -------         ENDPROC       _VALIDA_TIPO_TARJETA
  -------         PROC          SECUENCIA_INICIO_EXPEDIDOR
  -------         DO            
  X:0001H         SYMBOL        temp
  -------         ENDDO         
  C:6C69H         LINE#         2398
  C:6C69H         LINE#         2399
  C:6C69H         LINE#         2401
  C:6C89H         LINE#         2402
  C:6C89H         LINE#         2403
  C:6C89H         LINE#         2406
  C:6C8EH         LINE#         2407
  C:6C94H         LINE#         2410
  C:6C96H         LINE#         2411
  C:6C96H         LINE#         2422
  C:6C96H         LINE#         2424
  C:6CA4H         LINE#         2425
  C:6CA4H         LINE#         2426
  C:6CB0H         LINE#         2427
  C:6CB0H         LINE#         2428
  C:6CB6H         LINE#         2429
  C:6CB9H         LINE#         2430
BL51 BANKED LINKER/LOCATER V6.22.2.0                                                  09/14/2021  15:59:56  PAGE 130


  C:6CC1H         LINE#         2431
  C:6CC1H         LINE#         2432
  C:6CC8H         LINE#         2433
  C:6CDCH         LINE#         2434
  C:6CDCH         LINE#         2435
  C:6CDEH         LINE#         2437
  C:6CDEH         LINE#         2438
  C:6CE5H         LINE#         2439
  C:6CEBH         LINE#         2440
  C:6CEBH         LINE#         2441
  C:6CEEH         LINE#         2443
  C:6CEEH         LINE#         2444
  C:6CF7H         LINE#         2445
  C:6D0BH         LINE#         2446
  C:6D11H         LINE#         2447
  C:6D11H         LINE#         2448
  C:6D14H         LINE#         2449
  C:6D14H         LINE#         2455
  C:6D14H         LINE#         2457
  C:6D17H         LINE#         2458
  C:6D1DH         LINE#         2462
  C:6D1FH         LINE#         2463
  C:6D1FH         LINE#         2473
  C:6D1FH         LINE#         2475
  C:6D2DH         LINE#         2476
  C:6D2DH         LINE#         2477
  C:6D39H         LINE#         2478
  C:6D39H         LINE#         2479
  C:6D3FH         LINE#         2480
  C:6D41H         LINE#         2481
  C:6D49H         LINE#         2482
  C:6D49H         LINE#         2483
  C:6D50H         LINE#         2484
  C:6D64H         LINE#         2485
  C:6D64H         LINE#         2486
  C:6D66H         LINE#         2488
  C:6D66H         LINE#         2489
  C:6D6DH         LINE#         2490
  C:6D73H         LINE#         2491
  C:6D73H         LINE#         2492
  C:6D75H         LINE#         2494
  C:6D75H         LINE#         2495
  C:6D7EH         LINE#         2496
  C:6D92H         LINE#         2497
  C:6D97H         LINE#         2498
  C:6D97H         LINE#         2500
  C:6D99H         LINE#         2501
  C:6D99H         LINE#         2507
  C:6D99H         LINE#         2509
  C:6D9FH         LINE#         2510
  C:6D9FH         LINE#         2513
  C:6D9FH         LINE#         2514
  C:6DA6H         LINE#         2515
  C:6DA6H         LINE#         2516
  C:6DA6H         LINE#         2517
  -------         ENDPROC       SECUENCIA_INICIO_EXPEDIDOR
  -------         PROC          _SECUENCIAEXPEDIDORMF
BL51 BANKED LINKER/LOCATER V6.22.2.0                                                  09/14/2021  15:59:56  PAGE 131


  X:0001H         SYMBOL        EstadoActivo
  -------         DO            
  X:010DH         SYMBOL        Buffer_Write_MF
  X:011EH         SYMBOL        Atributos_Expedidor
  X:0132H         SYMBOL        Secuencia_Expedidor
  X:0136H         SYMBOL        Nombre_Mensual
  -------         ENDDO         
  C:38AFH         LINE#         2527
  C:38B4H         LINE#         2528
  C:38B4H         LINE#         2536
  C:3920H         LINE#         2537
  C:3920H         LINE#         2540
  C:3920H         LINE#         2542
  C:3933H         LINE#         2543
  C:3933H         LINE#         2544
  C:3935H         LINE#         2545
  C:3937H         LINE#         2546
  C:393CH         LINE#         2547
  C:3944H         LINE#         2548
  C:3949H         LINE#         2549
  C:3949H         LINE#         2551
  C:394CH         LINE#         2552
  C:394CH         LINE#         2554
  C:3955H         LINE#         2555
  C:3958H         LINE#         2556
  C:3958H         LINE#         2557
  C:395DH         LINE#         2558
  C:397DH         LINE#         2559
  C:3980H         LINE#         2560
  C:3980H         LINE#         2561
  C:3983H         LINE#         2562
  C:398BH         LINE#         2563
  C:3991H         LINE#         2564
  C:3994H         LINE#         2566
  C:3994H         LINE#         2567
  C:3997H         LINE#         2568
  C:39BCH         LINE#         2569
  C:39C2H         LINE#         2570
  C:39C4H         LINE#         2571
  C:39C7H         LINE#         2572
  C:39C7H         LINE#         2573
  C:39D2H         LINE#         2574
  C:39DAH         LINE#         2575
  C:39E0H         LINE#         2576
  C:39E3H         LINE#         2577
  C:39E3H         LINE#         2578
  C:39F4H         LINE#         2579
  C:39FCH         LINE#         2580
  C:3A02H         LINE#         2581
  C:3A05H         LINE#         2582
  C:3A05H         LINE#         2583
  C:3A0AH         LINE#         2584
  C:3A2DH         LINE#         2585
  C:3A2FH         LINE#         2586
  C:3A32H         LINE#         2587
  C:3A32H         LINE#         2588
  C:3A37H         LINE#         2589
BL51 BANKED LINKER/LOCATER V6.22.2.0                                                  09/14/2021  15:59:56  PAGE 132


  C:3A57H         LINE#         2590
  C:3A5AH         LINE#         2591
  C:3A5AH         LINE#         2592
  C:3A5FH         LINE#         2593
  C:3A61H         LINE#         2594
  C:3A7FH         LINE#         2595
  C:3A82H         LINE#         2596
  C:3A82H         LINE#         2597
  C:3A87H         LINE#         2598
  C:3AA7H         LINE#         2599
  C:3AAAH         LINE#         2600
  C:3AAAH         LINE#         2601
  C:3ABDH         LINE#         2602
  C:3ABDH         LINE#         2603
  C:3AC2H         LINE#         2604
  C:3ACAH         LINE#         2605
  C:3ACDH         LINE#         2606
  C:3ACDH         LINE#         2607
  C:3AD0H         LINE#         2609
  C:3AD0H         LINE#         2610
  C:3AD3H         LINE#         2611
  C:3AF3H         LINE#         2612
  C:3AF6H         LINE#         2613
  C:3AF6H         LINE#         2614
  C:3AF8H         LINE#         2615
  C:3AFBH         LINE#         2616
  C:3AFEH         LINE#         2617
  C:3AFEH         LINE#         2618
  C:3B07H         LINE#         2619
  C:3B0AH         LINE#         2620
  C:3B0AH         LINE#         2622
  C:3B10H         LINE#         2623
  C:3B13H         LINE#         2624
  C:3B16H         LINE#         2625
  C:3B16H         LINE#         2626
  C:3B19H         LINE#         2627
  C:3B21H         LINE#         2628
  C:3B27H         LINE#         2629
  C:3B2AH         LINE#         2630
  C:3B2AH         LINE#         2631
  C:3B33H         LINE#         2632
  C:3B36H         LINE#         2633
  C:3B36H         LINE#         2634
  C:3B38H         LINE#         2635
  C:3B3BH         LINE#         2636
  C:3B3EH         LINE#         2637
  C:3B3EH         LINE#         2638
  C:3B55H         LINE#         2639
  C:3B58H         LINE#         2640
  C:3B58H         LINE#         2643
  C:3B5DH         LINE#         2644
  C:3B65H         LINE#         2645
  C:3B6BH         LINE#         2647
  C:3B6EH         LINE#         2648
  C:3B6EH         LINE#         2649
  C:3B71H         LINE#         2650
  C:3B91H         LINE#         2651
BL51 BANKED LINKER/LOCATER V6.22.2.0                                                  09/14/2021  15:59:56  PAGE 133


  C:3B94H         LINE#         2652
  C:3B94H         LINE#         2653
  C:3B97H         LINE#         2654
  C:3BB7H         LINE#         2655
  C:3BBAH         LINE#         2656
  C:3BBAH         LINE#         2657
  C:3BBDH         LINE#         2658
  C:3BC5H         LINE#         2659
  C:3BCBH         LINE#         2660
  C:3BCEH         LINE#         2661
  C:3BCEH         LINE#         2663
  C:3BD9H         LINE#         2664
  C:3BE1H         LINE#         2665
  C:3BF5H         LINE#         2666
  C:3BF8H         LINE#         2667
  C:3BF8H         LINE#         2668
  C:3C0BH         LINE#         2669
  C:3C0BH         LINE#         2670
  C:3C0EH         LINE#         2671
  C:3C0EH         LINE#         2672
  C:3C11H         LINE#         2673
  C:3C11H         LINE#         2674
  C:3C24H         LINE#         2675
  C:3C24H         LINE#         2676
  C:3C27H         LINE#         2677
  C:3C27H         LINE#         2678
  C:3C2AH         LINE#         2679
  C:3C2AH         LINE#         2680
  C:3C2DH         LINE#         2681
  C:3C30H         LINE#         2683
  C:3C30H         LINE#         2684
  C:3C36H         LINE#         2685
  C:3C36H         LINE#         2686
  C:3C39H         LINE#         2687
  C:3C39H         LINE#         2688
  C:3C39H         LINE#         2689
  C:3C3CH         LINE#         2693
  C:3C3CH         LINE#         2694
  C:3C42H         LINE#         2695
  C:3C48H         LINE#         2696
  C:3C48H         LINE#         2697
  C:3C50H         LINE#         2698
  C:3C56H         LINE#         2700
  C:3C59H         LINE#         2701
  C:3C61H         LINE#         2702
  C:3C61H         LINE#         2704
  C:3C64H         LINE#         2705
  C:3C67H         LINE#         2706
  C:3C6FH         LINE#         2707
  C:3C6FH         LINE#         2708
  C:3C7DH         LINE#         2709
  C:3C7DH         LINE#         2710
  C:3C86H         LINE#         2711
  C:3C89H         LINE#         2712
  C:3C95H         LINE#         2713
  C:3C95H         LINE#         2714
  C:3C9EH         LINE#         2715
BL51 BANKED LINKER/LOCATER V6.22.2.0                                                  09/14/2021  15:59:56  PAGE 134


  C:3CA1H         LINE#         2717
  C:3CA1H         LINE#         2718
  C:3CAAH         LINE#         2719
  C:3CAAH         LINE#         2720
  C:3CADH         LINE#         2721
  C:3CB5H         LINE#         2722
  C:3CB5H         LINE#         2723
  C:3CC3H         LINE#         2724
  C:3CC3H         LINE#         2725
  C:3CD9H         LINE#         2726
  C:3CDCH         LINE#         2727
  C:3CE8H         LINE#         2728
  C:3CE8H         LINE#         2729
  C:3CF1H         LINE#         2730
  C:3CF3H         LINE#         2731
  C:3D01H         LINE#         2732
  C:3D01H         LINE#         2733
  C:3D0AH         LINE#         2734
  C:3D0CH         LINE#         2736
  C:3D0CH         LINE#         2737
  C:3D15H         LINE#         2738
  C:3D15H         LINE#         2739
  C:3D17H         LINE#         2740
  C:3D1FH         LINE#         2741
  C:3D1FH         LINE#         2742
  C:3D28H         LINE#         2743
  C:3D2AH         LINE#         2744
  C:3D32H         LINE#         2745
  C:3D32H         LINE#         2746
  C:3D48H         LINE#         2747
  C:3D4AH         LINE#         2749
  C:3D52H         LINE#         2750
  C:3D52H         LINE#         2751
  C:3D5BH         LINE#         2752
  C:3D5DH         LINE#         2755
  C:3D65H         LINE#         2756
  C:3D65H         LINE#         2757
  C:3D6DH         LINE#         2758
  C:3D6FH         LINE#         2760
  C:3D6FH         LINE#         2761
  C:3D78H         LINE#         2762
  C:3D78H         LINE#         2763
  C:3D7AH         LINE#         2764
  C:3D7AH         LINE#         2765
  C:3D7FH         LINE#         2766
  C:3D7FH         LINE#         2768
  C:3D7FH         LINE#         2769
  C:3D84H         LINE#         2770
  -------         ENDPROC       _SECUENCIAEXPEDIDORMF
  -------         ENDMOD        VERIFICADOR

  -------         MODULE        MONITOR
  C:0000H         SYMBOL        _ICE_DUMMY_
  D:0080H         PUBLIC        P0
  D:0090H         PUBLIC        P1
  I:0011H         PUBLIC        placa
  B:0080H.2       PUBLIC        led_err_imp
BL51 BANKED LINKER/LOCATER V6.22.2.0                                                  09/14/2021  15:59:56  PAGE 135


  C:B936H         PUBLIC        Rx_Monitor
  B:0080H.0       PUBLIC        rx_ip
  B:0090H.7       PUBLIC        lock
  C:689BH         PUBLIC        _recibe_cmd_Monitor
  C:BD38H         PUBLIC        clear_placa
  C:AFB4H         PUBLIC        Timer_monitor_char
  C:934AH         PUBLIC        _Valida_Trama_Monitor
  -------         PROC          TIMER_MONITOR_CHAR
  -------         DO            
  X:0018H         SYMBOL        time_out
  X:0019H         SYMBOL        contador
  -------         ENDDO         
  C:AFB4H         LINE#         52
  C:AFB4H         LINE#         53
  C:AFB4H         LINE#         56
  C:AFBBH         LINE#         57
  C:AFBFH         LINE#         58
  C:AFC8H         LINE#         59
  C:AFC8H         LINE#         60
  C:AFD6H         LINE#         61
  C:AFEDH         LINE#         62
  C:AFEDH         LINE#         63
  C:AFF3H         LINE#         64
  C:AFF3H         LINE#         65
  C:AFF5H         LINE#         66
  C:AFFDH         LINE#         67
  C:AFFDH         LINE#         68
  C:B000H         LINE#         70
  C:B000H         LINE#         72
  C:B000H         LINE#         73
  C:B004H         LINE#         74
  C:B004H         LINE#         76
  -------         ENDPROC       TIMER_MONITOR_CHAR
  -------         PROC          _RECIBE_CMD_MONITOR
  X:0011H         SYMBOL        buffer_cmd
  -------         DO            
  X:0014H         SYMBOL        j
  X:0015H         SYMBOL        NumDatos
  X:0016H         SYMBOL        MaxChrRx
  X:0017H         SYMBOL        temp
  -------         ENDDO         
  C:689BH         LINE#         86
  C:68A6H         LINE#         87
  C:68A6H         LINE#         91
  C:68ABH         LINE#         92
  C:68AFH         LINE#         93
  C:68B3H         LINE#         96
  C:68BAH         LINE#         97
  C:68BAH         LINE#         98
  C:68BAH         LINE#         99
  C:68BDH         LINE#         101
  C:68BDH         LINE#         102
  C:68CFH         LINE#         105
  C:68E4H         LINE#         106
  C:68E4H         LINE#         107
  C:68EAH         LINE#         108
  C:68F4H         LINE#         110
BL51 BANKED LINKER/LOCATER V6.22.2.0                                                  09/14/2021  15:59:56  PAGE 136


  C:690AH         LINE#         111
  C:690AH         LINE#         112
  C:6914H         LINE#         113
  C:6914H         LINE#         114
  C:6914H         LINE#         115
  C:6914H         LINE#         117
  C:6914H         LINE#         118
  C:691CH         LINE#         119
  C:6920H         LINE#         120
  C:6920H         LINE#         121
  C:6931H         LINE#         122
  C:6939H         LINE#         123
  C:693DH         LINE#         124
  C:6947H         LINE#         125
  C:6950H         LINE#         127
  C:6952H         LINE#         128
  C:695EH         LINE#         129
  C:695EH         LINE#         130
  C:6965H         LINE#         131
  C:6965H         LINE#         132
  C:6965H         LINE#         133
  C:6965H         LINE#         135
  C:6965H         LINE#         136
  C:696DH         LINE#         137
  C:6971H         LINE#         138
  C:6971H         LINE#         139
  C:6979H         LINE#         140
  C:697DH         LINE#         141
  C:6995H         LINE#         142
  C:6995H         LINE#         143
  C:6995H         LINE#         144
  C:6997H         LINE#         146
  C:6997H         LINE#         147
  C:69ABH         LINE#         148
  C:69B1H         LINE#         149
  C:69BBH         LINE#         150
  C:69BBH         LINE#         152
  C:69BBH         LINE#         153
  C:69C4H         LINE#         154
  C:69C4H         LINE#         155
  C:69D6H         LINE#         156
  C:69D6H         LINE#         158
  C:69D9H         LINE#         159
  C:69DBH         LINE#         161
  C:69DBH         LINE#         163
  C:69E0H         LINE#         165
  C:69E0H         LINE#         167
  C:69E0H         LINE#         168
  C:69E5H         LINE#         169
  -------         ENDPROC       _RECIBE_CMD_MONITOR
  -------         PROC          _VALIDA_TRAMA_MONITOR
  X:0011H         SYMBOL        buffer
  D:0005H         SYMBOL        length_trama
  -------         DO            
  X:0014H         SYMBOL        j
  X:0015H         SYMBOL        p
  X:0016H         SYMBOL        cont
BL51 BANKED LINKER/LOCATER V6.22.2.0                                                  09/14/2021  15:59:56  PAGE 137


  -------         ENDDO         
  C:934AH         LINE#         175
  C:9355H         LINE#         176
  C:9355H         LINE#         177
  C:9358H         LINE#         178
  C:935CH         LINE#         179
  C:935FH         LINE#         180
  C:9361H         LINE#         183
  C:9375H         LINE#         184
  C:9375H         LINE#         186
  C:9377H         LINE#         188
  C:937EH         LINE#         189
  C:9383H         LINE#         191
  C:9383H         LINE#         193
  C:939EH         LINE#         194
  C:939EH         LINE#         197
  C:939EH         LINE#         198
  C:93BFH         LINE#         199
  C:93C3H         LINE#         200
  C:93C9H         LINE#         201
  C:93DBH         LINE#         202
  C:93F3H         LINE#         203
  C:93FCH         LINE#         204
  C:93FEH         LINE#         205
  C:9404H         LINE#         206
  C:9406H         LINE#         208
  C:9406H         LINE#         211
  -------         ENDPROC       _VALIDA_TRAMA_MONITOR
  -------         PROC          CLEAR_PLACA
  -------         DO            
  D:0007H         SYMBOL        i
  -------         ENDDO         
  C:BD38H         LINE#         212
  C:BD38H         LINE#         213
  C:BD38H         LINE#         215
  C:BD44H         LINE#         216
  C:BD44H         LINE#         217
  C:BD4AH         LINE#         218
  C:BD4DH         LINE#         219
  C:BD4FH         LINE#         220
  C:BD51H         LINE#         221
  -------         ENDPROC       CLEAR_PLACA
  -------         PROC          RX_MONITOR
  -------         DO            
  X:0003H         SYMBOL        Length_trama
  X:0004H         SYMBOL        buffer1
  -------         ENDDO         
  C:B936H         LINE#         222
  C:B936H         LINE#         223
  C:B936H         LINE#         226
  C:B93BH         LINE#         227
  C:B94AH         LINE#         228
  C:B953H         LINE#         229
  C:B961H         LINE#         230
  -------         ENDPROC       RX_MONITOR
  -------         ENDMOD        MONITOR

BL51 BANKED LINKER/LOCATER V6.22.2.0                                                  09/14/2021  15:59:56  PAGE 138


  -------         MODULE        ?C?FPADD
  C:145DH         PUBLIC        ?C?FPADD
  C:1459H         PUBLIC        ?C?FPSUB
  -------         ENDMOD        ?C?FPADD

  -------         MODULE        ?C?FPMUL
  C:154EH         PUBLIC        ?C?FPMUL
  -------         ENDMOD        ?C?FPMUL

  -------         MODULE        ?C?FCAST
  C:165EH         PUBLIC        ?C?FCASTC
  C:1659H         PUBLIC        ?C?FCASTI
  C:1654H         PUBLIC        ?C?FCASTL
  -------         ENDMOD        ?C?FCAST

  -------         MODULE        ?C?CASTF
  C:1692H         PUBLIC        ?C?CASTF
  -------         ENDMOD        ?C?CASTF

  -------         MODULE        PRINTF
  X:0077H         PUBLIC        ?_PRINTF?BYTE
  X:0077H         PUBLIC        ?_SPRINTF?BYTE
  C:3DF0H         PUBLIC        _PRINTF
  C:3DEAH         PUBLIC        _SPRINTF
  -------         ENDMOD        PRINTF

  -------         MODULE        POW
  X:0024H         PUBLIC        ?_pow?BYTE
  C:65E6H         PUBLIC        _pow
  -------         ENDMOD        POW

  -------         MODULE        ?C?CHKFLOAT
  C:1713H         PUBLIC        ?C?CHKFLOAT
  -------         ENDMOD        ?C?CHKFLOAT

  -------         MODULE        ?C?FPCMP
  C:172FH         PUBLIC        ?C?FPCMP
  C:172DH         PUBLIC        ?C?FPCMP3
  -------         ENDMOD        ?C?FPCMP

  -------         MODULE        ?C?FPNEG
  C:17A6H         PUBLIC        ?C?FPNEG
  -------         ENDMOD        ?C?FPNEG

  -------         MODULE        ?C?FPROUND
  C:17B7H         PUBLIC        ?C?FPROUND
  -------         ENDMOD        ?C?FPROUND

  -------         MODULE        ?C?FPCONVERT
  C:17F4H         PUBLIC        ?C?FPCONVERT
  -------         ENDMOD        ?C?FPCONVERT

  -------         MODULE        EXP
  C:9CC6H         PUBLIC        _EXP
  -------         ENDMOD        EXP

  -------         MODULE        LOG
BL51 BANKED LINKER/LOCATER V6.22.2.0                                                  09/14/2021  15:59:56  PAGE 139


  C:72A5H         PUBLIC        _LOG
  C:72A1H         PUBLIC        _LOG10
  -------         ENDMOD        LOG

  -------         MODULE        ?C?FPDIV
  C:18FCH         PUBLIC        ?C?FPDIV
  -------         ENDMOD        ?C?FPDIV

  -------         MODULE        ?C?FTNPWR
  C:19C9H         PUBLIC        ?C?FTNPWR
  -------         ENDMOD        ?C?FTNPWR

  -------         MODULE        ?C?COPY
  C:1B26H         PUBLIC        ?C?COPY
  -------         ENDMOD        ?C?COPY

  -------         MODULE        ?C?CLDPTR
  C:1B4CH         PUBLIC        ?C?CLDPTR
  -------         ENDMOD        ?C?CLDPTR

  -------         MODULE        ?C?CLDOPTR
  C:1B65H         PUBLIC        ?C?CLDOPTR
  -------         ENDMOD        ?C?CLDOPTR

  -------         MODULE        ?C?CSTPTR
  C:1B92H         PUBLIC        ?C?CSTPTR
  -------         ENDMOD        ?C?CSTPTR

  -------         MODULE        ?C?CSTOPTR
  C:1BA4H         PUBLIC        ?C?CSTOPTR
  -------         ENDMOD        ?C?CSTOPTR

  -------         MODULE        ?C?IMUL
  C:1BC6H         PUBLIC        ?C?IMUL
  -------         ENDMOD        ?C?IMUL

  -------         MODULE        ?C?IILDX
  C:1BD8H         PUBLIC        ?C?IILDX
  -------         ENDMOD        ?C?IILDX

  -------         MODULE        ?C?LNEG
  C:1BEEH         PUBLIC        ?C?LNEG
  -------         ENDMOD        ?C?LNEG

  -------         MODULE        ?C?SLCMP
  C:1BFCH         PUBLIC        ?C?SLCMP
  -------         ENDMOD        ?C?SLCMP

  -------         MODULE        ?C?ULCMP
  C:1C12H         PUBLIC        ?C?ULCMP
  -------         ENDMOD        ?C?ULCMP

  -------         MODULE        ?C?ULSHR
  C:1C23H         PUBLIC        ?C?ULSHR
  -------         ENDMOD        ?C?ULSHR

  -------         MODULE        ?C?LSHL
BL51 BANKED LINKER/LOCATER V6.22.2.0                                                  09/14/2021  15:59:56  PAGE 140


  C:1C36H         PUBLIC        ?C?LSHL
  -------         ENDMOD        ?C?LSHL

  -------         MODULE        ?C?LLDCODE
  C:1C49H         PUBLIC        ?C?LLDCODE
  -------         ENDMOD        ?C?LLDCODE

  -------         MODULE        ?C?LLDXDATA0
  C:1C59H         PUBLIC        ?C?LLDXDATA0
  -------         ENDMOD        ?C?LLDXDATA0

  -------         MODULE        ?C?LLDCODE0
  C:1C65H         PUBLIC        ?C?LLDCODE0
  -------         ENDMOD        ?C?LLDCODE0

  -------         MODULE        ?C?LSTXDATA
  C:1C75H         PUBLIC        ?C?LSTXDATA
  -------         ENDMOD        ?C?LSTXDATA

  -------         MODULE        ?C?LSTKXDATA
  C:1C81H         PUBLIC        ?C?LSTKXDATA
  -------         ENDMOD        ?C?LSTKXDATA

  -------         MODULE        ?C?PLDIXDATA
  C:1CB2H         PUBLIC        ?C?PLDIXDATA
  -------         ENDMOD        ?C?PLDIXDATA

  -------         MODULE        ?C?PSTXDATA
  C:1CC9H         PUBLIC        ?C?PSTXDATA
  -------         ENDMOD        ?C?PSTXDATA

  -------         MODULE        ?C?CCASE
  C:1CD2H         PUBLIC        ?C?CCASE
  -------         ENDMOD        ?C?CCASE

  -------         MODULE        STRCAT
  X:0046H         PUBLIC        ?_strcat?BYTE
  C:AC61H         PUBLIC        _strcat
  -------         ENDMOD        STRCAT

  -------         MODULE        ?C?STRCMP
  C:1E76H         PUBLIC        ?C?STRCMP
  -------         ENDMOD        ?C?STRCMP

  -------         MODULE        ?C?STRCPY
  C:1F5FH         PUBLIC        ?C?STRCPY
  -------         ENDMOD        ?C?STRCPY

  -------         MODULE        STRLEN
  C:000EH         PUBLIC        _STRLEN
  -------         ENDMOD        STRLEN

  -------         MODULE        STRTOK
  X:0064H         PUBLIC        ?_strtok?BYTE
  C:84C1H         PUBLIC        _strtok
  -------         ENDMOD        STRTOK

BL51 BANKED LINKER/LOCATER V6.22.2.0                                                  09/14/2021  15:59:56  PAGE 141


  -------         MODULE        ATOL
  C:780AH         PUBLIC        _atol
  -------         ENDMOD        ATOL

  -------         MODULE        ATOI
  C:875FH         PUBLIC        _atoi
  -------         ENDMOD        ATOI

  -------         MODULE        ?C?ILDIX
  C:1F7CH         PUBLIC        ?C?ILDIX
  -------         ENDMOD        ?C?ILDIX

  -------         MODULE        ?C?LMUL
  C:1F92H         PUBLIC        ?C?LMUL
  -------         ENDMOD        ?C?LMUL

  -------         MODULE        ISDIGIT
  C:BE59H         PUBLIC        _isdigit
  -------         ENDMOD        ISDIGIT

  -------         MODULE        ISSPACE
  C:BDA9H         PUBLIC        _isspace
  -------         ENDMOD        ISSPACE

  -------         MODULE        STRSPN
  X:006AH         PUBLIC        ?_strspn?BYTE
  C:A67EH         PUBLIC        _strspn
  -------         ENDMOD        STRSPN

  -------         MODULE        STRPBRK
  X:006AH         PUBLIC        ?_strpbrk?BYTE
  C:A888H         PUBLIC        _strpbrk
  -------         ENDMOD        STRPBRK

Program Size: data=99.1 xdata=543 code=48865
LINK/LOCATE RUN COMPLETE.  0 WARNING(S),  0 ERROR(S)
