BL51 BANKED LINKER/LOCATER V6.22.2.0                                                    09/07/2021  11:24:22  PAGE 1


BL51 BANKED LINKER/LOCATER V6.22.2.0, INVOKED BY:
C:\KEIL_V5\C51\BIN\BL51.EXE .\Objects\main.obj, .\Objects\Accescan.obj, .\Objects\Clock.obj, .\Objects\delay.obj, .\Obje
>> cts\eeprom.obj, .\Objects\io_sensores.obj, .\Objects\pantallas.obj, .\Objects\prog.obj, .\Objects\pto_paralelo.obj, .
>> \Objects\tibbo.obj, .\Objects\uart.obj, .\Objects\lintech.obj, .\Objects\verificador.obj, .\Objects\Monitor.obj TO .\
>> Objects\expedidor_v_101 PRINT (.\Listings\expedidor_v_101.m51) RAMSIZE (256)


MEMORY MODEL: LARGE WITH FLOATING POINT ARITHMETIC


INPUT MODULES INCLUDED:
  .\Objects\main.obj (MAIN)
  .\Objects\Accescan.obj (ACCESCAN)
  .\Objects\Clock.obj (CLOCK)
  .\Objects\delay.obj (DELAY)
  .\Objects\eeprom.obj (EEPROM)
  .\Objects\io_sensores.obj (IO_SENSORES)
  .\Objects\pantallas.obj (PANTALLAS)
  .\Objects\prog.obj (PROG)
  .\Objects\pto_paralelo.obj (PTO_PARALELO)
  .\Objects\tibbo.obj (TIBBO)
  .\Objects\uart.obj (UART)
  .\Objects\lintech.obj (LINTECH)
  .\Objects\verificador.obj (VERIFICADOR)
  .\Objects\Monitor.obj (MONITOR)
  C:\KEIL_V5\C51\LIB\C51FPL.LIB (?C?FPADD)
  C:\KEIL_V5\C51\LIB\C51FPL.LIB (?C?FPMUL)
  C:\KEIL_V5\C51\LIB\C51FPL.LIB (?C?FCAST)
  C:\KEIL_V5\C51\LIB\C51FPL.LIB (?C?CASTF)
  C:\KEIL_V5\C51\LIB\C51FPL.LIB (PRINTF)
  C:\KEIL_V5\C51\LIB\C51FPL.LIB (POW)
  C:\KEIL_V5\C51\LIB\C51FPL.LIB (?C?FPGETOPN)
  C:\KEIL_V5\C51\LIB\C51FPL.LIB (?C?CHKFLOAT)
  C:\KEIL_V5\C51\LIB\C51FPL.LIB (?C?FPCMP)
  C:\KEIL_V5\C51\LIB\C51FPL.LIB (?C?FPNEG)
  C:\KEIL_V5\C51\LIB\C51FPL.LIB (?C?FPROUND)
  C:\KEIL_V5\C51\LIB\C51FPL.LIB (?C?FPCONVERT)
  C:\KEIL_V5\C51\LIB\C51FPL.LIB (EXP)
  C:\KEIL_V5\C51\LIB\C51FPL.LIB (LOG)
  C:\KEIL_V5\C51\LIB\C51FPL.LIB (?C?FPDIV)
  C:\KEIL_V5\C51\LIB\C51FPL.LIB (?C?FTNPWR)
  C:\KEIL_V5\C51\LIB\C51FPL.LIB (?C?FPSERIES)
  C:\KEIL_V5\C51\LIB\C51L.LIB (?C_STARTUP)
  C:\KEIL_V5\C51\LIB\C51L.LIB (?C?COPY)
  C:\KEIL_V5\C51\LIB\C51L.LIB (?C?CLDPTR)
  C:\KEIL_V5\C51\LIB\C51L.LIB (?C?CLDOPTR)
  C:\KEIL_V5\C51\LIB\C51L.LIB (?C?CSTPTR)
  C:\KEIL_V5\C51\LIB\C51L.LIB (?C?CSTOPTR)
  C:\KEIL_V5\C51\LIB\C51L.LIB (?C?IMUL)
  C:\KEIL_V5\C51\LIB\C51L.LIB (?C?IILDX)
  C:\KEIL_V5\C51\LIB\C51L.LIB (?C?LNEG)
  C:\KEIL_V5\C51\LIB\C51L.LIB (?C?SLCMP)
  C:\KEIL_V5\C51\LIB\C51L.LIB (?C?ULCMP)
  C:\KEIL_V5\C51\LIB\C51L.LIB (?C?ULSHR)
  C:\KEIL_V5\C51\LIB\C51L.LIB (?C?LSHL)
  C:\KEIL_V5\C51\LIB\C51L.LIB (?C?LLDCODE)
  C:\KEIL_V5\C51\LIB\C51L.LIB (?C?LLDXDATA0)
  C:\KEIL_V5\C51\LIB\C51L.LIB (?C?LLDCODE0)
BL51 BANKED LINKER/LOCATER V6.22.2.0                                                  09/07/2021  11:24:22  PAGE 2


  C:\KEIL_V5\C51\LIB\C51L.LIB (?C?LSTXDATA)
  C:\KEIL_V5\C51\LIB\C51L.LIB (?C?LSTKXDATA)
  C:\KEIL_V5\C51\LIB\C51L.LIB (?C?PLDIXDATA)
  C:\KEIL_V5\C51\LIB\C51L.LIB (?C?PSTXDATA)
  C:\KEIL_V5\C51\LIB\C51L.LIB (?C?CCASE)
  C:\KEIL_V5\C51\LIB\C51L.LIB (STRCAT)
  C:\KEIL_V5\C51\LIB\C51L.LIB (?C?STRCMP)
  C:\KEIL_V5\C51\LIB\C51L.LIB (?C?STRCPY)
  C:\KEIL_V5\C51\LIB\C51L.LIB (STRLEN)
  C:\KEIL_V5\C51\LIB\C51L.LIB (STRTOK)
  C:\KEIL_V5\C51\LIB\C51L.LIB (ATOL)
  C:\KEIL_V5\C51\LIB\C51L.LIB (ATOI)
  C:\KEIL_V5\C51\LIB\C51L.LIB (?C_INIT)
  C:\KEIL_V5\C51\LIB\C51L.LIB (?C?ILDIX)
  C:\KEIL_V5\C51\LIB\C51L.LIB (?C?LMUL)
  C:\KEIL_V5\C51\LIB\C51L.LIB (ISDIGIT)
  C:\KEIL_V5\C51\LIB\C51L.LIB (ISSPACE)
  C:\KEIL_V5\C51\LIB\C51L.LIB (STRSPN)
  C:\KEIL_V5\C51\LIB\C51L.LIB (STRPBRK)


LINK MAP OF MODULE:  .\Objects\expedidor_v_101 (MAIN)


            TYPE    BASE      LENGTH    RELOCATION   SEGMENT NAME
            -----------------------------------------------------

            * * * * * * *   D A T A   M E M O R Y   * * * * * * *
            REG     0000H     0008H     ABSOLUTE     "REG BANK 0"
            DATA    0008H     0005H     UNIT         _DATA_GROUP_
            DATA    000DH     0004H     UNIT         ?DT?UART
            IDATA   0011H     0009H     UNIT         ?ID?MONITOR
                    001AH     0006H                  *** GAP ***
            BIT     0020H.0   0001H.1   UNIT         _BIT_GROUP_
            BIT     0021H.1   0000H.3   UNIT         ?BI?MAIN
            BIT     0021H.4   0000H.2   UNIT         ?BI?UART
            BIT     0021H.6   0000H.1   UNIT         ?BI?EEPROM
            BIT     0021H.7   0000H.1   UNIT         ?BI?IO_SENSORES
            BIT     0022H.0   0000H.1   UNIT         ?BI?VERIFICADOR
                    0022H.1   0000H.7                *** GAP ***
            IDATA   0023H     0046H     UNIT         ?ID?MAIN
            IDATA   0069H     0001H     UNIT         ?STACK

            * * * * * * *  X D A T A   M E M O R Y  * * * * * * *
            XDATA   0000H     00B7H     UNIT         _XDATA_GROUP_
            XDATA   00B7H     0091H     UNIT         ?XD?VERIFICADOR
            XDATA   0148H     006EH     UNIT         ?XD?MAIN
            XDATA   01B6H     005CH     UNIT         ?XD?PROG
            XDATA   0212H     0003H     UNIT         ?XD?EEPROM
            XDATA   0215H     0003H     UNIT         ?XD?UART
            XDATA   0218H     0003H     UNIT         ?XD?STRTOK
            XDATA   021BH     0002H     UNIT         ?XD?IO_SENSORES
            XDATA   021DH     0001H     UNIT         ?XD?ACCESCAN
            XDATA   021EH     0001H     UNIT         ?XD?CLOCK

            * * * * * * *   C O D E   M E M O R Y   * * * * * * *
            CODE    0000H     0003H     ABSOLUTE     
BL51 BANKED LINKER/LOCATER V6.22.2.0                                                  09/07/2021  11:24:22  PAGE 3


            CODE    0003H     0008H     UNIT         ?PR?P_CK?CLOCK
            CODE    000BH     0003H     ABSOLUTE     
            CODE    000EH     0015H     UNIT         ?PR?_STRLEN?STRLEN
            CODE    0023H     0003H     ABSOLUTE     
            CODE    0026H     1430H     UNIT         ?CO?PROG
            CODE    1456H     0B8BH     UNIT         ?C?LIB_CODE
            CODE    1FE1H     06EFH     UNIT         ?CO?PANTALLAS
            CODE    26D0H     0690H     UNIT         ?CO?VERIFICADOR
            CODE    2D60H     062CH     UNIT         ?PR?_PANTALLALCD?PANTALLAS
            CODE    338CH     0532H     UNIT         ?PR?_VALIDA_TRAMA_PTO?ACCESCAN
            CODE    38BEH     04D6H     UNIT         ?PR?_SECUENCIAEXPEDIDORMF?VERIFICADOR
            CODE    3D94H     0483H     UNIT         ?PR?PRINTF?PRINTF
            CODE    4217H     03C8H     UNIT         ?PR?VER_PROG?PROG
            CODE    45DFH     02D0H     UNIT         ?PR?_TWO_BYTEHEX_DECIMAL?CLOCK
            CODE    48AFH     02B7H     UNIT         ?PR?_PROG_HORARIO_DIAS?PROG
            CODE    4B66H     02A5H     UNIT         ?PR?_PANTALLALCD_LINEA_2?PANTALLAS
            CODE    4E0BH     02A3H     UNIT         ?PR?_ARMAR_TRAMA_MONITOR?VERIFICADOR
            CODE    50AEH     0256H     UNIT         ?PR?_ARMAR_TRAMA_PTO_PARALELO_EXPEDIDOR?VERIFICADOR
            CODE    5304H     0254H     UNIT         ?PR?MENU?PROG
            CODE    5558H     0208H     UNIT         ?PR?_HASH_ID?PROG
            CODE    5760H     01FAH     UNIT         ?PR?_PROG_HORARIO_DESDE_HASTA?PROG
            CODE    595AH     01F5H     UNIT         ?PR?PROG_FECHA_VENCIMIENTO?PROG
            CODE    5B4FH     01F5H     UNIT         ?PR?COM_ISR?UART
            CODE    5D44H     01EBH     UNIT         ?PR?_ARMAR_TRAMA_TARJETA_SECTOR1_BLOQUE2?VERIFICADOR
            CODE    5F2FH     01DDH     UNIT         ?PR?_RESPONDE_LECTURA_TARJETA_SECTOR1_BLOQUE1?VERIFICADOR
            CODE    610CH     01D8H     UNIT         ?PR?_BLOCK_READ_CLOCK_ASCII_RASBERRY?CLOCK
            CODE    62E4H     01A3H     UNIT         ?CO?LINTECH
            CODE    6487H     016EH     UNIT         ?PR?_BLOCK_READ_CLOCK_ASCII?CLOCK
            CODE    65F5H     0166H     UNIT         ?PR?_POW?POW
            CODE    675BH     014FH     UNIT         ?PR?_RESPONDE_REELECTURA_TARJETA_SECTOR1_BLOQUE2?VERIFICADOR
            CODE    68AAH     0145H     UNIT         ?PR?PROG_HORARIOS?PROG
            CODE    69EFH     013EH     UNIT         ?PR?PROG_SIN_COBRO?PROG
            CODE    6B2DH     013EH     UNIT         ?PR?SECUENCIA_INICIO_EXPEDIDOR?VERIFICADOR
            CODE    6C6BH     013CH     UNIT         ?PR?LOAD_AND_SEND_ID_COD?PTO_PARALELO
            CODE    6DA7H     0137H     UNIT         ?PR?VER_HORARIO?PROG
            CODE    6EDEH     012EH     UNIT         ?PR?_ARMAR_TRAMA_PTO_PARALELO_EXPEDIDOR_MENSUAL?VERIFICADOR
            CODE    700CH     0129H     UNIT         ?PR?_RESPONDE_LECTURA_TARJETA_SECTOR1_BLOQUE2?VERIFICADOR
            CODE    7135H     0129H     UNIT         ?PR?LOG?LOG
            CODE    725EH     0128H     UNIT         ?PR?_VER_HORARIO_DIAS?PROG
            CODE    7386H     011AH     UNIT         ?PR?_PROG_HORARIOS_ON_OFF?PROG
            CODE    74A0H     0119H     UNIT         ?PR?_VER_HORARIO_DESDE_HASTA?PROG
            CODE    75B9H     0115H     UNIT         ?PR?_VALIDAR_CLK?CLOCK
            CODE    76CEH     010CH     UNIT         ?PR?_ATOL?ATOL
            CODE    77DAH     0100H     UNIT         ?PR?_WR_MF?LINTECH
            CODE    78DAH     00FCH     UNIT         ?PR?PROG_DEBUG?PROG
            CODE    79D6H     00FCH     UNIT         ?PR?PROG_USE_LPR?PROG
            CODE    7AD2H     00FCH     UNIT         ?PR?TIPO_PANTALLA?PROG
            CODE    7BCEH     00FCH     UNIT         ?PR?PROG_ANTIPASSBACK?PROG
            CODE    7CCAH     00FCH     UNIT         ?PR?PROG_PLACA?PROG
            CODE    7DC6H     00FCH     UNIT         ?PR?PROG_VALIDAR_TIPO_VEHICULO_MENSUAL?PROG
            CODE    7EC2H     00FCH     UNIT         ?PR?PROG_APB_MENSUAL?PROG
            CODE    7FBEH     00FCH     UNIT         ?PR?PROG_MENSUALES?PROG
            CODE    80BAH     00F1H     UNIT         ?PR?_WRITE_EEPROM_TICKET?EEPROM
            CODE    81ABH     00F0H     UNIT         ?CO?IO_SENSORES
            CODE    829BH     00EAH     UNIT         ?PR?_MOV_CARD?LINTECH
            CODE    8385H     00E4H     UNIT         ?PR?_STRTOK?STRTOK
            CODE    8469H     00DEH     UNIT         ?PR?PROG_ADDRESS_HIGH_BOARD?PROG
BL51 BANKED LINKER/LOCATER V6.22.2.0                                                  09/07/2021  11:24:22  PAGE 4


            CODE    8547H     00DCH     UNIT         ?PR?_RTA_CMD_TRANSPORTE?VERIFICADOR
            CODE    8623H     00DBH     UNIT         ?PR?_ATOI?ATOI
            CODE    86FEH     00DAH     UNIT         ?C_INITSEG
            CODE    87D8H     00DAH     UNIT         ?PR?_VALIDA_TIPO_TARJETA?VERIFICADOR
            CODE    88B2H     00D7H     UNIT         ?PR?_ANALIZA_UID_CARD?VERIFICADOR
            CODE    8989H     00D6H     UNIT         ?PR?_CMD_LPR_SALIDA_WIEGAND?ACCESCAN
            CODE    8A5FH     00CFH     UNIT         ?PR?_RECIBE_CMD_MONITOR?MONITOR
            CODE    8B2EH     00CCH     UNIT         ?PR?_GRABA_SERIE?EEPROM
            CODE    8BFAH     00CAH     UNIT         ?PR?READ_EEPROM_TICKET?EEPROM
            CODE    8CC4H     00C9H     UNIT         ?PR?_CHECK_FECHAOUT?CLOCK
            CODE    8D8DH     00C4H     UNIT         ?PR?_BLOCK_READ_CLOCK?CLOCK
            CODE    8E51H     00C3H     UNIT         ?PR?_RD_MF?LINTECH
            CODE    8F14H     00C2H     UNIT         ?PR?PROG_TARJETA_AUTOMATICA_O_BOTON?PROG
            CODE    8FD6H     00BEH     UNIT         ?PR?ERROR_RX_PTO?VERIFICADOR
            CODE    9094H     00BDH     UNIT         ?PR?PROG_COD_PARK?PROG
            CODE    9151H     00BDH     UNIT         ?PR?PROG_TIEMPO_GRACIA?PROG
            CODE    920EH     00BDH     UNIT         ?PR?_VALIDA_TRAMA_MONITOR?MONITOR
            CODE    92CBH     00B9H     UNIT         ?CO?TIBBO
            CODE    9384H     00B9H     UNIT         ?PR?_DWLOAD_EEPROM_PROG?LINTECH
            CODE    943DH     00B6H     UNIT         ?PR?PROG_ID_CLIENTE?PROG
            CODE    94F3H     00B2H     UNIT         ?PR?_SEND_PORT?PTO_PARALELO
            CODE    95A5H     00AFH     UNIT         ?PR?MSJ_LCD_INFORMATIVO?IO_SENSORES
            CODE    9654H     00AAH     UNIT         ?PR?CLAVE_SEGURIDAD_S2?LINTECH
            CODE    96FEH     00A9H     UNIT         ?PR?DWLOAD_EEPROM?LINTECH
            CODE    97A7H     00A6H     UNIT         ?PR?_BLOCK_READ_CLOCK_HEX?CLOCK
            CODE    984DH     00A5H     UNIT         ?PR?_SEND_PTO_PARALELO?VERIFICADOR
            CODE    98F2H     00A2H     UNIT         ?PR?SHOW?PROG
            CODE    9994H     00A1H     UNIT         ?PR?_BLOCK_WRITE_CLOCK_ASCII?CLOCK
            CODE    9A35H     009EH     UNIT         ?PR?INGRESO_VEHICULO?VERIFICADOR
            CODE    9AD3H     009DH     UNIT         ?PR?_INICIALIZA?LINTECH
            CODE    9B70H     009BH     UNIT         ?PR?ENTREGA_CARD_CAPTURA?VERIFICADOR
            CODE    9C0BH     009AH     UNIT         ?PR?EXP?EXP
            CODE    9CA5H     0099H     UNIT         ?PR?_RECIBE_PORT?PTO_PARALELO
            CODE    9D3EH     0098H     UNIT         ?PR?_RESPONDE_LECTURA_TARJETA_SECTOR1_BLOQUE0?VERIFICADOR
            CODE    9DD6H     0091H     UNIT         ?PR?_HEX_ASCII?CLOCK
            CODE    9E67H     0091H     UNIT         ?PR?_CARD_INSERCION?LINTECH
            CODE    9EF8H     0090H     UNIT         ?PR?_LEE_CLK?CLOCK
            CODE    9F88H     0090H     UNIT         ?PR?_GETOPTION?PROG
            CODE    A018H     0090H     UNIT         ?PR?_DISPARO_LOCK_ENTRADA_VEHICULO?VERIFICADOR
            CODE    A0A8H     008DH     UNIT         ?PR?LOADVERIFY_EEPROM?LINTECH
            CODE    A135H     008DH     UNIT         ?PR?WAIT_PLACA?VERIFICADOR
            CODE    A1C2H     008CH     UNIT         ?C_C51STARTUP
            CODE    A24EH     0088H     UNIT         ?PR?_SEND_PORTERR?PTO_PARALELO
            CODE    A2D6H     0088H     UNIT         ?PR?RX_DATA?TIBBO
            CODE    A35EH     0088H     UNIT         ?PR?UNIQUE_IDENTIFIER_UID?LINTECH
            CODE    A3E6H     0087H     UNIT         ?PR?_RESPONDE_WRITE_TARJETA_SECTOR1_BLOQUE2?VERIFICADOR
            CODE    A46DH     0086H     UNIT         ?PR?_CHECK_STATUS?LINTECH
            CODE    A4F3H     0084H     UNIT         ?PR?_DEBUGBUFFERMF?TIBBO
            CODE    A577H     0084H     UNIT         ?PR?_ARMAR_TRAMA_PLACA?VERIFICADOR
            CODE    A5FBH     0084H     UNIT         ?PR?_STRSPN?STRSPN
            CODE    A67FH     0083H     UNIT         ?PR?_RASPBERRY_DATA?PANTALLAS
            CODE    A702H     0082H     UNIT         ?PR?RESPONDE_TIPO_TARJETA?VERIFICADOR
            CODE    A784H     0081H     UNIT         ?PR?MAIN?MAIN
            CODE    A805H     0081H     UNIT         ?PR?_STRPBRK?STRPBRK
            CODE    A886H     0080H     UNIT         ?PR?_INGRESADATO?PROG
            CODE    A906H     0080H     UNIT         ?PR?AUT_CARD_CHECK_STATUS?LINTECH
            CODE    A986H     0080H     UNIT         ?PR?POWER_OFF?LINTECH
BL51 BANKED LINKER/LOCATER V6.22.2.0                                                  09/07/2021  11:24:22  PAGE 5


            CODE    AA06H     007DH     UNIT         ?PR?RELOJ_PANTALLA_LCD?PANTALLAS
            CODE    AA83H     0078H     UNIT         ?PR?RESPONDE_ESTADO_SENSORES_TRANSPORTE?VERIFICADOR
            CODE    AAFBH     0075H     UNIT         ?PR?RESPUESTA_PLACA_CANCEL?VERIFICADOR
            CODE    AB70H     0074H     UNIT         ?PR?_HORA_ENTRADA_VEHICULO?CLOCK
            CODE    ABE4H     006FH     UNIT         ?PR?_ESCRIBIRMEMORIA?EEPROM
            CODE    AC53H     006BH     UNIT         ?PR?_STRCAT?STRCAT
            CODE    ACBEH     0066H     UNIT         ?PR?_LEERMEMORIA?EEPROM
            CODE    AD24H     0062H     UNIT         ?PR?_LISTACOMANDOS?PROG
            CODE    AD86H     005EH     UNIT         ?PR?_BYTEHEX_DECIMAL?CLOCK
            CODE    ADE4H     005DH     UNIT         ?PR?_PREGUNTA_LPR?VERIFICADOR
            CODE    AE41H     005DH     UNIT         ?PR?_RESPUESTA_SEGUNDA_CLAVE?VERIFICADOR
            CODE    AE9EH     005BH     UNIT         ?PR?VALIDA_SENSOR1_AUTO?IO_SENSORES
            CODE    AEF9H     0057H     UNIT         ?PR?FORMATO_EEPROM?EEPROM
            CODE    AF50H     0056H     UNIT         ?PR?_WR_EEPROM?EEPROM
            CODE    AFA6H     004FH     UNIT         ?PR?_DEBUG_BUFFER_RS232_LCD?TIBBO
            CODE    AFF5H     004DH     UNIT         ?PR?VARIABLE_INICIO?MAIN
            CODE    B042H     004DH     UNIT         ?PR?L_D_M?EEPROM
            CODE    B08FH     004CH     UNIT         ?PR?LEE_NO_TICKET?EEPROM
            CODE    B0DBH     004CH     UNIT         ?PR?LOAD_AND_SEND_INFO_RELOJ?PTO_PARALELO
            CODE    B127H     004BH     UNIT         ?PR?_TX_AUX?TIBBO
            CODE    B172H     0049H     UNIT         ?PR?_DEBUG_TXT_TIBBO?TIBBO
            CODE    B1BBH     0048H     UNIT         ?PR?FIRST_CLAVE?PROG
            CODE    B203H     0047H     UNIT         ?PR?_DEBUG_CHR_TIBBO?TIBBO
            CODE    B24AH     0047H     UNIT         ?PR?_DEBUG_CHR_RS232_LCD?TIBBO
            CODE    B291H     0047H     UNIT         ?PR?_RESPONDE_WRITE_TARJETA_SECTOR2_BLOQUE0?VERIFICADOR
            CODE    B2D8H     0046H     UNIT         ?PR?_ESCRIBIRCADENASOFT_BUFFER?MAIN
            CODE    B31EH     0046H     UNIT         ?PR?_LCD_TXT_NUM_CHAR?PANTALLAS
            CODE    B364H     0046H     UNIT         ?PR?_DEBUG_HEXDEC?TIBBO
            CODE    B3AAH     0044H     UNIT         ?PR?_LCD_TXT?PANTALLAS
            CODE    B3EEH     0043H     UNIT         ?PR?DIR_BOARD?IO_SENSORES
            CODE    B431H     0042H     UNIT         ?CO?EEPROM
            CODE    B473H     0042H     UNIT         ?PR?_VALIDARCLAVE?PROG
            CODE    B4B5H     0041H     UNIT         ?PR?_MONITOR_CHR?ACCESCAN
            CODE    B4F6H     0041H     UNIT         ?PR?_TWO_ONE?CLOCK
            CODE    B537H     0040H     UNIT         ?PR?_GETCMD?PROG
            CODE    B577H     0040H     UNIT         ?PR?_DEBUG_PTO_PARALELO?TIBBO
            CODE    B5B7H     003FH     UNIT         ?PR?_EB_CLK?CLOCK
            CODE    B5F6H     003EH     UNIT         ?PR?_PUTCHAR?MAIN
            CODE    B634H     003EH     UNIT         ?PR?COM_BAUDRATE?UART
            CODE    B672H     003EH     UNIT         ?PR?TRAMA_VALIDACION_P_N?VERIFICADOR
            CODE    B6B0H     003DH     UNIT         ?PR?_HEX_BCD?CLOCK
            CODE    B6EDH     003DH     UNIT         ?PR?_RD_EEPROM?EEPROM
            CODE    B72AH     003DH     UNIT         ?PR?_DEBUG_MONITOR?TIBBO
            CODE    B767H     003DH     UNIT         ?PR?_LOAD_SECUENCIA_EXPEDIDOR?VERIFICADOR
            CODE    B7A4H     003CH     UNIT         ?PR?CONFIRMACION?EEPROM
            CODE    B7E0H     003BH     UNIT         ?CO?ACCESCAN
            CODE    B81BH     003BH     UNIT         ?PR?_COM_PUTCHAR?UART
            CODE    B856H     003AH     UNIT         ?PR?_DELAY_10MS?DELAY
            CODE    B890H     0039H     UNIT         ?PR?RX_MONITOR?MONITOR
            CODE    B8C9H     0038H     UNIT         ?PR?VALIDASENSORESPASO?IO_SENSORES
            CODE    B901H     0038H     UNIT         ?PR?_DEBUG_TXT_RS232?TIBBO
            CODE    B939H     0036H     UNIT         ?PR?_RESPONDE_WRITE_TARJETA_SECTOR1_BLOQUE1?VERIFICADOR
            CODE    B96FH     0036H     UNIT         ?PR?_RESPONDE_WRITE_TARJETA_SECTOR1_BLOQUE0?VERIFICADOR
            CODE    B9A5H     0034H     UNIT         ?PR?INCREMENTE_TICKET?EEPROM
            CODE    B9D9H     0034H     UNIT         ?PR?ADDR_HORARIOS?PROG
            CODE    BA0DH     0031H     UNIT         ?PR?_TARJETA_ROTACION?VERIFICADOR
            CODE    BA3EH     0030H     UNIT         ?PR?PREGUNTA_PLACA_HABILITADA?VERIFICADOR
BL51 BANKED LINKER/LOCATER V6.22.2.0                                                  09/07/2021  11:24:22  PAGE 6


            CODE    BA6EH     0030H     UNIT         ?PR?_ARMAR_TRAMA_TARJETA_SECTOR1_BLOQUE0?VERIFICADOR
            CODE    BA9EH     002EH     UNIT         ?PR?TIMER0_INT?MAIN
            CODE    BACCH     002AH     UNIT         ?PR?COM_INITIALIZE?UART
            CODE    BAF6H     002AH     UNIT         ?PR?ANALIZA_PRESENCIA_ROTACION?VERIFICADOR
            CODE    BB20H     0028H     UNIT         ?PR?_WR_CLK?CLOCK
            CODE    BB48H     0027H     UNIT         ?PR?_TX_CHRLCD?PANTALLAS
            CODE    BB6FH     0026H     UNIT         ?PR?COM_GETCHAR?UART
            CODE    BB95H     0022H     UNIT         ?PR?_E_D_M?EEPROM
            CODE    BBB7H     0022H     UNIT         ?PR?VALIDASENSOR_CERO?IO_SENSORES
            CODE    BBD9H     0021H     UNIT         ?CO?PTO_PARALELO
            CODE    BBFAH     0020H     UNIT         ?PR?ACKD?EEPROM
            CODE    BC1AH     0020H     UNIT         ?PR?ACK_LECT?EEPROM
            CODE    BC3AH     001FH     UNIT         ?PR?VALIDASENSOR?IO_SENSORES
            CODE    BC59H     001EH     UNIT         ?PR?_BCD_HEX?CLOCK
            CODE    BC77H     001BH     UNIT         ?PR?_DELAY_1MS?DELAY
            CODE    BC92H     001AH     UNIT         ?PR?CLEAR_PLACA?MONITOR
            CODE    BCACH     0017H     UNIT         ?PR?DISPLAYCURSOR?PROG
            CODE    BCC3H     0016H     UNIT         ?PR?DIR_BOARD_MONITOR?IO_SENSORES
            CODE    BCD9H     0016H     UNIT         ?PR?TIME_BIT?TIBBO
            CODE    BCEFH     0014H     UNIT         ?CO?CLOCK
            CODE    BD03H     0014H     UNIT         ?PR?_ISSPACE?ISSPACE
            CODE    BD17H     0012H     UNIT         ?PR?_DELAY_20US?DELAY
            CODE    BD29H     0012H     UNIT         ?PR?START?EEPROM
            CODE    BD3BH     0012H     UNIT         ?PR?BOTTON?IO_SENSORES
            CODE    BD4DH     0012H     UNIT         ?PR?PULSO_BUS?PTO_PARALELO
            CODE    BD5FH     0012H     UNIT         ?PR?COM_RBUFLEN?UART
            CODE    BD71H     0012H     UNIT         ?PR?COM_TBUFLEN?UART
            CODE    BD83H     0010H     UNIT         ?PR?INI_TIMER?MAIN
            CODE    BD93H     0010H     UNIT         ?PR?INICIA_BOARD?MAIN
            CODE    BDA3H     0010H     UNIT         ?PR?TIME_MBIT?TIBBO
            CODE    BDB3H     000FH     UNIT         ?PR?_ISDIGIT?ISDIGIT
            CODE    BDC2H     000CH     UNIT         ?PR?_GETKEY?MAIN
            CODE    BDCEH     000CH     UNIT         ?PR?COND_INI_PTO?PTO_PARALELO
            CODE    BDDAH     000AH     UNIT         ?PR?STOP?EEPROM
            CODE    BDE4H     0009H     UNIT         ?PR?DEBUG_DIVIDIR_TEXTO?TIBBO
            CODE    BDEDH     0007H     UNIT         ?PR?COND_INI_CLOCK?CLOCK
            CODE    BDF4H     0007H     UNIT         ?PR?SEL_FUNCION?IO_SENSORES
            CODE    BDFBH     0007H     UNIT         ?PR?SEL_AUTO?IO_SENSORES
            CODE    BE02H     0007H     UNIT         ?PR?SEL_PULSA?IO_SENSORES
            CODE    BE09H     0007H     UNIT         ?PR?SEL_SENSOR2?IO_SENSORES
            CODE    BE10H     0007H     UNIT         ?PR?SEL_SENSOR1?IO_SENSORES
            CODE    BE17H     0007H     UNIT         ?PR?SEL_DIR1?IO_SENSORES
            CODE    BE1EH     0007H     UNIT         ?PR?SEL_DIR2?IO_SENSORES
            CODE    BE25H     0006H     UNIT         ?PR?P_ME?EEPROM
            CODE    BE2BH     0005H     UNIT         ?PR?ON_TIMER0_INTERRUP?MAIN
            CODE    BE30H     0005H     UNIT         ?PR?COND_INI_TIBBO?TIBBO
            CODE    BE35H     0003H     UNIT         ?PR?OFF_TIMER0_INTERRUP?MAIN
            CODE    BE38H     0001H     UNIT         ?PR?DELAY?DELAY



OVERLAY MAP OF MODULE:   .\Objects\expedidor_v_101 (MAIN)


SEGMENT                                             BIT_GROUP          DATA_GROUP          XDATA_GROUP
  +--> CALLED SEGMENT                            START    LENGTH     START    LENGTH     START    LENGTH
--------------------------------------------------------------------------------------------------------
BL51 BANKED LINKER/LOCATER V6.22.2.0                                                  09/07/2021  11:24:22  PAGE 7


?C_C51STARTUP                                    -----    -----      -----    -----      -----    -----
  +--> ?PR?MAIN?MAIN
  +--> ?C_INITSEG

?PR?MAIN?MAIN                                    -----    -----      -----    -----      0000H    0001H
  +--> ?PR?INI_TIMER?MAIN
  +--> ?PR?ON_TIMER0_INTERRUP?MAIN
  +--> ?PR?COM_INITIALIZE?UART
  +--> ?PR?COM_BAUDRATE?UART
  +--> ?PR?INICIA_BOARD?MAIN
  +--> ?PR?TIME_BIT?TIBBO
  +--> ?PR?_DELAY_20US?DELAY
  +--> ?PR?TIME_MBIT?TIBBO
  +--> ?PR?_TX_AUX?TIBBO
  +--> ?PR?SEL_FUNCION?IO_SENSORES
  +--> ?PR?MENU?PROG
  +--> ?PR?VARIABLE_INICIO?MAIN
  +--> ?PR?SECUENCIA_INICIO_EXPEDIDOR?VERIFI...
  +--> ?PR?RX_MONITOR?MONITOR
  +--> ?PR?_SECUENCIAEXPEDIDORMF?VERIFICADOR
  +--> ?PR?_RECIBE_PORT?PTO_PARALELO
  +--> ?PR?_DEBUG_PTO_PARALELO?TIBBO
  +--> ?PR?_VALIDA_TRAMA_PTO?ACCESCAN
  +--> ?PR?MSJ_LCD_INFORMATIVO?IO_SENSORES

?PR?COM_INITIALIZE?UART                          -----    -----      -----    -----      -----    -----
  +--> ?PR?COM_BAUDRATE?UART

?PR?COM_BAUDRATE?UART                            -----    -----      -----    -----      -----    -----
  +--> ?PR?_RD_EEPROM?EEPROM

?PR?_RD_EEPROM?EEPROM                            -----    -----      -----    -----      -----    -----
  +--> ?PR?START?EEPROM
  +--> ?PR?ACK_LECT?EEPROM
  +--> ?PR?_E_D_M?EEPROM
  +--> ?PR?ACKD?EEPROM
  +--> ?PR?L_D_M?EEPROM
  +--> ?PR?STOP?EEPROM

?PR?ACK_LECT?EEPROM                              -----    -----      -----    -----      -----    -----
  +--> ?PR?_E_D_M?EEPROM

?PR?_E_D_M?EEPROM                                -----    -----      -----    -----      -----    -----
  +--> ?PR?P_ME?EEPROM

?PR?ACKD?EEPROM                                  -----    -----      -----    -----      -----    -----
  +--> ?PR?_E_D_M?EEPROM

?PR?INICIA_BOARD?MAIN                            -----    -----      -----    -----      -----    -----
  +--> ?PR?COND_INI_TIBBO?TIBBO
  +--> ?PR?COND_INI_CLOCK?CLOCK
  +--> ?PR?COND_INI_PTO?PTO_PARALELO

?PR?COND_INI_PTO?PTO_PARALELO                    -----    -----      -----    -----      -----    -----
  +--> ?PR?CONFIRMACION?EEPROM

?PR?CONFIRMACION?EEPROM                          -----    -----      -----    -----      0011H    000BH
BL51 BANKED LINKER/LOCATER V6.22.2.0                                                  09/07/2021  11:24:22  PAGE 8


  +--> ?PR?_BLOCK_READ_CLOCK_ASCII?CLOCK
  +--> ?PR?FORMATO_EEPROM?EEPROM

?PR?_BLOCK_READ_CLOCK_ASCII?CLOCK                -----    -----      -----    -----      0051H    0003H
  +--> ?PR?_LEE_CLK?CLOCK

?PR?_LEE_CLK?CLOCK                               -----    -----      -----    -----      00B1H    0003H
  +--> ?PR?_DELAY_20US?DELAY
  +--> ?PR?_EB_CLK?CLOCK
  +--> ?PR?P_CK?CLOCK

?PR?_EB_CLK?CLOCK                                -----    -----      -----    -----      00B4H    0003H
  +--> ?PR?P_CK?CLOCK

?PR?P_CK?CLOCK                                   -----    -----      -----    -----      -----    -----
  +--> ?PR?DELAY?DELAY

?PR?FORMATO_EEPROM?EEPROM                        -----    -----      -----    -----      001CH    000AH
  +--> ?PR?_WR_EEPROM?EEPROM
  +--> ?CO?EEPROM
  +--> ?PR?_DWLOAD_EEPROM_PROG?LINTECH

?PR?_WR_EEPROM?EEPROM                            -----    -----      -----    -----      -----    -----
  +--> ?PR?START?EEPROM
  +--> ?PR?ACKD?EEPROM
  +--> ?PR?_E_D_M?EEPROM
  +--> ?PR?STOP?EEPROM
  +--> ?PR?_DELAY_1MS?DELAY
  +--> ?PR?_DELAY_20US?DELAY

?PR?_DELAY_1MS?DELAY                             -----    -----      -----    -----      -----    -----
  +--> ?PR?_DELAY_20US?DELAY

?PR?_DWLOAD_EEPROM_PROG?LINTECH                  -----    -----      -----    -----      0026H    0019H
  +--> ?CO?LINTECH
  +--> ?PR?_DEBUG_TXT_TIBBO?TIBBO

?PR?_DEBUG_TXT_TIBBO?TIBBO                       -----    -----      -----    -----      0064H    0004H
  +--> ?PR?_DEBUG_CHR_TIBBO?TIBBO
  +--> ?CO?TIBBO
  +--> ?PR?_TX_AUX?TIBBO

?PR?_DEBUG_CHR_TIBBO?TIBBO                       -----    -----      -----    -----      -----    -----
  +--> ?PR?_TX_AUX?TIBBO

?PR?_TX_AUX?TIBBO                                -----    -----      -----    -----      -----    -----
  +--> ?PR?TIME_BIT?TIBBO

?PR?MENU?PROG                                    -----    -----      -----    -----      0001H    0045H
  +--> ?CO?PROG
  +--> ?PR?PRINTF?PRINTF
  +--> ?PR?_RD_EEPROM?EEPROM
  +--> ?PR?FIRST_CLAVE?PROG
  +--> ?PR?_WR_EEPROM?EEPROM
  +--> ?PR?_LEERMEMORIA?EEPROM
  +--> ?PR?_HASH_ID?PROG
  +--> ?PR?_INGRESADATO?PROG
BL51 BANKED LINKER/LOCATER V6.22.2.0                                                  09/07/2021  11:24:22  PAGE 9


  +--> ?PR?_GETCMD?PROG
  +--> ?PR?_ESCRIBIRMEMORIA?EEPROM
  +--> ?PR?_VALIDARCLAVE?PROG
  +--> ?PR?DISPLAYCURSOR?PROG
  +--> ?PR?_STRLEN?STRLEN
  +--> ?PR?_GETOPTION?PROG
  +--> ?PR?_STRCAT?STRCAT
  +--> ?PR?_LISTACOMANDOS?PROG
  +--> ?PR?PROG_ID_CLIENTE?PROG
  +--> ?PR?PROG_COD_PARK?PROG
  +--> ?PR?PROG_TIEMPO_GRACIA?PROG
  +--> ?PR?PROG_SIN_COBRO?PROG
  +--> ?PR?PROG_DEBUG?PROG
  +--> ?PR?PROG_USE_LPR?PROG
  +--> ?PR?TIPO_PANTALLA?PROG
  +--> ?PR?PROG_TARJETA_AUTOMATICA_O_BOTON?PROG
  +--> ?PR?PROG_ANTIPASSBACK?PROG
  +--> ?PR?PROG_PLACA?PROG
  +--> ?PR?PROG_ADDRESS_HIGH_BOARD?PROG
  +--> ?PR?PROG_HORARIOS?PROG
  +--> ?PR?PROG_VALIDAR_TIPO_VEHICULO_MENSUA...
  +--> ?PR?PROG_APB_MENSUAL?PROG
  +--> ?PR?PROG_MENSUALES?PROG
  +--> ?PR?VER_PROG?PROG
  +--> ?PR?SHOW?PROG
  +--> ?PR?PROG_FECHA_VENCIMIENTO?PROG

?PR?PRINTF?PRINTF                                0020H.0  0001H.1    0008H    0005H      0077H    0030H
  +--> ?PR?_PUTCHAR?MAIN

?PR?_PUTCHAR?MAIN                                -----    -----      -----    -----      00A7H    0003H
  +--> ?PR?_COM_PUTCHAR?UART

?PR?_COM_PUTCHAR?UART                            -----    -----      -----    -----      00AAH    0001H
  +--> ?PR?COM_TBUFLEN?UART

?PR?FIRST_CLAVE?PROG                             -----    -----      -----    -----      0046H    000BH
  +--> ?PR?_BLOCK_READ_CLOCK_ASCII?CLOCK
  +--> ?PR?_HASH_ID?PROG
  +--> ?PR?_ESCRIBIRMEMORIA?EEPROM

?PR?_HASH_ID?PROG                                -----    -----      -----    -----      005DH    003FH
  +--> ?CO?PROG
  +--> ?PR?_LEERMEMORIA?EEPROM
  +--> ?PR?_CHECK_FECHAOUT?CLOCK
  +--> ?PR?_STRLEN?STRLEN

?PR?_LEERMEMORIA?EEPROM                          -----    -----      -----    -----      009CH    0005H
  +--> ?PR?_RD_EEPROM?EEPROM

?PR?_CHECK_FECHAOUT?CLOCK                        -----    -----      -----    -----      009CH    0012H
  +--> ?PR?_BLOCK_READ_CLOCK_HEX?CLOCK

?PR?_BLOCK_READ_CLOCK_HEX?CLOCK                  -----    -----      -----    -----      00AEH    0003H
  +--> ?PR?_LEE_CLK?CLOCK
  +--> ?PR?_BCD_HEX?CLOCK

BL51 BANKED LINKER/LOCATER V6.22.2.0                                                  09/07/2021  11:24:22  PAGE 10


?PR?_ESCRIBIRMEMORIA?EEPROM                      -----    -----      -----    -----      005DH    0005H
  +--> ?PR?_WR_EEPROM?EEPROM

?PR?_INGRESADATO?PROG                            -----    -----      -----    -----      0071H    0004H
  +--> ?PR?_GETKEY?MAIN
  +--> ?CO?PROG
  +--> ?PR?PRINTF?PRINTF
  +--> ?PR?_PUTCHAR?MAIN

?PR?_GETKEY?MAIN                                 -----    -----      -----    -----      -----    -----
  +--> ?PR?COM_GETCHAR?UART

?PR?COM_GETCHAR?UART                             -----    -----      -----    -----      -----    -----
  +--> ?PR?COM_RBUFLEN?UART

?PR?_GETCMD?PROG                                 -----    -----      -----    -----      005DH    0007H
  +--> ?CO?PROG
  +--> ?PR?_STRTOK?STRTOK

?PR?_STRTOK?STRTOK                               -----    -----      -----    -----      0064H    0006H
  +--> ?PR?_STRSPN?STRSPN
  +--> ?PR?_STRPBRK?STRPBRK

?PR?_STRSPN?STRSPN                               -----    -----      -----    -----      006AH    0008H

?PR?_STRPBRK?STRPBRK                             -----    -----      -----    -----      006AH    0009H

?PR?_VALIDARCLAVE?PROG                           -----    -----      -----    -----      005DH    000EH

?PR?DISPLAYCURSOR?PROG                           -----    -----      -----    -----      -----    -----
  +--> ?CO?PROG
  +--> ?PR?PRINTF?PRINTF

?PR?_GETOPTION?PROG                              -----    -----      -----    -----      0046H    000BH
  +--> ?CO?PROG
  +--> ?PR?_STRTOK?STRTOK

?PR?_STRCAT?STRCAT                               -----    -----      -----    -----      0046H    0009H

?PR?_LISTACOMANDOS?PROG                          -----    -----      -----    -----      0046H    0007H

?PR?PROG_ID_CLIENTE?PROG                         -----    -----      -----    -----      0046H    000CH
  +--> ?PR?_RD_EEPROM?EEPROM
  +--> ?CO?PROG
  +--> ?PR?PRINTF?PRINTF
  +--> ?PR?_INGRESADATO?PROG
  +--> ?PR?_ATOI?ATOI
  +--> ?PR?_WR_EEPROM?EEPROM

?PR?_ATOI?ATOI                                   0020H.0  0000H.1    -----    -----      0071H    0005H
  +--> ?PR?_ISSPACE?ISSPACE
  +--> ?PR?_ISDIGIT?ISDIGIT

?PR?PROG_COD_PARK?PROG                           -----    -----      -----    -----      0046H    000CH
  +--> ?PR?_RD_EEPROM?EEPROM
  +--> ?CO?PROG
  +--> ?PR?PRINTF?PRINTF
BL51 BANKED LINKER/LOCATER V6.22.2.0                                                  09/07/2021  11:24:22  PAGE 11


  +--> ?PR?_INGRESADATO?PROG
  +--> ?PR?_ATOI?ATOI
  +--> ?PR?_WR_EEPROM?EEPROM

?PR?PROG_TIEMPO_GRACIA?PROG                      -----    -----      -----    -----      0046H    000CH
  +--> ?PR?_RD_EEPROM?EEPROM
  +--> ?CO?PROG
  +--> ?PR?PRINTF?PRINTF
  +--> ?PR?_INGRESADATO?PROG
  +--> ?PR?_ATOI?ATOI
  +--> ?PR?_WR_EEPROM?EEPROM

?PR?PROG_SIN_COBRO?PROG                          -----    -----      -----    -----      0046H    000CH
  +--> ?PR?_RD_EEPROM?EEPROM
  +--> ?CO?PROG
  +--> ?PR?PRINTF?PRINTF
  +--> ?PR?_INGRESADATO?PROG
  +--> ?PR?_ATOI?ATOI
  +--> ?PR?_WR_EEPROM?EEPROM

?PR?PROG_DEBUG?PROG                              -----    -----      -----    -----      0046H    000CH
  +--> ?PR?_RD_EEPROM?EEPROM
  +--> ?CO?PROG
  +--> ?PR?PRINTF?PRINTF
  +--> ?PR?_INGRESADATO?PROG
  +--> ?PR?_ATOI?ATOI
  +--> ?PR?_WR_EEPROM?EEPROM

?PR?PROG_USE_LPR?PROG                            -----    -----      -----    -----      0046H    000CH
  +--> ?PR?_RD_EEPROM?EEPROM
  +--> ?CO?PROG
  +--> ?PR?PRINTF?PRINTF
  +--> ?PR?_INGRESADATO?PROG
  +--> ?PR?_ATOI?ATOI
  +--> ?PR?_WR_EEPROM?EEPROM

?PR?TIPO_PANTALLA?PROG                           -----    -----      -----    -----      0046H    000CH
  +--> ?PR?_RD_EEPROM?EEPROM
  +--> ?CO?PROG
  +--> ?PR?PRINTF?PRINTF
  +--> ?PR?_INGRESADATO?PROG
  +--> ?PR?_ATOI?ATOI
  +--> ?PR?_WR_EEPROM?EEPROM

?PR?PROG_TARJETA_AUTOMATICA_O_BOTON?PROG         -----    -----      -----    -----      0046H    000CH
  +--> ?PR?_RD_EEPROM?EEPROM
  +--> ?CO?PROG
  +--> ?PR?PRINTF?PRINTF
  +--> ?PR?_INGRESADATO?PROG
  +--> ?PR?_ATOI?ATOI
  +--> ?PR?_WR_EEPROM?EEPROM

?PR?PROG_ANTIPASSBACK?PROG                       -----    -----      -----    -----      0046H    000CH
  +--> ?PR?_RD_EEPROM?EEPROM
  +--> ?CO?PROG
  +--> ?PR?PRINTF?PRINTF
  +--> ?PR?_INGRESADATO?PROG
BL51 BANKED LINKER/LOCATER V6.22.2.0                                                  09/07/2021  11:24:22  PAGE 12


  +--> ?PR?_ATOI?ATOI
  +--> ?PR?_WR_EEPROM?EEPROM

?PR?PROG_PLACA?PROG                              -----    -----      -----    -----      0046H    000CH
  +--> ?PR?_RD_EEPROM?EEPROM
  +--> ?CO?PROG
  +--> ?PR?PRINTF?PRINTF
  +--> ?PR?_INGRESADATO?PROG
  +--> ?PR?_ATOI?ATOI
  +--> ?PR?_WR_EEPROM?EEPROM

?PR?PROG_ADDRESS_HIGH_BOARD?PROG                 -----    -----      -----    -----      0046H    000CH
  +--> ?PR?_RD_EEPROM?EEPROM
  +--> ?CO?PROG
  +--> ?PR?PRINTF?PRINTF
  +--> ?PR?_INGRESADATO?PROG
  +--> ?PR?_ATOI?ATOI
  +--> ?PR?_WR_EEPROM?EEPROM

?PR?PROG_HORARIOS?PROG                           -----    -----      -----    -----      0046H    001BH
  +--> ?PR?ADDR_HORARIOS?PROG
  +--> ?CO?PROG
  +--> ?PR?PRINTF?PRINTF
  +--> ?PR?_INGRESADATO?PROG
  +--> ?PR?_ATOI?ATOI
  +--> ?PR?_PROG_HORARIOS_ON_OFF?PROG
  +--> ?PR?_WR_EEPROM?EEPROM
  +--> ?PR?_PROG_HORARIO_DIAS?PROG
  +--> ?PR?_PROG_HORARIO_DESDE_HASTA?PROG
  +--> ?PR?_RD_EEPROM?EEPROM

?PR?ADDR_HORARIOS?PROG                           -----    -----      -----    -----      0074H    000BH

?PR?_PROG_HORARIOS_ON_OFF?PROG                   -----    -----      -----    -----      0061H    0010H
  +--> ?PR?_RD_EEPROM?EEPROM
  +--> ?CO?PROG
  +--> ?PR?PRINTF?PRINTF
  +--> ?PR?_INGRESADATO?PROG
  +--> ?PR?_ATOI?ATOI
  +--> ?PR?_WR_EEPROM?EEPROM

?PR?_PROG_HORARIO_DIAS?PROG                      -----    -----      -----    -----      0061H    000FH
  +--> ?CO?PROG
  +--> ?PR?PRINTF?PRINTF
  +--> ?PR?_INGRESADATO?PROG
  +--> ?PR?_WR_EEPROM?EEPROM
  +--> ?PR?_RD_EEPROM?EEPROM

?PR?_PROG_HORARIO_DESDE_HASTA?PROG               -----    -----      -----    -----      0061H    000CH
  +--> ?CO?PROG
  +--> ?PR?PRINTF?PRINTF
  +--> ?PR?_INGRESADATO?PROG
  +--> ?PR?_WR_EEPROM?EEPROM
  +--> ?PR?_RD_EEPROM?EEPROM

?PR?PROG_VALIDAR_TIPO_VEHICULO_MENSUA...         -----    -----      -----    -----      0046H    000CH
  +--> ?PR?_RD_EEPROM?EEPROM
BL51 BANKED LINKER/LOCATER V6.22.2.0                                                  09/07/2021  11:24:22  PAGE 13


  +--> ?CO?PROG
  +--> ?PR?PRINTF?PRINTF
  +--> ?PR?_INGRESADATO?PROG
  +--> ?PR?_ATOI?ATOI
  +--> ?PR?_WR_EEPROM?EEPROM

?PR?PROG_APB_MENSUAL?PROG                        -----    -----      -----    -----      0046H    000CH
  +--> ?PR?_RD_EEPROM?EEPROM
  +--> ?CO?PROG
  +--> ?PR?PRINTF?PRINTF
  +--> ?PR?_INGRESADATO?PROG
  +--> ?PR?_ATOI?ATOI
  +--> ?PR?_WR_EEPROM?EEPROM

?PR?PROG_MENSUALES?PROG                          -----    -----      -----    -----      0046H    000CH
  +--> ?PR?_RD_EEPROM?EEPROM
  +--> ?CO?PROG
  +--> ?PR?PRINTF?PRINTF
  +--> ?PR?_INGRESADATO?PROG
  +--> ?PR?_ATOI?ATOI
  +--> ?PR?_WR_EEPROM?EEPROM

?PR?VER_PROG?PROG                                -----    -----      -----    -----      0046H    0013H
  +--> ?PR?_RD_EEPROM?EEPROM
  +--> ?CO?PROG
  +--> ?PR?PRINTF?PRINTF
  +--> ?PR?VER_HORARIO?PROG
  +--> ?PR?_LEERMEMORIA?EEPROM
  +--> ?PR?_HEX_ASCII?CLOCK
  +--> ?PR?LEE_NO_TICKET?EEPROM

?PR?VER_HORARIO?PROG                             -----    -----      -----    -----      0059H    001BH
  +--> ?PR?ADDR_HORARIOS?PROG
  +--> ?CO?PROG
  +--> ?PR?PRINTF?PRINTF
  +--> ?PR?_RD_EEPROM?EEPROM
  +--> ?PR?_VER_HORARIO_DIAS?PROG
  +--> ?PR?_VER_HORARIO_DESDE_HASTA?PROG

?PR?_VER_HORARIO_DIAS?PROG                       -----    -----      -----    -----      0074H    0003H
  +--> ?PR?_RD_EEPROM?EEPROM
  +--> ?CO?PROG
  +--> ?PR?PRINTF?PRINTF

?PR?_VER_HORARIO_DESDE_HASTA?PROG                -----    -----      -----    -----      0074H    0002H
  +--> ?CO?PROG
  +--> ?PR?PRINTF?PRINTF
  +--> ?PR?_RD_EEPROM?EEPROM

?PR?_HEX_ASCII?CLOCK                             -----    -----      -----    -----      005DH    0006H
  +--> ?PR?_HEX_BCD?CLOCK

?PR?LEE_NO_TICKET?EEPROM                         -----    -----      -----    -----      0059H    000BH
  +--> ?PR?READ_EEPROM_TICKET?EEPROM
  +--> ?CO?EEPROM
  +--> ?PR?PRINTF?PRINTF
  +--> ?PR?_STRLEN?STRLEN
BL51 BANKED LINKER/LOCATER V6.22.2.0                                                  09/07/2021  11:24:22  PAGE 14


  +--> ?PR?_DEBUG_TXT_TIBBO?TIBBO

?PR?READ_EEPROM_TICKET?EEPROM                    -----    -----      -----    -----      0064H    0007H
  +--> ?PR?_RD_EEPROM?EEPROM

?PR?SHOW?PROG                                    -----    -----      -----    -----      -----    -----
  +--> ?CO?PROG
  +--> ?PR?PRINTF?PRINTF

?PR?PROG_FECHA_VENCIMIENTO?PROG                  -----    -----      -----    -----      0046H    0017H
  +--> ?PR?_LEERMEMORIA?EEPROM
  +--> ?PR?_HEX_ASCII?CLOCK
  +--> ?CO?PROG
  +--> ?PR?PRINTF?PRINTF
  +--> ?PR?_HASH_ID?PROG
  +--> ?PR?_INGRESADATO?PROG
  +--> ?PR?_GETCMD?PROG
  +--> ?PR?_ESCRIBIRMEMORIA?EEPROM
  +--> ?PR?_VALIDARCLAVE?PROG
  +--> ?PR?_ATOI?ATOI
  +--> ?PR?_WR_EEPROM?EEPROM

?PR?VARIABLE_INICIO?MAIN                         -----    -----      -----    -----      -----    -----
  +--> ?PR?_RD_EEPROM?EEPROM

?PR?SECUENCIA_INICIO_EXPEDIDOR?VERIFI...         -----    -----      -----    -----      0001H    0001H
  +--> ?PR?_INICIALIZA?LINTECH
  +--> ?PR?TRAMA_VALIDACION_P_N?VERIFICADOR
  +--> ?CO?VERIFICADOR
  +--> ?PR?_DEBUG_TXT_TIBBO?TIBBO
  +--> ?PR?_DEBUGBUFFERMF?TIBBO
  +--> ?PR?DWLOAD_EEPROM?LINTECH

?PR?_INICIALIZA?LINTECH                          -----    -----      -----    -----      0002H    000CH
  +--> ?CO?LINTECH
  +--> ?PR?_DEBUG_TXT_TIBBO?TIBBO
  +--> ?PR?_DEBUGBUFFERMF?TIBBO
  +--> ?PR?_ESCRIBIRCADENASOFT_BUFFER?MAIN

?PR?_DEBUGBUFFERMF?TIBBO                         -----    -----      -----    -----      0027H    0006H
  +--> ?CO?TIBBO
  +--> ?PR?_DEBUG_TXT_TIBBO?TIBBO
  +--> ?PR?_DEBUG_CHR_TIBBO?TIBBO
  +--> ?PR?_TX_AUX?TIBBO

?PR?_ESCRIBIRCADENASOFT_BUFFER?MAIN              -----    -----      -----    -----      0027H    0006H
  +--> ?PR?_PUTCHAR?MAIN

?PR?TRAMA_VALIDACION_P_N?VERIFICADOR             -----    -----      -----    -----      -----    -----
  +--> ?CO?VERIFICADOR
  +--> ?PR?_DEBUG_TXT_TIBBO?TIBBO

?PR?DWLOAD_EEPROM?LINTECH                        -----    -----      -----    -----      0002H    0016H
  +--> ?CO?LINTECH
  +--> ?PR?_DEBUG_TXT_TIBBO?TIBBO
  +--> ?PR?_DEBUGBUFFERMF?TIBBO
  +--> ?PR?_ESCRIBIRCADENASOFT_BUFFER?MAIN
BL51 BANKED LINKER/LOCATER V6.22.2.0                                                  09/07/2021  11:24:22  PAGE 15



?PR?RX_MONITOR?MONITOR                           -----    -----      -----    -----      0003H    000EH
  +--> ?PR?_RECIBE_CMD_MONITOR?MONITOR
  +--> ?PR?_DEBUG_BUFFER_RS232_LCD?TIBBO
  +--> ?PR?_DEBUG_MONITOR?TIBBO
  +--> ?PR?_VALIDA_TRAMA_MONITOR?MONITOR

?PR?_RECIBE_CMD_MONITOR?MONITOR                  -----    -----      -----    -----      0011H    0009H
  +--> ?PR?RX_DATA?TIBBO

?PR?RX_DATA?TIBBO                                -----    -----      -----    -----      -----    -----
  +--> ?PR?TIME_MBIT?TIBBO
  +--> ?PR?TIME_BIT?TIBBO

?PR?_DEBUG_BUFFER_RS232_LCD?TIBBO                -----    -----      -----    -----      0011H    0006H
  +--> ?PR?_DEBUG_CHR_RS232_LCD?TIBBO
  +--> ?PR?_PUTCHAR?MAIN

?PR?_DEBUG_CHR_RS232_LCD?TIBBO                   -----    -----      -----    -----      0017H    0001H
  +--> ?PR?_PUTCHAR?MAIN

?PR?_DEBUG_MONITOR?TIBBO                         -----    -----      -----    -----      0011H    0004H
  +--> ?PR?DEBUG_DIVIDIR_TEXTO?TIBBO
  +--> ?CO?TIBBO
  +--> ?PR?_DEBUG_TXT_TIBBO?TIBBO

?PR?DEBUG_DIVIDIR_TEXTO?TIBBO                    -----    -----      -----    -----      -----    -----
  +--> ?CO?TIBBO
  +--> ?PR?_DEBUG_TXT_TIBBO?TIBBO

?PR?_VALIDA_TRAMA_MONITOR?MONITOR                -----    -----      -----    -----      0011H    0006H
  +--> ?PR?_DELAY_10MS?DELAY
  +--> ?PR?_TX_AUX?TIBBO

?PR?_DELAY_10MS?DELAY                            -----    -----      -----    -----      0017H    0004H
  +--> ?PR?_DELAY_1MS?DELAY

?PR?_SECUENCIAEXPEDIDORMF?VERIFICADOR            -----    -----      -----    -----      0001H    0001H
  +--> ?PR?_CHECK_STATUS?LINTECH
  +--> ?PR?_LOAD_SECUENCIA_EXPEDIDOR?VERIFIC...
  +--> ?PR?_RTA_CMD_TRANSPORTE?VERIFICADOR
  +--> ?PR?_MOV_CARD?LINTECH
  +--> ?PR?AUT_CARD_CHECK_STATUS?LINTECH
  +--> ?PR?LOADVERIFY_EEPROM?LINTECH
  +--> ?PR?_RD_MF?LINTECH
  +--> ?PR?_WR_MF?LINTECH
  +--> ?PR?_CARD_INSERCION?LINTECH
  +--> ?PR?DWLOAD_EEPROM?LINTECH
  +--> ?PR?ENTREGA_CARD_CAPTURA?VERIFICADOR
  +--> ?PR?_SEND_PTO_PARALELO?VERIFICADOR
  +--> ?PR?WAIT_PLACA?VERIFICADOR
  +--> ?PR?UNIQUE_IDENTIFIER_UID?LINTECH
  +--> ?PR?_PREGUNTA_LPR?VERIFICADOR
  +--> ?PR?PREGUNTA_PLACA_HABILITADA?VERIFIC...
  +--> ?PR?_VALIDA_TIPO_TARJETA?VERIFICADOR
  +--> ?PR?POWER_OFF?LINTECH
  +--> ?PR?CLAVE_SEGURIDAD_S2?LINTECH
BL51 BANKED LINKER/LOCATER V6.22.2.0                                                  09/07/2021  11:24:22  PAGE 16


  +--> ?PR?_RESPONDE_REELECTURA_TARJETA_SECT...
  +--> ?PR?ANALIZA_PRESENCIA_ROTACION?VERIFI...
  +--> ?PR?RX_MONITOR?MONITOR
  +--> ?PR?INGRESO_VEHICULO?VERIFICADOR
  +--> ?PR?RESPONDE_ESTADO_SENSORES_TRANSPOR...
  +--> ?PR?RESPONDE_TIPO_TARJETA?VERIFICADOR
  +--> ?PR?_RESPONDE_LECTURA_TARJETA_SECTOR1...
  +--> ?PR?_RESPONDE_LECTURA_TARJETA_SECTOR1...
  +--> ?PR?_RESPONDE_LECTURA_TARJETA_SECTOR1...
  +--> ?PR?_RESPONDE_WRITE_TARJETA_SECTOR1_B...
  +--> ?PR?_RESPONDE_WRITE_TARJETA_SECTOR2_B...
  +--> ?PR?_RESPONDE_WRITE_TARJETA_SECTOR1_B...
  +--> ?PR?_RESPONDE_WRITE_TARJETA_SECTOR1_B...
  +--> ?PR?_DISPARO_LOCK_ENTRADA_VEHICULO?VE...
  +--> ?PR?_RESPUESTA_SEGUNDA_CLAVE?VERIFICADOR
  +--> ?PR?_ANALIZA_UID_CARD?VERIFICADOR
  +--> ?CO?VERIFICADOR
  +--> ?PR?_DEBUG_TXT_TIBBO?TIBBO

?PR?_CHECK_STATUS?LINTECH                        -----    -----      -----    -----      0002H    000BH
  +--> ?CO?LINTECH
  +--> ?PR?_DEBUG_TXT_TIBBO?TIBBO
  +--> ?PR?_DEBUGBUFFERMF?TIBBO
  +--> ?PR?_ESCRIBIRCADENASOFT_BUFFER?MAIN

?PR?_LOAD_SECUENCIA_EXPEDIDOR?VERIFIC...         -----    -----      -----    -----      0002H    0009H

?PR?_RTA_CMD_TRANSPORTE?VERIFICADOR              -----    -----      -----    -----      0002H    0005H
  +--> ?PR?TRAMA_VALIDACION_P_N?VERIFICADOR
  +--> ?CO?VERIFICADOR
  +--> ?PR?_DEBUG_TXT_TIBBO?TIBBO
  +--> ?PR?_DEBUGBUFFERMF?TIBBO
  +--> ?PR?ERROR_RX_PTO?VERIFICADOR

?PR?ERROR_RX_PTO?VERIFICADOR                     -----    -----      -----    -----      0007H    0001H
  +--> ?CO?VERIFICADOR
  +--> ?PR?_DEBUG_TXT_TIBBO?TIBBO
  +--> ?PR?_DEBUG_CHR_TIBBO?TIBBO
  +--> ?PR?_DELAY_10MS?DELAY

?PR?_MOV_CARD?LINTECH                            -----    -----      -----    -----      0002H    000CH
  +--> ?CO?LINTECH
  +--> ?PR?_DEBUG_TXT_TIBBO?TIBBO
  +--> ?PR?_DEBUGBUFFERMF?TIBBO
  +--> ?PR?_ESCRIBIRCADENASOFT_BUFFER?MAIN

?PR?AUT_CARD_CHECK_STATUS?LINTECH                -----    -----      -----    -----      0002H    000BH
  +--> ?CO?LINTECH
  +--> ?PR?_DEBUG_TXT_TIBBO?TIBBO
  +--> ?PR?_DEBUGBUFFERMF?TIBBO
  +--> ?PR?_ESCRIBIRCADENASOFT_BUFFER?MAIN

?PR?LOADVERIFY_EEPROM?LINTECH                    -----    -----      -----    -----      0002H    0010H
  +--> ?CO?LINTECH
  +--> ?PR?_DEBUG_TXT_TIBBO?TIBBO
  +--> ?PR?_DEBUGBUFFERMF?TIBBO
  +--> ?PR?_ESCRIBIRCADENASOFT_BUFFER?MAIN
BL51 BANKED LINKER/LOCATER V6.22.2.0                                                  09/07/2021  11:24:22  PAGE 17



?PR?_RD_MF?LINTECH                               -----    -----      -----    -----      0002H    0012H
  +--> ?CO?LINTECH
  +--> ?PR?_DEBUG_TXT_TIBBO?TIBBO
  +--> ?PR?_DEBUG_CHR_TIBBO?TIBBO
  +--> ?PR?_DEBUGBUFFERMF?TIBBO
  +--> ?PR?_ESCRIBIRCADENASOFT_BUFFER?MAIN

?PR?_WR_MF?LINTECH                               -----    -----      -----    -----      0002H    0025H
  +--> ?CO?LINTECH
  +--> ?PR?_DEBUG_TXT_TIBBO?TIBBO
  +--> ?PR?_DEBUG_CHR_TIBBO?TIBBO
  +--> ?PR?_DEBUGBUFFERMF?TIBBO
  +--> ?PR?_ESCRIBIRCADENASOFT_BUFFER?MAIN

?PR?_CARD_INSERCION?LINTECH                      -----    -----      -----    -----      0002H    000AH
  +--> ?CO?LINTECH
  +--> ?PR?_DEBUG_TXT_TIBBO?TIBBO
  +--> ?PR?_DEBUGBUFFERMF?TIBBO
  +--> ?PR?_ESCRIBIRCADENASOFT_BUFFER?MAIN

?PR?ENTREGA_CARD_CAPTURA?VERIFICADOR             -----    -----      -----    -----      0002H    0001H
  +--> ?CO?VERIFICADOR
  +--> ?PR?_DEBUG_TXT_TIBBO?TIBBO
  +--> ?PR?SEL_SENSOR2?IO_SENSORES
  +--> ?PR?VALIDASENSOR?IO_SENSORES
  +--> ?PR?VALIDA_SENSOR1_AUTO?IO_SENSORES

?PR?VALIDA_SENSOR1_AUTO?IO_SENSORES              -----    -----      -----    -----      0012H    0001H
  +--> ?PR?SEL_SENSOR1?IO_SENSORES
  +--> ?PR?SEL_AUTO?IO_SENSORES
  +--> ?CO?IO_SENSORES
  +--> ?PR?_DEBUG_TXT_TIBBO?TIBBO
  +--> ?PR?BOTTON?IO_SENSORES

?PR?BOTTON?IO_SENSORES                           -----    -----      -----    -----      -----    -----
  +--> ?PR?SEL_PULSA?IO_SENSORES
  +--> ?CO?IO_SENSORES
  +--> ?PR?_DEBUG_TXT_TIBBO?TIBBO

?PR?_SEND_PTO_PARALELO?VERIFICADOR               -----    -----      -----    -----      0002H    0007H
  +--> ?PR?_ARMAR_TRAMA_PTO_PARALELO_EXPEDID...
  +--> ?PR?_ARMAR_TRAMA_PTO_PARALELO_EXPEDID...
  +--> ?PR?INCREMENTE_TICKET?EEPROM
  +--> ?PR?_SEND_PORT?PTO_PARALELO
  +--> ?CO?VERIFICADOR
  +--> ?PR?_DEBUG_TXT_TIBBO?TIBBO
  +--> ?PR?_DEBUGBUFFERMF?TIBBO
  +--> ?PR?CLEAR_PLACA?MONITOR

?PR?_ARMAR_TRAMA_PTO_PARALELO_EXPEDID...         -----    -----      -----    -----      0009H    0006H
  +--> ?PR?_BCD_HEX?CLOCK
  +--> ?PR?_RD_EEPROM?EEPROM

?PR?_ARMAR_TRAMA_PTO_PARALELO_EXPEDID...         -----    -----      -----    -----      0009H    0012H
  +--> ?PR?LEE_NO_TICKET?EEPROM
  +--> ?PR?_STRCAT?STRCAT
BL51 BANKED LINKER/LOCATER V6.22.2.0                                                  09/07/2021  11:24:22  PAGE 18


  +--> ?PR?_STRLEN?STRLEN
  +--> ?PR?_BCD_HEX?CLOCK
  +--> ?PR?_RD_EEPROM?EEPROM

?PR?INCREMENTE_TICKET?EEPROM                     -----    -----      -----    -----      0009H    000BH
  +--> ?PR?READ_EEPROM_TICKET?EEPROM
  +--> ?CO?EEPROM
  +--> ?PR?PRINTF?PRINTF
  +--> ?PR?_WRITE_EEPROM_TICKET?EEPROM

?PR?_WRITE_EEPROM_TICKET?EEPROM                  -----    -----      -----    -----      0016H    000BH
  +--> ?CO?EEPROM
  +--> ?PR?_DEBUG_TXT_TIBBO?TIBBO
  +--> ?PR?_ATOL?ATOL
  +--> ?PR?_DEBUG_CHR_TIBBO?TIBBO
  +--> ?PR?_WR_EEPROM?EEPROM

?PR?_ATOL?ATOL                                   0020H.0  0000H.1    -----    -----      0021H    0007H
  +--> ?PR?_ISSPACE?ISSPACE
  +--> ?PR?_ISDIGIT?ISDIGIT

?PR?_SEND_PORT?PTO_PARALELO                      -----    -----      -----    -----      0016H    000AH
  +--> ?PR?PULSO_BUS?PTO_PARALELO
  +--> ?PR?_DELAY_20US?DELAY

?PR?PULSO_BUS?PTO_PARALELO                       -----    -----      -----    -----      -----    -----
  +--> ?PR?_DELAY_20US?DELAY

?PR?WAIT_PLACA?VERIFICADOR                       -----    -----      -----    -----      0002H    0001H
  +--> ?CO?VERIFICADOR
  +--> ?PR?_DEBUG_TXT_TIBBO?TIBBO
  +--> ?PR?RX_MONITOR?MONITOR
  +--> ?PR?RESPUESTA_PLACA_CANCEL?VERIFICADOR

?PR?RESPUESTA_PLACA_CANCEL?VERIFICADOR           -----    -----      -----    -----      0003H    0004H
  +--> ?CO?VERIFICADOR
  +--> ?PR?_DEBUG_TXT_TIBBO?TIBBO
  +--> ?PR?_DEBUG_TXT_RS232?TIBBO

?PR?_DEBUG_TXT_RS232?TIBBO                       -----    -----      -----    -----      0007H    0005H
  +--> ?PR?_PUTCHAR?MAIN

?PR?UNIQUE_IDENTIFIER_UID?LINTECH                -----    -----      -----    -----      0002H    000BH
  +--> ?CO?LINTECH
  +--> ?PR?_DEBUG_TXT_TIBBO?TIBBO
  +--> ?PR?_DEBUGBUFFERMF?TIBBO
  +--> ?PR?_ESCRIBIRCADENASOFT_BUFFER?MAIN

?PR?_PREGUNTA_LPR?VERIFICADOR                    -----    -----      -----    -----      0002H    0007H
  +--> ?CO?VERIFICADOR
  +--> ?PR?_DEBUG_TXT_TIBBO?TIBBO
  +--> ?PR?_HORA_ENTRADA_VEHICULO?CLOCK
  +--> ?PR?_RD_EEPROM?EEPROM
  +--> ?PR?_ARMAR_TRAMA_MONITOR?VERIFICADOR

?PR?_HORA_ENTRADA_VEHICULO?CLOCK                 -----    -----      -----    -----      0009H    0003H
  +--> ?PR?_LEE_CLK?CLOCK
BL51 BANKED LINKER/LOCATER V6.22.2.0                                                  09/07/2021  11:24:22  PAGE 19



?PR?_ARMAR_TRAMA_MONITOR?VERIFICADOR             -----    -----      -----    -----      0009H    000FH
  +--> ?PR?DIR_BOARD_MONITOR?IO_SENSORES
  +--> ?PR?LEE_NO_TICKET?EEPROM
  +--> ?PR?_STRCAT?STRCAT
  +--> ?PR?_BYTEHEX_DECIMAL?CLOCK
  +--> ?PR?_STRLEN?STRLEN
  +--> ?PR?_TWO_BYTEHEX_DECIMAL?CLOCK

?PR?DIR_BOARD_MONITOR?IO_SENSORES                -----    -----      -----    -----      -----    -----
  +--> ?PR?_RD_EEPROM?EEPROM

?PR?_BYTEHEX_DECIMAL?CLOCK                       -----    -----      -----    -----      0018H    0001H

?PR?_TWO_BYTEHEX_DECIMAL?CLOCK                   -----    -----      -----    -----      0018H    000CH
  +--> ?PR?_POW?POW

?PR?_POW?POW                                     -----    -----      -----    -----      0024H    000AH
  +--> ?PR?LOG?LOG
  +--> ?PR?EXP?EXP

?PR?LOG?LOG                                      0020H.0  0000H.1    -----    -----      002EH    0004H

?PR?PREGUNTA_PLACA_HABILITADA?VERIFIC...         -----    -----      -----    -----      0002H    0001H
  +--> ?CO?VERIFICADOR
  +--> ?PR?_DEBUG_TXT_TIBBO?TIBBO
  +--> ?PR?_RD_EEPROM?EEPROM

?PR?_VALIDA_TIPO_TARJETA?VERIFICADOR             -----    -----      -----    -----      0002H    0007H
  +--> ?CO?VERIFICADOR
  +--> ?PR?_DEBUG_TXT_TIBBO?TIBBO
  +--> ?PR?_RD_EEPROM?EEPROM
  +--> ?PR?_SEND_PORTERR?PTO_PARALELO
  +--> ?PR?_TARJETA_ROTACION?VERIFICADOR
  +--> ?PR?_PANTALLALCD?PANTALLAS

?PR?_SEND_PORTERR?PTO_PARALELO                   -----    -----      -----    -----      0018H    0006H
  +--> ?PR?PULSO_BUS?PTO_PARALELO
  +--> ?PR?_DELAY_20US?DELAY

?PR?_TARJETA_ROTACION?VERIFICADOR                -----    -----      -----    -----      0009H    0006H
  +--> ?PR?_ARMAR_TRAMA_TARJETA_SECTOR1_BLOQ...

?PR?_ARMAR_TRAMA_TARJETA_SECTOR1_BLOQ...         -----    -----      -----    -----      000FH    0006H
  +--> ?PR?_BCD_HEX?CLOCK
  +--> ?PR?DIR_BOARD?IO_SENSORES

?PR?DIR_BOARD?IO_SENSORES                        -----    -----      -----    -----      0033H    0001H
  +--> ?PR?SEL_DIR1?IO_SENSORES
  +--> ?PR?SEL_DIR2?IO_SENSORES
  +--> ?PR?_RD_EEPROM?EEPROM

?PR?_PANTALLALCD?PANTALLAS                       -----    -----      -----    -----      0018H    0030H
  +--> ?CO?PANTALLAS
  +--> ?PR?_LCD_TXT?PANTALLAS
  +--> ?PR?_STRLEN?STRLEN
  +--> ?PR?_TX_CHRLCD?PANTALLAS
BL51 BANKED LINKER/LOCATER V6.22.2.0                                                  09/07/2021  11:24:22  PAGE 20


  +--> ?PR?_RASPBERRY_DATA?PANTALLAS

?PR?_LCD_TXT?PANTALLAS                           -----    -----      -----    -----      0048H    0005H
  +--> ?PR?_TX_CHRLCD?PANTALLAS

?PR?_TX_CHRLCD?PANTALLAS                         -----    -----      -----    -----      004DH    0002H
  +--> ?PR?_PUTCHAR?MAIN

?PR?_RASPBERRY_DATA?PANTALLAS                    -----    -----      -----    -----      0048H    0006H
  +--> ?PR?_STRLEN?STRLEN
  +--> ?PR?_PUTCHAR?MAIN

?PR?POWER_OFF?LINTECH                            -----    -----      -----    -----      0002H    000BH
  +--> ?CO?LINTECH
  +--> ?PR?_DEBUG_TXT_TIBBO?TIBBO
  +--> ?PR?_DEBUGBUFFERMF?TIBBO
  +--> ?PR?_ESCRIBIRCADENASOFT_BUFFER?MAIN

?PR?CLAVE_SEGURIDAD_S2?LINTECH                   -----    -----      -----    -----      0002H    0016H
  +--> ?CO?LINTECH
  +--> ?PR?_DEBUG_TXT_TIBBO?TIBBO
  +--> ?PR?_DEBUGBUFFERMF?TIBBO
  +--> ?PR?_ESCRIBIRCADENASOFT_BUFFER?MAIN

?PR?_RESPONDE_REELECTURA_TARJETA_SECT...         -----    -----      -----    -----      0002H    000AH
  +--> ?CO?VERIFICADOR
  +--> ?PR?_DEBUG_TXT_TIBBO?TIBBO
  +--> ?PR?_DEBUGBUFFERMF?TIBBO
  +--> ?PR?_ARMAR_TRAMA_TARJETA_SECTOR1_BLOQ...

?PR?_ARMAR_TRAMA_TARJETA_SECTOR1_BLOQ...         -----    -----      -----    -----      000CH    0003H
  +--> ?PR?LEE_NO_TICKET?EEPROM

?PR?ANALIZA_PRESENCIA_ROTACION?VERIFI...         -----    -----      -----    -----      0002H    0001H
  +--> ?PR?VALIDASENSORESPASO?IO_SENSORES
  +--> ?PR?_SEND_PORTERR?PTO_PARALELO
  +--> ?PR?_PANTALLALCD?PANTALLAS

?PR?VALIDASENSORESPASO?IO_SENSORES               -----    -----      -----    -----      0011H    0001H
  +--> ?PR?SEL_SENSOR2?IO_SENSORES
  +--> ?PR?VALIDASENSOR?IO_SENSORES
  +--> ?PR?VALIDA_SENSOR1_AUTO?IO_SENSORES
  +--> ?CO?IO_SENSORES
  +--> ?PR?_DEBUG_TXT_TIBBO?TIBBO

?PR?INGRESO_VEHICULO?VERIFICADOR                 -----    -----      -----    -----      0002H    0001H
  +--> ?CO?VERIFICADOR
  +--> ?PR?_DEBUG_TXT_TIBBO?TIBBO
  +--> ?PR?VALIDASENSORESPASO?IO_SENSORES
  +--> ?PR?_RD_EEPROM?EEPROM
  +--> ?PR?RX_MONITOR?MONITOR
  +--> ?PR?_SEND_PORTERR?PTO_PARALELO
  +--> ?PR?_PANTALLALCD?PANTALLAS
  +--> ?PR?BOTTON?IO_SENSORES

?PR?RESPONDE_ESTADO_SENSORES_TRANSPOR...         -----    -----      -----    -----      0002H    0001H
  +--> ?CO?VERIFICADOR
BL51 BANKED LINKER/LOCATER V6.22.2.0                                                  09/07/2021  11:24:22  PAGE 21


  +--> ?PR?_DEBUG_TXT_TIBBO?TIBBO
  +--> ?PR?_SEND_PORTERR?PTO_PARALELO

?PR?RESPONDE_TIPO_TARJETA?VERIFICADOR            -----    -----      -----    -----      0002H    0001H
  +--> ?CO?VERIFICADOR
  +--> ?PR?_DEBUG_TXT_TIBBO?TIBBO
  +--> ?PR?_SEND_PORTERR?PTO_PARALELO
  +--> ?PR?_PANTALLALCD?PANTALLAS

?PR?_RESPONDE_LECTURA_TARJETA_SECTOR1...         -----    -----      -----    -----      0002H    0016H
  +--> ?CO?VERIFICADOR
  +--> ?PR?_DEBUG_TXT_TIBBO?TIBBO
  +--> ?PR?_DEBUGBUFFERMF?TIBBO
  +--> ?PR?_RD_EEPROM?EEPROM
  +--> ?PR?_DEBUG_HEXDEC?TIBBO
  +--> ?PR?_DEBUG_CHR_TIBBO?TIBBO
  +--> ?PR?_SEND_PORTERR?PTO_PARALELO
  +--> ?PR?_PANTALLALCD?PANTALLAS

?PR?_DEBUG_HEXDEC?TIBBO                          -----    -----      -----    -----      0018H    0002H
  +--> ?PR?_TX_AUX?TIBBO

?PR?_RESPONDE_LECTURA_TARJETA_SECTOR1...         -----    -----      -----    -----      0002H    0004H
  +--> ?CO?VERIFICADOR
  +--> ?PR?_DEBUG_TXT_TIBBO?TIBBO

?PR?_RESPONDE_LECTURA_TARJETA_SECTOR1...         -----    -----      -----    -----      0002H    0015H
  +--> ?CO?VERIFICADOR
  +--> ?PR?_DEBUG_TXT_TIBBO?TIBBO
  +--> ?PR?_DEBUGBUFFERMF?TIBBO
  +--> ?PR?_DEBUG_CHR_TIBBO?TIBBO

?PR?_RESPONDE_WRITE_TARJETA_SECTOR1_B...         -----    -----      -----    -----      0002H    0007H
  +--> ?CO?VERIFICADOR
  +--> ?PR?_DEBUG_TXT_TIBBO?TIBBO
  +--> ?PR?_DEBUGBUFFERMF?TIBBO
  +--> ?PR?_ARMAR_TRAMA_TARJETA_SECTOR1_BLOQ...

?PR?_RESPONDE_WRITE_TARJETA_SECTOR2_B...         -----    -----      -----    -----      0002H    0003H
  +--> ?CO?VERIFICADOR
  +--> ?PR?_DEBUG_TXT_TIBBO?TIBBO
  +--> ?PR?_DEBUGBUFFERMF?TIBBO

?PR?_RESPONDE_WRITE_TARJETA_SECTOR1_B...         -----    -----      -----    -----      0002H    0003H
  +--> ?CO?VERIFICADOR
  +--> ?PR?_DEBUG_TXT_TIBBO?TIBBO
  +--> ?PR?_DEBUGBUFFERMF?TIBBO

?PR?_RESPONDE_WRITE_TARJETA_SECTOR1_B...         -----    -----      -----    -----      0002H    0003H
  +--> ?CO?VERIFICADOR
  +--> ?PR?_DEBUG_TXT_TIBBO?TIBBO
  +--> ?PR?_DEBUGBUFFERMF?TIBBO

?PR?_DISPARO_LOCK_ENTRADA_VEHICULO?VE...         -----    -----      -----    -----      0002H    0004H
  +--> ?CO?VERIFICADOR
  +--> ?PR?_DEBUG_TXT_TIBBO?TIBBO
  +--> ?PR?_SEND_PORTERR?PTO_PARALELO
BL51 BANKED LINKER/LOCATER V6.22.2.0                                                  09/07/2021  11:24:22  PAGE 22


  +--> ?PR?_PANTALLALCD_LINEA_2?PANTALLAS
  +--> ?PR?VALIDA_SENSOR1_AUTO?IO_SENSORES
  +--> ?PR?_PANTALLALCD?PANTALLAS

?PR?_PANTALLALCD_LINEA_2?PANTALLAS               -----    -----      -----    -----      0011H    0033H
  +--> ?CO?PANTALLAS
  +--> ?PR?_LCD_TXT?PANTALLAS
  +--> ?PR?_STRLEN?STRLEN
  +--> ?PR?_TX_CHRLCD?PANTALLAS
  +--> ?PR?_RASPBERRY_DATA?PANTALLAS
  +--> ?PR?LEE_NO_TICKET?EEPROM
  +--> ?PR?_STRCAT?STRCAT

?PR?_RESPUESTA_SEGUNDA_CLAVE?VERIFICADOR         -----    -----      -----    -----      0002H    0006H
  +--> ?CO?VERIFICADOR
  +--> ?PR?_DEBUG_TXT_TIBBO?TIBBO
  +--> ?PR?_DEBUGBUFFERMF?TIBBO
  +--> ?PR?_ARMAR_TRAMA_PLACA?VERIFICADOR

?PR?_ARMAR_TRAMA_PLACA?VERIFICADOR               -----    -----      -----    -----      0008H    0004H
  +--> ?PR?_STRLEN?STRLEN
  +--> ?CO?VERIFICADOR

?PR?_ANALIZA_UID_CARD?VERIFICADOR                -----    -----      -----    -----      0002H    0015H
  +--> ?CO?VERIFICADOR
  +--> ?PR?_DEBUG_TXT_TIBBO?TIBBO
  +--> ?PR?_DEBUGBUFFERMF?TIBBO
  +--> ?PR?_DEBUG_CHR_TIBBO?TIBBO

?PR?_RECIBE_PORT?PTO_PARALELO                    -----    -----      -----    -----      0001H    0008H
  +--> ?PR?OFF_TIMER0_INTERRUP?MAIN
  +--> ?PR?ON_TIMER0_INTERRUP?MAIN

?PR?_DEBUG_PTO_PARALELO?TIBBO                    -----    -----      -----    -----      0001H    0004H
  +--> ?CO?TIBBO
  +--> ?PR?_DEBUG_TXT_TIBBO?TIBBO
  +--> ?PR?_DEBUGBUFFERMF?TIBBO
  +--> ?PR?DEBUG_DIVIDIR_TEXTO?TIBBO

?PR?_VALIDA_TRAMA_PTO?ACCESCAN                   -----    -----      -----    -----      0001H    0010H
  +--> ?CO?ACCESCAN
  +--> ?PR?_DEBUG_TXT_TIBBO?TIBBO
  +--> ?PR?_DEBUG_CHR_TIBBO?TIBBO
  +--> ?PR?_VALIDAR_CLK?CLOCK
  +--> ?PR?_BLOCK_WRITE_CLOCK_ASCII?CLOCK
  +--> ?PR?RELOJ_PANTALLA_LCD?PANTALLAS
  +--> ?PR?_SEND_PORT?PTO_PARALELO
  +--> ?PR?_PANTALLALCD?PANTALLAS
  +--> ?PR?CONFIRMACION?EEPROM
  +--> ?PR?_BYTEHEX_DECIMAL?CLOCK
  +--> ?PR?_TWO_BYTEHEX_DECIMAL?CLOCK
  +--> ?PR?VALIDASENSORESPASO?IO_SENSORES
  +--> ?PR?_CMD_LPR_SALIDA_WIEGAND?ACCESCAN
  +--> ?PR?_PANTALLALCD_LINEA_2?PANTALLAS
  +--> ?PR?_GRABA_SERIE?EEPROM

?PR?_BLOCK_WRITE_CLOCK_ASCII?CLOCK               -----    -----      -----    -----      0011H    0003H
BL51 BANKED LINKER/LOCATER V6.22.2.0                                                  09/07/2021  11:24:22  PAGE 23


  +--> ?CO?CLOCK
  +--> ?PR?_DEBUG_TXT_TIBBO?TIBBO
  +--> ?PR?_TWO_ONE?CLOCK
  +--> ?PR?_WR_CLK?CLOCK

?PR?_WR_CLK?CLOCK                                -----    -----      -----    -----      0014H    0002H
  +--> ?PR?_DELAY_20US?DELAY
  +--> ?PR?_EB_CLK?CLOCK

?PR?RELOJ_PANTALLA_LCD?PANTALLAS                 -----    -----      -----    -----      0011H    000DH
  +--> ?CO?PANTALLAS
  +--> ?PR?_BLOCK_READ_CLOCK?CLOCK
  +--> ?PR?_LCD_TXT_NUM_CHAR?PANTALLAS
  +--> ?PR?_BLOCK_READ_CLOCK_ASCII_RASBERRY?...
  +--> ?PR?_STRCAT?STRCAT
  +--> ?PR?_RASPBERRY_DATA?PANTALLAS

?PR?_BLOCK_READ_CLOCK?CLOCK                      -----    -----      -----    -----      001EH    0003H
  +--> ?PR?_LEE_CLK?CLOCK

?PR?_LCD_TXT_NUM_CHAR?PANTALLAS                  -----    -----      -----    -----      001EH    0006H
  +--> ?PR?_TX_CHRLCD?PANTALLAS

?PR?_BLOCK_READ_CLOCK_ASCII_RASBERRY?...         -----    -----      -----    -----      001EH    0003H
  +--> ?PR?_LEE_CLK?CLOCK

?PR?_CMD_LPR_SALIDA_WIEGAND?ACCESCAN             -----    -----      -----    -----      0011H    0022H
  +--> ?PR?DIR_BOARD?IO_SENSORES
  +--> ?PR?_BLOCK_READ_CLOCK_ASCII?CLOCK
  +--> ?PR?_MONITOR_CHR?ACCESCAN

?PR?_MONITOR_CHR?ACCESCAN                        -----    -----      -----    -----      0033H    0005H
  +--> ?PR?_TX_AUX?TIBBO

?PR?_GRABA_SERIE?EEPROM                          -----    -----      -----    -----      0011H    0005H
  +--> ?CO?EEPROM
  +--> ?PR?_DEBUG_TXT_TIBBO?TIBBO
  +--> ?PR?_WRITE_EEPROM_TICKET?EEPROM
  +--> ?PR?_WR_EEPROM?EEPROM

?PR?MSJ_LCD_INFORMATIVO?IO_SENSORES              -----    -----      -----    -----      0001H    0001H
  +--> ?PR?SEL_FUNCION?IO_SENSORES
  +--> ?PR?VALIDASENSOR_CERO?IO_SENSORES
  +--> ?CO?IO_SENSORES
  +--> ?PR?_DEBUG_TXT_TIBBO?TIBBO
  +--> ?PR?_DEBUG_CHR_TIBBO?TIBBO
  +--> ?PR?LOAD_AND_SEND_INFO_RELOJ?PTO_PARA...
  +--> ?PR?VALIDASENSOR?IO_SENSORES
  +--> ?PR?_DELAY_10MS?DELAY
  +--> ?PR?LOAD_AND_SEND_ID_COD?PTO_PARALELO

?PR?LOAD_AND_SEND_INFO_RELOJ?PTO_PARA...         -----    -----      -----    -----      0002H    000BH
  +--> ?PR?_BLOCK_READ_CLOCK?CLOCK
  +--> ?PR?_LEE_CLK?CLOCK
  +--> ?CO?PTO_PARALELO
  +--> ?PR?_DEBUG_TXT_TIBBO?TIBBO
  +--> ?PR?_DEBUGBUFFERMF?TIBBO
BL51 BANKED LINKER/LOCATER V6.22.2.0                                                  09/07/2021  11:24:22  PAGE 24


  +--> ?PR?DEBUG_DIVIDIR_TEXTO?TIBBO
  +--> ?PR?_SEND_PORT?PTO_PARALELO

?PR?LOAD_AND_SEND_ID_COD?PTO_PARALELO            -----    -----      -----    -----      0002H    0014H
  +--> ?PR?_RD_EEPROM?EEPROM
  +--> ?CO?PTO_PARALELO
  +--> ?PR?PRINTF?PRINTF
  +--> ?PR?_STRCAT?STRCAT
  +--> ?PR?_STRLEN?STRLEN
  +--> ?PR?_DEBUG_TXT_TIBBO?TIBBO
  +--> ?PR?_DEBUGBUFFERMF?TIBBO
  +--> ?PR?DEBUG_DIVIDIR_TEXTO?TIBBO
  +--> ?PR?_SEND_PORT?PTO_PARALELO



SYMBOL TABLE OF MODULE:  .\Objects\expedidor_v_101 (MAIN)

  VALUE           TYPE          NAME
  ----------------------------------

  -------         MODULE        MAIN
  C:0000H         SYMBOL        _ICE_DUMMY_
  X:0171H         PUBLIC        STX
  D:0080H         PUBLIC        P0
  D:0090H         PUBLIC        P1
  C:BA9EH         PUBLIC        timer0_int
  D:00B0H         PUBLIC        P3
  B:00A8H.7       PUBLIC        EA
  B:0080H.2       PUBLIC        led_err_imp
  C:BE35H         PUBLIC        off_Timer0_Interrup
  X:0172H         PUBLIC        ValTimeOutCom
  X:0173H         PUBLIC        Buffer_Rta_Lintech
  X:01A5H         PUBLIC        Timer_wait
  B:0021H.1       PUBLIC        pto_paraleo
  X:01A6H         PUBLIC        g_cContByteRx
  B:0080H.0       PUBLIC        rx_ip
  C:A784H         PUBLIC        main
  X:01A7H         PUBLIC        Timer_tivo
  B:0080H.3       PUBLIC        Atascado_GP0_PIN_3
  C:AFF5H         PUBLIC        variable_inicio
  B:0090H.7       PUBLIC        lock
  I:0023H         PUBLIC        rbuf
  C:BE2BH         PUBLIC        on_Timer0_Interrup
  I:0055H         PUBLIC        tbuf
  B:0090H.1       PUBLIC        DataIn
  D:0089H         PUBLIC        TMOD
  X:01A9H         PUBLIC        USE_LPR
  X:01AAH         PUBLIC        Debug_Tibbo
  X:01ABH         PUBLIC        Raspberry
  X:01ACH         PUBLIC        SIN_COBRO
  X:01AEH         PUBLIC        Tipo_Vehiculo
  B:00B0H.3       PUBLIC        busy
  C:BD83H         PUBLIC        ini_timer
  B:00A8H.1       PUBLIC        ET0
  X:01AFH         PUBLIC        precarga
  B:0088H.5       PUBLIC        TF0
BL51 BANKED LINKER/LOCATER V6.22.2.0                                                  09/07/2021  11:24:22  PAGE 25


  D:008CH         PUBLIC        TH0
  X:01B0H         PUBLIC        ACK
  X:01B1H         PUBLIC        g_cEstadoComSoft
  D:008AH         PUBLIC        TL0
  B:0088H.4       PUBLIC        TR0
  C:BD93H         PUBLIC        inicia_board
  X:01B2H         PUBLIC        T_GRACIA
  B:0080H.7       PUBLIC        sel_com
  X:01B4H         PUBLIC        STX_LINTECH
  C:BDC2H         PUBLIC        _getkey
  X:01B5H         PUBLIC        ETX
  C:B2D8H         PUBLIC        _EscribirCadenaSoft_buffer
  B:0021H.2       PUBLIC        buffer_ready
  C:B5F6H         PUBLIC        _putchar
  B:0021H.3       PUBLIC        placa_ready
  -------         PROC          TIMER0_INT
  C:BA9EH         LINE#         17
  C:BAA4H         LINE#         20
  C:BAAAH         LINE#         21
  C:BAAFH         LINE#         22
  C:BAAFH         LINE#         23
  C:BAB5H         LINE#         24
  C:BAB5H         LINE#         26
  C:BAC3H         LINE#         27
  C:BAC5H         LINE#         29
  -------         ENDPROC       TIMER0_INT
  -------         PROC          INI_TIMER
  C:BD83H         LINE#         32
  C:BD83H         LINE#         33
  C:BD83H         LINE#         35
  C:BD8BH         LINE#         37
  C:BD8EH         LINE#         38
  C:BD90H         LINE#         39
  C:BD92H         LINE#         41
  -------         ENDPROC       INI_TIMER
  -------         PROC          ON_TIMER0_INTERRUP
  C:BE2BH         LINE#         44
  C:BE2BH         LINE#         45
  C:BE2BH         LINE#         46
  C:BE2DH         LINE#         47
  C:BE2FH         LINE#         49
  -------         ENDPROC       ON_TIMER0_INTERRUP
  -------         PROC          OFF_TIMER0_INTERRUP
  C:BE35H         LINE#         52
  C:BE35H         LINE#         53
  C:BE35H         LINE#         54
  C:BE37H         LINE#         56
  -------         ENDPROC       OFF_TIMER0_INTERRUP
  -------         PROC          _GETKEY
  -------         DO            
  D:0006H         SYMBOL        k
  -------         ENDDO         
  C:BDC2H         LINE#         64
  C:BDC2H         LINE#         65
  C:BDC2H         LINE#         69
  C:BDC2H         LINE#         70
  C:BDC5H         LINE#         71
BL51 BANKED LINKER/LOCATER V6.22.2.0                                                  09/07/2021  11:24:22  PAGE 26


  C:BDC5H         LINE#         72
  C:BDCDH         LINE#         74
  C:BDCDH         LINE#         75
  -------         ENDPROC       _GETKEY
  -------         PROC          _PUTCHAR
  X:00A7H         SYMBOL        c
  -------         DO            
  X:00A8H         SYMBOL        i
  -------         ENDDO         
  C:B5F6H         LINE#         79
  C:B5FBH         LINE#         80
  C:B5FBH         LINE#         83
  C:B60AH         LINE#         84
  C:B60AH         LINE#         85
  C:B620H         LINE#         86
  C:B620H         LINE#         88
  C:B62EH         LINE#         89
  C:B62EH         LINE#         91
  C:B633H         LINE#         92
  -------         ENDPROC       _PUTCHAR
  -------         PROC          _ESCRIBIRCADENASOFT_BUFFER
  X:0027H         SYMBOL        buffer
  X:002AH         SYMBOL        tamano_cadena
  -------         DO            
  X:002BH         SYMBOL        i
  X:002CH         SYMBOL        d
  -------         ENDDO         
  C:B2D8H         LINE#         96
  C:B2E6H         LINE#         97
  C:B2E6H         LINE#         99
  C:B2F4H         LINE#         100
  C:B2F4H         LINE#         101
  C:B30BH         LINE#         102
  C:B315H         LINE#         103
  C:B31DH         LINE#         104
  -------         ENDPROC       _ESCRIBIRCADENASOFT_BUFFER
  -------         PROC          INICIA_BOARD
  C:BD93H         LINE#         109
  C:BD93H         LINE#         110
  C:BD93H         LINE#         111
  C:BD96H         LINE#         112
  C:BD99H         LINE#         113
  C:BD9CH         LINE#         114
  C:BD9EH         LINE#         115
  C:BDA0H         LINE#         116
  C:BDA2H         LINE#         118
  -------         ENDPROC       INICIA_BOARD
  -------         PROC          VARIABLE_INICIO
  C:AFF5H         LINE#         123
  C:AFF5H         LINE#         124
  C:AFF5H         LINE#         127
  C:B006H         LINE#         128
  C:B017H         LINE#         129
  C:B025H         LINE#         130
  C:B033H         LINE#         131
  C:B041H         LINE#         135
  -------         ENDPROC       VARIABLE_INICIO
BL51 BANKED LINKER/LOCATER V6.22.2.0                                                  09/07/2021  11:24:22  PAGE 27


  -------         PROC          MAIN
  -------         DO            
  X:0148H         SYMBOL        buffer
  X:0170H         SYMBOL        Estado_Comunicacion_Secuencia_MF
  X:0000H         SYMBOL        Length_trama
  -------         ENDDO         
  C:A784H         LINE#         143
  C:A784H         LINE#         144
  C:A784H         LINE#         151
  C:A787H         LINE#         152
  C:A78AH         LINE#         153
  C:A78DH         LINE#         154
  C:A790H         LINE#         155
  C:A793H         LINE#         156
  C:A795H         LINE#         158
  C:A798H         LINE#         159
  C:A79FH         LINE#         160
  C:A7A2H         LINE#         162
  C:A7A7H         LINE#         163
  C:A7A9H         LINE#         164
  C:A7ACH         LINE#         166
  C:A7AFH         LINE#         167
  C:A7AFH         LINE#         168
  C:A7B2H         LINE#         169
  C:A7B2H         LINE#         172
  C:A7B5H         LINE#         173
  C:A7BBH         LINE#         174
  C:A7C1H         LINE#         176
  C:A7C1H         LINE#         177
  C:A7C1H         LINE#         179
  C:A7C4H         LINE#         180
  C:A7C4H         LINE#         181
  C:A7C7H         LINE#         182
  C:A7C7H         LINE#         186
  C:A7D4H         LINE#         191
  C:A7DAH         LINE#         192
  C:A7DAH         LINE#         194
  C:A7E9H         LINE#         197
  C:A7F2H         LINE#         198
  C:A800H         LINE#         203
  C:A800H         LINE#         204
  C:A803H         LINE#         207
  -------         ENDPROC       MAIN
  -------         ENDMOD        MAIN

  -------         MODULE        ACCESCAN
  C:0000H         SYMBOL        _ICE_DUMMY_
  D:0080H         PUBLIC        P0
  D:0090H         PUBLIC        P1
  D:00B0H         PUBLIC        P3
  C:B4B5H         PUBLIC        _Monitor_chr
  B:0080H.3       PUBLIC        Atascado_GP0_PIN_3
  B:0090H.7       PUBLIC        lock
  C:338CH         PUBLIC        _Valida_Trama_Pto
  C:8989H         PUBLIC        _Cmd_LPR_Salida_wiegand
  -------         PROC          _VALIDA_TRAMA_PTO
  X:0001H         SYMBOL        buffer
BL51 BANKED LINKER/LOCATER V6.22.2.0                                                  09/07/2021  11:24:22  PAGE 28


  X:0004H         SYMBOL        length_trama
  -------         DO            
  X:021DH         SYMBOL        cont
  X:0005H         SYMBOL        bcc
  D:0004H         SYMBOL        j
  X:0006H         SYMBOL        buff
  -------         ENDDO         
  C:338CH         LINE#         113
  C:339AH         LINE#         114
  C:339AH         LINE#         117
  C:339DH         LINE#         123
  C:33E0H         LINE#         124
  C:33E0H         LINE#         125
  C:33E9H         LINE#         126
  C:33FEH         LINE#         127
  C:3407H         LINE#         128
  C:3414H         LINE#         129
  C:3414H         LINE#         130
  C:3430H         LINE#         131
  C:3433H         LINE#         133
  C:343CH         LINE#         134
  C:3444H         LINE#         135
  C:344DH         LINE#         136
  C:3466H         LINE#         137
  C:3466H         LINE#         139
  C:3476H         LINE#         140
  C:3476H         LINE#         141
  C:3489H         LINE#         143
  C:348CH         LINE#         145
  C:348CH         LINE#         148
  C:348CH         LINE#         150
  C:348CH         LINE#         152
  C:3492H         LINE#         153
  C:3496H         LINE#         154
  C:349AH         LINE#         155
  C:349DH         LINE#         156
  C:34A8H         LINE#         158
  C:34B1H         LINE#         159
  C:34B9H         LINE#         160
  C:34C1H         LINE#         161
  C:34C9H         LINE#         162
  C:34D2H         LINE#         163
  C:34D2H         LINE#         166
  C:34D2H         LINE#         169
  C:34E4H         LINE#         170
  C:34E4H         LINE#         171
  C:34E6H         LINE#         172
  C:34E9H         LINE#         174
  C:34FBH         LINE#         175
  C:34FBH         LINE#         176
  C:34FDH         LINE#         177
  C:3500H         LINE#         179
  C:3512H         LINE#         180
  C:3512H         LINE#         181
  C:3514H         LINE#         182
  C:3517H         LINE#         184
  C:3531H         LINE#         185
BL51 BANKED LINKER/LOCATER V6.22.2.0                                                  09/07/2021  11:24:22  PAGE 29


  C:3531H         LINE#         186
  C:3533H         LINE#         187
  C:3536H         LINE#         189
  C:3550H         LINE#         190
  C:3550H         LINE#         191
  C:3552H         LINE#         192
  C:3555H         LINE#         194
  C:3567H         LINE#         195
  C:3567H         LINE#         196
  C:356DH         LINE#         197
  C:357AH         LINE#         198
  C:357AH         LINE#         199
  C:357FH         LINE#         201
  C:3584H         LINE#         202
  C:3586H         LINE#         203
  C:3588H         LINE#         204
  C:358CH         LINE#         205
  C:358CH         LINE#         206
  C:358DH         LINE#         208
  C:35A5H         LINE#         209
  C:35A5H         LINE#         211
  C:35B2H         LINE#         212
  C:35B2H         LINE#         213
  C:35B4H         LINE#         214
  C:35B6H         LINE#         216
  C:35B8H         LINE#         217
  C:35B8H         LINE#         219
  C:35D3H         LINE#         220
  C:35D3H         LINE#         221
  C:35D7H         LINE#         222
  C:35DCH         LINE#         223
  C:35E5H         LINE#         224
  C:35EAH         LINE#         225
  C:35EAH         LINE#         228
  C:35EBH         LINE#         230
  C:3605H         LINE#         231
  C:3605H         LINE#         232
  C:3607H         LINE#         233
  C:360AH         LINE#         235
  C:363AH         LINE#         236
  C:363AH         LINE#         237
  C:363DH         LINE#         238
  C:363DH         LINE#         240
  C:3657H         LINE#         241
  C:3657H         LINE#         242
  C:3659H         LINE#         243
  C:365CH         LINE#         245
  C:3676H         LINE#         246
  C:3676H         LINE#         247
  C:3678H         LINE#         248
  C:367AH         LINE#         250
  C:3694H         LINE#         251
  C:3694H         LINE#         252
  C:3696H         LINE#         253
  C:3698H         LINE#         256
  C:36B2H         LINE#         257
  C:36B2H         LINE#         258
BL51 BANKED LINKER/LOCATER V6.22.2.0                                                  09/07/2021  11:24:22  PAGE 30


  C:36B4H         LINE#         259
  C:36B6H         LINE#         263
  C:36D0H         LINE#         264
  C:36D0H         LINE#         265
  C:36D2H         LINE#         266
  C:36D4H         LINE#         269
  C:36EEH         LINE#         270
  C:36EEH         LINE#         271
  C:36F3H         LINE#         272
  C:36F3H         LINE#         275
  C:3724H         LINE#         276
  C:3724H         LINE#         277
  C:372CH         LINE#         278
  C:3735H         LINE#         279
  C:3738H         LINE#         282
  C:3769H         LINE#         283
  C:3769H         LINE#         285
  C:3771H         LINE#         286
  C:377AH         LINE#         287
  C:377DH         LINE#         290
  C:37BDH         LINE#         291
  C:37BDH         LINE#         293
  C:37D2H         LINE#         294
  C:37D8H         LINE#         295
  C:3802H         LINE#         298
  C:380AH         LINE#         299
  C:380AH         LINE#         302
  C:3811H         LINE#         303
  C:3811H         LINE#         304
  C:3816H         LINE#         305
  C:3816H         LINE#         306
  C:3818H         LINE#         308
  C:3818H         LINE#         309
  C:3821H         LINE#         310
  C:3829H         LINE#         311
  C:3829H         LINE#         315
  C:382BH         LINE#         318
  C:382BH         LINE#         326
  C:3833H         LINE#         330
  C:3833H         LINE#         331
  C:3835H         LINE#         333
  C:386DH         LINE#         334
  C:386DH         LINE#         335
  C:3875H         LINE#         336
  C:3881H         LINE#         337
  C:3881H         LINE#         339
  C:38AEH         LINE#         340
  C:38AEH         LINE#         341
  C:38BDH         LINE#         343
  C:38BDH         LINE#         345
  -------         ENDPROC       _VALIDA_TRAMA_PTO
  -------         PROC          _MONITOR_CHR
  X:0033H         SYMBOL        str
  X:0036H         SYMBOL        num_char
  -------         DO            
  X:0037H         SYMBOL        j
  -------         ENDDO         
BL51 BANKED LINKER/LOCATER V6.22.2.0                                                  09/07/2021  11:24:22  PAGE 31


  C:B4B5H         LINE#         500
  C:B4C3H         LINE#         501
  C:B4C3H         LINE#         503
  C:B4D1H         LINE#         504
  C:B4D1H         LINE#         505
  C:B4E3H         LINE#         506
  C:B4EDH         LINE#         507
  C:B4F5H         LINE#         508
  -------         ENDPROC       _MONITOR_CHR
  -------         PROC          _CMD_LPR_SALIDA_WIEGAND
  X:0011H         SYMBOL        buffer
  -------         DO            
  X:0014H         SYMBOL        Buffer_Lpr
  X:0032H         SYMBOL        j
  -------         ENDDO         
  C:8989H         LINE#         513
  C:8994H         LINE#         514
  C:8994H         LINE#         516
  C:899AH         LINE#         517
  C:899FH         LINE#         518
  C:89A7H         LINE#         519
  C:89ABH         LINE#         520
  C:89B4H         LINE#         521
  C:89B4H         LINE#         522
  C:89C5H         LINE#         523
  C:89C7H         LINE#         525
  C:89C7H         LINE#         526
  C:89D8H         LINE#         527
  C:89D8H         LINE#         531
  C:89EFH         LINE#         532
  C:89EFH         LINE#         533
  C:89FEH         LINE#         534
  C:8A08H         LINE#         536
  C:8A10H         LINE#         537
  C:8A24H         LINE#         539
  C:8A34H         LINE#         540
  C:8A45H         LINE#         541
  C:8A52H         LINE#         545
  -------         ENDPROC       _CMD_LPR_SALIDA_WIEGAND
  -------         ENDMOD        ACCESCAN

  -------         MODULE        CLOCK
  C:0000H         SYMBOL        _ICE_DUMMY_
  C:B52AH         PUBLIC        _two_one
  D:0090H         PUBLIC        P1
  C:75B9H         PUBLIC        _validar_clk
  C:BB20H         PUBLIC        _wr_clk
  C:8CC4H         PUBLIC        _check_fechaOut
  C:610CH         PUBLIC        _Block_read_clock_ascii_rasberry
  B:00D0H.7       PUBLIC        CY
  C:0003H         PUBLIC        p_ck
  C:9DD6H         PUBLIC        _hex_ascii
  C:AB70H         PUBLIC        _hora_entrada_vehiculo
  X:021EH         PUBLIC        data_clk
  C:BDEDH         PUBLIC        cond_ini_clock
  C:8D8DH         PUBLIC        _Block_read_Clock
  B:0090H.4       PUBLIC        sck
BL51 BANKED LINKER/LOCATER V6.22.2.0                                                  09/07/2021  11:24:22  PAGE 32


  C:97A7H         PUBLIC        _Block_read_Clock_Hex
  C:6487H         PUBLIC        _Block_read_clock_ascii
  C:B6CCH         PUBLIC        _hex_bcd
  C:BC59H         PUBLIC        _bcd_hex
  C:AD86H         PUBLIC        _ByteHex_Decimal
  C:9F02H         PUBLIC        _lee_clk
  B:0090H.5       PUBLIC        io
  C:9994H         PUBLIC        _Block_write_clock_ascii
  B:0090H.6       PUBLIC        rst
  C:B5B7H         PUBLIC        _eb_clk
  C:45DFH         PUBLIC        _Two_ByteHex_Decimal
  -------         PROC          P_CK
  C:0003H         LINE#         69
  C:0003H         LINE#         70
  C:0003H         LINE#         71
  C:0005H         LINE#         72
  C:0008H         LINE#         73
  C:000AH         LINE#         74
  -------         ENDPROC       P_CK
  -------         PROC          _EB_CLK
  X:00B4H         SYMBOL        dir_clk
  -------         DO            
  X:00B5H         SYMBOL        nbits
  -------         ENDDO         
  C:B5B7H         LINE#         76
  C:B5BCH         LINE#         78
  C:B5C1H         LINE#         79
  C:B5C1H         LINE#         80
  C:B5CAH         LINE#         81
  C:B5CDH         LINE#         82
  C:B5CDH         LINE#         83
  C:B5CFH         LINE#         84
  C:B5D1H         LINE#         86
  C:B5D1H         LINE#         87
  C:B5D3H         LINE#         88
  C:B5D3H         LINE#         89
  C:B5D6H         LINE#         90
  C:B5F5H         LINE#         91
  -------         ENDPROC       _EB_CLK
  C:9EF8H         SYMBOL        L?0084
  -------         PROC          L?0083
  -------         ENDPROC       L?0083
  C:9EF8H         SYMBOL        L?0084
  -------         PROC          _LEE_CLK
  X:00B1H         SYMBOL        dir_clk
  -------         DO            
  X:00B2H         SYMBOL        nbits
  -------         ENDDO         
  C:9F02H         LINE#         93
  C:9F07H         LINE#         95
  C:9F09H         LINE#         96
  C:9F10H         LINE#         97
  C:9F18H         LINE#         98
  C:9F31H         LINE#         99
  C:9F31H         LINE#         100
  C:9F34H         LINE#         101
  C:9F34H         LINE#         102
BL51 BANKED LINKER/LOCATER V6.22.2.0                                                  09/07/2021  11:24:22  PAGE 33


  C:9F3BH         LINE#         103
  C:9F45H         LINE#         104
  C:9F4AH         LINE#         105
  C:9F4AH         LINE#         106
  C:9F4AH         LINE#         107
  C:9F4DH         LINE#         108
  C:9F4DH         LINE#         109
  C:9F54H         LINE#         110
  C:9F65H         LINE#         111
  C:9F65H         LINE#         112
  C:9F6DH         LINE#         113
  C:9F6DH         LINE#         114
  C:9F6DH         LINE#         115
  C:9F70H         LINE#         116
  C:9F80H         LINE#         117
  C:9F82H         LINE#         118
  C:9F87H         LINE#         119
  -------         ENDPROC       _LEE_CLK
  -------         PROC          _WR_CLK
  X:0014H         SYMBOL        dir_clk
  X:0015H         SYMBOL        byte
  C:BB20H         LINE#         121
  C:BB28H         LINE#         122
  C:BB2AH         LINE#         123
  C:BB31H         LINE#         124
  C:BB39H         LINE#         125
  C:BB42H         LINE#         126
  C:BB45H         LINE#         127
  C:BB47H         LINE#         129
  -------         ENDPROC       _WR_CLK
  C:B4F6H         SYMBOL        L?0079
  C:B514H         SYMBOL        L?0080
  -------         PROC          L?0078
  -------         ENDPROC       L?0078
  C:B4F6H         SYMBOL        L?0079
  C:B514H         SYMBOL        L?0080
  -------         PROC          _TWO_ONE
  D:0007H         SYMBOL        byte_h
  D:0005H         SYMBOL        byte_l
  -------         DO            
  D:0007H         SYMBOL        byte_out
  -------         ENDDO         
  C:B52AH         LINE#         131
  C:B52AH         LINE#         132
  C:B52AH         LINE#         134
  C:B52DH         LINE#         135
  C:B531H         LINE#         136
  C:B534H         LINE#         137
  C:B536H         LINE#         138
  C:B536H         LINE#         139
  -------         ENDPROC       _TWO_ONE
  -------         PROC          _VALIDAR_CLK
  D:0001H         SYMBOL        datos_clock
  -------         DO            
  D:0007H         SYMBOL        validador
  -------         ENDDO         
  C:75B9H         LINE#         143
BL51 BANKED LINKER/LOCATER V6.22.2.0                                                  09/07/2021  11:24:22  PAGE 34


  C:75B9H         LINE#         144
  C:75B9H         LINE#         145
  C:75BBH         LINE#         148
  C:75D0H         LINE#         149
  C:75D0H         LINE#         151
  C:75E8H         LINE#         152
  C:75E8H         LINE#         154
  C:7600H         LINE#         155
  C:7600H         LINE#         156
  C:7618H         LINE#         157
  C:7618H         LINE#         158
  C:7630H         LINE#         159
  C:7630H         LINE#         160
  C:7645H         LINE#         161
  C:7645H         LINE#         162
  C:7657H         LINE#         163
  C:7657H         LINE#         164
  C:7669H         LINE#         165
  C:7669H         LINE#         166
  C:767BH         LINE#         167
  C:767BH         LINE#         168
  C:768DH         LINE#         169
  C:768DH         LINE#         170
  C:769FH         LINE#         171
  C:769FH         LINE#         172
  C:76AFH         LINE#         173
  C:76AFH         LINE#         174
  C:76AFH         LINE#         175
  C:76AFH         LINE#         176
  C:76B0H         LINE#         178
  C:76B0H         LINE#         179
  C:76B2H         LINE#         180
  C:76B2H         LINE#         181
  C:76B3H         LINE#         183
  C:76B3H         LINE#         184
  C:76B5H         LINE#         186
  C:76B5H         LINE#         187
  C:76B6H         LINE#         189
  C:76B6H         LINE#         190
  C:76B8H         LINE#         192
  C:76B8H         LINE#         194
  C:76B9H         LINE#         196
  C:76B9H         LINE#         197
  C:76BBH         LINE#         199
  C:76BBH         LINE#         200
  C:76BCH         LINE#         202
  C:76BCH         LINE#         203
  C:76BEH         LINE#         205
  C:76BEH         LINE#         206
  C:76BFH         LINE#         208
  C:76BFH         LINE#         209
  C:76C1H         LINE#         211
  C:76C1H         LINE#         212
  C:76C2H         LINE#         214
  C:76C2H         LINE#         215
  C:76C4H         LINE#         217
  C:76C4H         LINE#         218
BL51 BANKED LINKER/LOCATER V6.22.2.0                                                  09/07/2021  11:24:22  PAGE 35


  C:76C4H         LINE#         220
  C:76C5H         LINE#         222
  C:76C5H         LINE#         223
  C:76C7H         LINE#         225
  C:76C7H         LINE#         227
  C:76C8H         LINE#         230
  C:76C8H         LINE#         231
  C:76CAH         LINE#         233
  C:76CAH         LINE#         235
  C:76CBH         LINE#         238
  C:76CBH         LINE#         239
  C:76CDH         LINE#         241
  C:76CDH         LINE#         243
  C:76CDH         LINE#         245
  -------         ENDPROC       _VALIDAR_CLK
  -------         PROC          _BLOCK_WRITE_CLOCK_ASCII
  X:0011H         SYMBOL        datos_clock
  -------         DO            
  D:0007H         SYMBOL        temp
  -------         ENDDO         
  C:9994H         LINE#         251
  C:999FH         LINE#         253
  C:999FH         LINE#         256
  C:99A8H         LINE#         257
  C:99B1H         LINE#         259
  C:99BBH         LINE#         260
  C:99BBH         LINE#         261
  C:99BBH         LINE#         262
  C:99BBH         LINE#         264
  C:99C5H         LINE#         265
  C:99CFH         LINE#         266
  C:99D9H         LINE#         267
  C:99D9H         LINE#         268
  C:99D9H         LINE#         269
  C:99D9H         LINE#         271
  C:99E3H         LINE#         272
  C:99E3H         LINE#         273
  C:99E3H         LINE#         274
  C:99E3H         LINE#         276
  C:99EDH         LINE#         277
  C:99EDH         LINE#         278
  C:99EDH         LINE#         279
  C:99EDH         LINE#         281
  C:99F7H         LINE#         282
  C:99F7H         LINE#         283
  C:99F7H         LINE#         284
  C:99F7H         LINE#         286
  C:9A01H         LINE#         287
  C:9A0BH         LINE#         288
  C:9A15H         LINE#         289
  C:9A1FH         LINE#         291
  C:9A2FH         LINE#         292
  -------         ENDPROC       _BLOCK_WRITE_CLOCK_ASCII
  -------         PROC          _BCD_HEX
  D:0007H         SYMBOL        l_data
  -------         DO            
  D:0006H         SYMBOL        temp
BL51 BANKED LINKER/LOCATER V6.22.2.0                                                  09/07/2021  11:24:22  PAGE 36


  D:0005H         SYMBOL        j
  -------         ENDDO         
  C:BC59H         LINE#         298
  C:BC59H         LINE#         299
  C:BC59H         LINE#         301
  C:BC5BH         LINE#         302
  C:BC5FH         LINE#         303
  C:BC62H         LINE#         304
  C:BC64H         LINE#         305
  C:BC64H         LINE#         306
  C:BC68H         LINE#         307
  C:BC6FH         LINE#         308
  C:BC6FH         LINE#         309
  C:BC73H         LINE#         310
  C:BC76H         LINE#         311
  C:BC76H         LINE#         312
  C:BC76H         LINE#         313
  -------         ENDPROC       _BCD_HEX
  C:B6BDH         SYMBOL        L?0082
  -------         PROC          L?0081
  -------         ENDPROC       L?0081
  C:B6BDH         SYMBOL        L?0082
  -------         PROC          _HEX_BCD
  D:0007H         SYMBOL        byte
  -------         DO            
  D:0006H         SYMBOL        nibble_h
  D:0005H         SYMBOL        nibble_l
  D:0004H         SYMBOL        k
  D:0007H         SYMBOL        byte_out
  -------         ENDDO         
  C:B6CCH         LINE#         317
  C:B6CCH         LINE#         318
  C:B6CCH         LINE#         323
  C:B6CEH         LINE#         324
  C:B6CFH         LINE#         326
  C:B6D5H         LINE#         327
  C:B6D5H         LINE#         328
  C:B6D6H         LINE#         329
  C:B6DBH         LINE#         330
  C:B6DBH         LINE#         331
  C:B6DCH         LINE#         332
  C:B6DDH         LINE#         333
  C:B6DDH         LINE#         334
  C:B6E0H         LINE#         335
  C:B6E4H         LINE#         336
  C:B6E7H         LINE#         337
  C:B6EAH         LINE#         338
  C:B6ECH         LINE#         339
  C:B6ECH         LINE#         341
  -------         ENDPROC       _HEX_BCD
  -------         PROC          _HEX_ASCII
  X:005DH         SYMBOL        datos
  X:0060H         SYMBOL        fecha_asii
  -------         DO            
  D:0007H         SYMBOL        dato
  -------         ENDDO         
  C:9DD6H         LINE#         342
BL51 BANKED LINKER/LOCATER V6.22.2.0                                                  09/07/2021  11:24:22  PAGE 37


  C:9DE1H         LINE#         343
  C:9DE1H         LINE#         347
  C:9DE4H         LINE#         348
  C:9DFCH         LINE#         349
  C:9E11H         LINE#         350
  C:9E11H         LINE#         352
  C:9E14H         LINE#         353
  C:9E2FH         LINE#         354
  C:9E37H         LINE#         355
  C:9E37H         LINE#         357
  C:9E3AH         LINE#         358
  C:9E55H         LINE#         359
  C:9E60H         LINE#         361
  -------         ENDPROC       _HEX_ASCII
  -------         PROC          _BYTEHEX_DECIMAL
  D:0001H         SYMBOL        buffer
  D:0005H         SYMBOL        valorhex
  -------         DO            
  X:0018H         SYMBOL        numero
  D:0007H         SYMBOL        centena
  D:0006H         SYMBOL        decena
  -------         ENDDO         
  C:AD86H         LINE#         369
  C:AD86H         LINE#         370
  C:AD86H         LINE#         373
  C:AD88H         LINE#         374
  C:AD89H         LINE#         375
  C:AD8EH         LINE#         377
  C:AD9BH         LINE#         378
  C:AD9BH         LINE#         379
  C:AD9FH         LINE#         380
  C:ADA0H         LINE#         381
  C:ADA2H         LINE#         382
  C:ADA8H         LINE#         383
  C:ADAFH         LINE#         384
  C:ADBCH         LINE#         385
  C:ADBCH         LINE#         386
  C:ADC0H         LINE#         387
  C:ADC1H         LINE#         388
  C:ADC3H         LINE#         389
  C:ADC9H         LINE#         390
  C:ADD0H         LINE#         391
  C:ADD9H         LINE#         392
  C:ADE0H         LINE#         393
  -------         ENDPROC       _BYTEHEX_DECIMAL
  -------         PROC          _TWO_BYTEHEX_DECIMAL
  X:0018H         SYMBOL        buffer
  X:001BH         SYMBOL        id_h
  X:001CH         SYMBOL        id_l
  -------         DO            
  X:001DH         SYMBOL        valor
  D:0006H         SYMBOL        numero
  X:001FH         SYMBOL        temp
  X:0020H         SYMBOL        dmil
  X:0021H         SYMBOL        mil
  X:0022H         SYMBOL        centena
  X:0023H         SYMBOL        decena
BL51 BANKED LINKER/LOCATER V6.22.2.0                                                  09/07/2021  11:24:22  PAGE 38


  -------         ENDDO         
  C:45DFH         LINE#         400
  C:45EDH         LINE#         401
  C:45EDH         LINE#         405
  C:45F4H         LINE#         406
  C:45F8H         LINE#         407
  C:45FAH         LINE#         408
  C:45FCH         LINE#         409
  C:45FEH         LINE#         412
  C:4603H         LINE#         413
  C:4606H         LINE#         414
  C:460CH         LINE#         416
  C:4667H         LINE#         417
  C:466FH         LINE#         418
  C:4672H         LINE#         419
  C:46CDH         LINE#         421
  C:46D5H         LINE#         422
  C:46D8H         LINE#         423
  C:46DEH         LINE#         424
  C:4739H         LINE#         425
  C:4741H         LINE#         426
  C:4744H         LINE#         427
  C:479FH         LINE#         428
  C:479FH         LINE#         430
  C:47A8H         LINE#         431
  C:47A8H         LINE#         432
  C:47B0H         LINE#         433
  C:47B6H         LINE#         434
  C:47B8H         LINE#         435
  C:47CEH         LINE#         436
  C:47D8H         LINE#         437
  C:47E1H         LINE#         438
  C:47E1H         LINE#         439
  C:47E9H         LINE#         440
  C:47EFH         LINE#         441
  C:47F1H         LINE#         442
  C:4807H         LINE#         443
  C:4811H         LINE#         444
  C:481AH         LINE#         445
  C:481AH         LINE#         446
  C:4822H         LINE#         447
  C:4828H         LINE#         448
  C:482AH         LINE#         449
  C:4840H         LINE#         450
  C:484AH         LINE#         451
  C:4853H         LINE#         452
  C:4853H         LINE#         453
  C:485BH         LINE#         454
  C:4861H         LINE#         455
  C:4863H         LINE#         456
  C:4879H         LINE#         457
  C:4883H         LINE#         458
  C:4896H         LINE#         459
  C:48A0H         LINE#         460
  -------         ENDPROC       _TWO_BYTEHEX_DECIMAL
  -------         PROC          _BLOCK_READ_CLOCK_ASCII
  X:0051H         SYMBOL        datos_clock
BL51 BANKED LINKER/LOCATER V6.22.2.0                                                  09/07/2021  11:24:22  PAGE 39


  -------         DO            
  D:0007H         SYMBOL        dato
  -------         ENDDO         
  C:6487H         LINE#         466
  C:648AH         LINE#         467
  C:648AH         LINE#         473
  C:648DH         LINE#         474
  C:64A5H         LINE#         475
  C:64AFH         LINE#         476
  C:64C4H         LINE#         477
  C:64CEH         LINE#         480
  C:64D3H         LINE#         481
  C:64EBH         LINE#         482
  C:64F5H         LINE#         483
  C:650AH         LINE#         484
  C:6514H         LINE#         487
  C:6519H         LINE#         488
  C:6531H         LINE#         489
  C:653BH         LINE#         490
  C:6550H         LINE#         491
  C:655AH         LINE#         495
  C:655FH         LINE#         496
  C:6577H         LINE#         497
  C:6581H         LINE#         498
  C:6596H         LINE#         499
  C:65A0H         LINE#         502
  C:65A5H         LINE#         503
  C:65BDH         LINE#         504
  C:65C7H         LINE#         505
  C:65DCH         LINE#         506
  C:65E6H         LINE#         507
  -------         ENDPROC       _BLOCK_READ_CLOCK_ASCII
  -------         PROC          _BLOCK_READ_CLOCK_ASCII_RASBERRY
  X:001EH         SYMBOL        datos_clock
  -------         DO            
  D:0007H         SYMBOL        dato
  -------         ENDDO         
  C:610CH         LINE#         510
  C:6117H         LINE#         511
  C:6117H         LINE#         516
  C:611CH         LINE#         517
  C:6134H         LINE#         518
  C:613EH         LINE#         519
  C:6153H         LINE#         520
  C:615DH         LINE#         523
  C:6162H         LINE#         524
  C:617AH         LINE#         525
  C:6184H         LINE#         526
  C:6199H         LINE#         527
  C:61A3H         LINE#         531
  C:61A8H         LINE#         532
  C:61C0H         LINE#         533
  C:61CAH         LINE#         534
  C:61DFH         LINE#         535
  C:61E9H         LINE#         540
  C:61EEH         LINE#         541
  C:6206H         LINE#         542
BL51 BANKED LINKER/LOCATER V6.22.2.0                                                  09/07/2021  11:24:22  PAGE 40


  C:6210H         LINE#         543
  C:6225H         LINE#         544
  C:622FH         LINE#         547
  C:6234H         LINE#         548
  C:624CH         LINE#         549
  C:6256H         LINE#         550
  C:626BH         LINE#         551
  C:6275H         LINE#         552
  C:6285H         LINE#         553
  C:628FH         LINE#         556
  C:6294H         LINE#         557
  C:62ACH         LINE#         558
  C:62B6H         LINE#         559
  C:62CBH         LINE#         561
  C:62D5H         LINE#         562
  -------         ENDPROC       _BLOCK_READ_CLOCK_ASCII_RASBERRY
  -------         PROC          _BLOCK_READ_CLOCK_HEX
  X:00AEH         SYMBOL        datos_clock
  C:97A7H         LINE#         566
  C:97AAH         LINE#         567
  C:97AAH         LINE#         570
  C:97BFH         LINE#         571
  C:97C9H         LINE#         573
  C:97E0H         LINE#         574
  C:97EAH         LINE#         576
  C:9801H         LINE#         577
  C:980BH         LINE#         579
  C:9822H         LINE#         580
  C:982CH         LINE#         582
  C:9843H         LINE#         583
  -------         ENDPROC       _BLOCK_READ_CLOCK_HEX
  -------         PROC          _HORA_ENTRADA_VEHICULO
  X:0009H         SYMBOL        Atributos_Expedidor
  C:AB70H         LINE#         586
  C:AB73H         LINE#         587
  C:AB73H         LINE#         589
  C:AB88H         LINE#         590
  C:AB9FH         LINE#         591
  C:ABB6H         LINE#         592
  C:ABCDH         LINE#         593
  -------         ENDPROC       _HORA_ENTRADA_VEHICULO
  -------         PROC          _BLOCK_READ_CLOCK
  X:001EH         SYMBOL        datos_clock
  C:8D8DH         LINE#         599
  C:8D90H         LINE#         600
  C:8D90H         LINE#         602
  C:8DA2H         LINE#         603
  C:8DACH         LINE#         605
  C:8DC0H         LINE#         606
  C:8DCAH         LINE#         608
  C:8DDEH         LINE#         609
  C:8DE8H         LINE#         611
  C:8DFCH         LINE#         612
  C:8E06H         LINE#         614
  C:8E1AH         LINE#         615
  C:8E24H         LINE#         617
  C:8E38H         LINE#         618
BL51 BANKED LINKER/LOCATER V6.22.2.0                                                  09/07/2021  11:24:22  PAGE 41


  C:8E42H         LINE#         619
  -------         ENDPROC       _BLOCK_READ_CLOCK
  -------         PROC          COND_INI_CLOCK
  C:BDEDH         LINE#         622
  C:BDEDH         LINE#         623
  C:BDEDH         LINE#         624
  C:BDEFH         LINE#         625
  C:BDF1H         LINE#         626
  C:BDF3H         LINE#         627
  -------         ENDPROC       COND_INI_CLOCK
  -------         PROC          _CHECK_FECHAOUT
  X:009CH         SYMBOL        buffer
  -------         DO            
  X:009FH         SYMBOL        fecha_inicio
  X:00A3H         SYMBOL        fecha_fin
  X:00A7H         SYMBOL        datos_clk
  X:00ADH         SYMBOL        temp
  -------         ENDDO         
  C:8CC4H         LINE#         637
  C:8CCFH         LINE#         638
  C:8CCFH         LINE#         644
  C:8CD8H         LINE#         645
  C:8D07H         LINE#         646
  C:8D5AH         LINE#         649
  C:8D7AH         LINE#         650
  C:8D7AH         LINE#         651
  C:8D80H         LINE#         652
  C:8D82H         LINE#         654
  C:8D82H         LINE#         655
  C:8D87H         LINE#         656
  C:8D87H         LINE#         660
  C:8D8CH         LINE#         661
  -------         ENDPROC       _CHECK_FECHAOUT
  -------         ENDMOD        CLOCK

  -------         MODULE        DELAY
  C:0000H         SYMBOL        _ICE_DUMMY_
  C:B856H         PUBLIC        _Delay_10ms
  C:BD17H         PUBLIC        _Delay_20us
  C:BC77H         PUBLIC        _Delay_1ms
  C:BE38H         PUBLIC        Delay
  -------         PROC          _DELAY_20US
  D:0006H         SYMBOL        cntd_us
  -------         DO            
  D:0004H         SYMBOL        i
  -------         ENDDO         
  C:BD17H         LINE#         20
  C:BD17H         LINE#         21
  C:BD17H         LINE#         24
  C:BD21H         LINE#         26
  C:BD28H         LINE#         27
  -------         ENDPROC       _DELAY_20US
  -------         PROC          _DELAY_1MS
  D:0002H         SYMBOL        cntd_ms
  -------         DO            
  D:0082H         SYMBOL        i
  -------         ENDDO         
BL51 BANKED LINKER/LOCATER V6.22.2.0                                                  09/07/2021  11:24:22  PAGE 42


  C:BC77H         LINE#         38
  C:BC7BH         LINE#         39
  C:BC7BH         LINE#         41
  C:BC91H         LINE#         42
  -------         ENDPROC       _DELAY_1MS
  -------         PROC          _DELAY_10MS
  X:0017H         SYMBOL        cntd_10ms
  -------         DO            
  X:0019H         SYMBOL        i
  -------         ENDDO         
  C:B856H         LINE#         54
  C:B85EH         LINE#         55
  C:B85EH         LINE#         57
  C:B88FH         LINE#         58
  -------         ENDPROC       _DELAY_10MS
  -------         PROC          DELAY
  C:BE38H         LINE#         60
  C:BE38H         LINE#         62
  -------         ENDPROC       DELAY
  -------         ENDMOD        DELAY

  -------         MODULE        EEPROM
  C:0000H         SYMBOL        _ICE_DUMMY_
  C:B7A4H         PUBLIC        confirmacion
  D:0090H         PUBLIC        P1
  C:80BAH         PUBLIC        _Write_EEprom_Ticket
  C:ABE4H         PUBLIC        _EscribirMemoria
  X:0212H         PUBLIC        l_chr
  C:BBFDH         PUBLIC        ackd
  B:0021H.6       PUBLIC        memory_flag
  B:00D0H.7       PUBLIC        CY
  C:BE25H         PUBLIC        p_me
  C:BD31H         PUBLIC        start
  B:0090H.2       PUBLIC        sda
  C:BC1DH         PUBLIC        ack_lect
  B:0090H.3       PUBLIC        scl
  C:B6F1H         PUBLIC        _rd_eeprom
  C:BDDAH         PUBLIC        stop
  C:AEF9H         PUBLIC        Formato_eeprom
  X:0213H         PUBLIC        l_data_eeprom
  C:AF67H         PUBLIC        _wr_eeprom
  C:ACBEH         PUBLIC        _LeerMemoria
  C:B9A5H         PUBLIC        Incremente_Ticket
  X:0214H         PUBLIC        byte_rd
  C:8BFAH         PUBLIC        Read_EEprom_Ticket
  C:BB95H         PUBLIC        _e_d_m
  C:8B2EH         PUBLIC        _graba_serie
  C:B08FH         PUBLIC        Lee_No_Ticket
  C:B042H         PUBLIC        l_d_m
  -------         PROC          L?0069
  -------         ENDPROC       L?0069
  -------         PROC          ACKD
  -------         DO            
  D:0006H         SYMBOL        i
  -------         ENDDO         
  C:BBFDH         LINE#         41
  C:BBFDH         LINE#         42
BL51 BANKED LINKER/LOCATER V6.22.2.0                                                  09/07/2021  11:24:22  PAGE 43


  C:BBFDH         LINE#         44
  C:BBFFH         LINE#         45
  C:BC01H         LINE#         46
  C:BC03H         LINE#         47
  C:BC06H         LINE#         48
  C:BC06H         LINE#         49
  C:BC09H         LINE#         50
  C:BC09H         LINE#         51
  C:BC0BH         LINE#         52
  C:BC0DH         LINE#         54
  C:BC0EH         LINE#         55
  C:BC0EH         LINE#         56
  C:BC19H         LINE#         58
  C:BC19H         LINE#         59
  C:BC19H         LINE#         61
  C:BC19H         LINE#         62
  -------         ENDPROC       ACKD
  -------         PROC          L?0073
  -------         ENDPROC       L?0073
  -------         PROC          ACK_LECT
  -------         DO            
  D:0006H         SYMBOL        i
  -------         ENDDO         
  C:BC1DH         LINE#         65
  C:BC1DH         LINE#         66
  C:BC1DH         LINE#         68
  C:BC1FH         LINE#         69
  C:BC21H         LINE#         70
  C:BC23H         LINE#         71
  C:BC26H         LINE#         72
  C:BC26H         LINE#         73
  C:BC29H         LINE#         74
  C:BC29H         LINE#         75
  C:BC2BH         LINE#         76
  C:BC2DH         LINE#         77
  C:BC2EH         LINE#         78
  C:BC2EH         LINE#         79
  C:BC39H         LINE#         80
  -------         ENDPROC       ACK_LECT
  -------         PROC          P_ME
  C:BE25H         LINE#         82
  C:BE25H         LINE#         83
  C:BE25H         LINE#         84
  C:BE27H         LINE#         85
  C:BE28H         LINE#         86
  C:BE2AH         LINE#         87
  -------         ENDPROC       P_ME
  -------         PROC          _E_D_M
  D:0007H         SYMBOL        a_serial_eeprom
  -------         DO            
  D:0006H         SYMBOL        nbits
  -------         ENDDO         
  C:BB95H         LINE#         89
  C:BB95H         LINE#         90
  C:BB95H         LINE#         92
  C:BBA1H         LINE#         93
  C:BBA1H         LINE#         94
BL51 BANKED LINKER/LOCATER V6.22.2.0                                                  09/07/2021  11:24:22  PAGE 44


  C:BBA5H         LINE#         95
  C:BBA8H         LINE#         96
  C:BBA8H         LINE#         97
  C:BBAAH         LINE#         98
  C:BBACH         LINE#         100
  C:BBACH         LINE#         101
  C:BBAEH         LINE#         102
  C:BBAEH         LINE#         103
  C:BBB0H         LINE#         104
  C:BBB3H         LINE#         105
  C:BBB6H         LINE#         107
  -------         ENDPROC       _E_D_M
  -------         PROC          L?0070
  -------         ENDPROC       L?0070
  -------         PROC          START
  C:BD31H         LINE#         109
  C:BD31H         LINE#         110
  C:BD31H         LINE#         111
  C:BD33H         LINE#         112
  C:BD35H         LINE#         113
  C:BD36H         LINE#         114
  C:BD38H         LINE#         115
  C:BD3AH         LINE#         117
  -------         ENDPROC       START
  -------         PROC          STOP
  C:BDDAH         LINE#         119
  C:BDDAH         LINE#         120
  C:BDDAH         LINE#         121
  C:BDDCH         LINE#         122
  C:BDDEH         LINE#         123
  C:BDDFH         LINE#         124
  C:BDE1H         LINE#         125
  C:BDE3H         LINE#         127
  -------         ENDPROC       STOP
  -------         PROC          L_D_M
  -------         DO            
  D:0003H         SYMBOL        nbits
  -------         ENDDO         
  C:B042H         LINE#         129
  C:B042H         LINE#         130
  C:B042H         LINE#         132
  C:B04FH         LINE#         133
  C:B04FH         LINE#         134
  C:B051H         LINE#         135
  C:B054H         LINE#         136
  C:B054H         LINE#         137
  C:B05BH         LINE#         138
  C:B064H         LINE#         139
  C:B064H         LINE#         140
  C:B068H         LINE#         141
  C:B06AH         LINE#         142
  C:B06AH         LINE#         143
  C:B06AH         LINE#         144
  C:B06DH         LINE#         145
  C:B06DH         LINE#         146
  C:B074H         LINE#         147
  C:B07EH         LINE#         148
BL51 BANKED LINKER/LOCATER V6.22.2.0                                                  09/07/2021  11:24:22  PAGE 45


  C:B07EH         LINE#         149
  C:B082H         LINE#         150
  C:B084H         LINE#         151
  C:B084H         LINE#         152
  C:B084H         LINE#         153
  C:B087H         LINE#         154
  C:B089H         LINE#         155
  C:B08EH         LINE#         156
  -------         ENDPROC       L_D_M
  -------         PROC          L?0068
  -------         ENDPROC       L?0068
  -------         PROC          _WR_EEPROM
  D:0002H         SYMBOL        control
  D:0004H         SYMBOL        Dir
  D:0003H         SYMBOL        data_eeprom
  -------         DO            
  D:0005H         SYMBOL        dir_h
  D:0001H         SYMBOL        dir_l
  -------         ENDDO         
  C:AF67H         LINE#         162
  C:AF69H         LINE#         163
  C:AF69H         LINE#         165
  C:AF6DH         LINE#         166
  C:AF6DH         LINE#         167
  C:AF6DH         LINE#         170
  C:AF6DH         LINE#         171
  C:AF6DH         LINE#         173
  C:AF70H         LINE#         174
  C:AF72H         LINE#         175
  C:AF75H         LINE#         176
  C:AF77H         LINE#         177
  C:AF7AH         LINE#         178
  C:AF7FH         LINE#         179
  C:AF82H         LINE#         180
  C:AF87H         LINE#         181
  C:AF8AH         LINE#         182
  C:AF8DH         LINE#         183
  C:AF94H         LINE#         185
  C:AF96H         LINE#         186
  C:AF98H         LINE#         187
  C:AF9FH         LINE#         188
  -------         ENDPROC       _WR_EEPROM
  C:B6EDH         SYMBOL        L?0072
  -------         PROC          L?0071
  -------         ENDPROC       L?0071
  C:B6EDH         SYMBOL        L?0072
  -------         PROC          _RD_EEPROM
  D:0003H         SYMBOL        control
  D:0004H         SYMBOL        Dir
  -------         DO            
  D:0005H         SYMBOL        dir_h
  D:0002H         SYMBOL        dir_l
  -------         ENDDO         
  C:B6F1H         LINE#         226
  C:B6F3H         LINE#         227
  C:B6F3H         LINE#         230
  C:B6F7H         LINE#         231
BL51 BANKED LINKER/LOCATER V6.22.2.0                                                  09/07/2021  11:24:22  PAGE 46


  C:B6F7H         LINE#         232
  C:B6F7H         LINE#         234
  C:B6F7H         LINE#         235
  C:B6F7H         LINE#         237
  C:B6FAH         LINE#         238
  C:B6FCH         LINE#         239
  C:B6FFH         LINE#         240
  C:B701H         LINE#         241
  C:B704H         LINE#         242
  C:B709H         LINE#         243
  C:B70CH         LINE#         244
  C:B70FH         LINE#         245
  C:B715H         LINE#         246
  C:B718H         LINE#         247
  C:B71AH         LINE#         248
  C:B71DH         LINE#         249
  C:B720H         LINE#         250
  C:B722H         LINE#         251
  C:B724H         LINE#         252
  C:B729H         LINE#         253
  -------         ENDPROC       _RD_EEPROM
  -------         PROC          _GRABA_SERIE
  X:0011H         SYMBOL        buffer
  -------         DO            
  X:0014H         SYMBOL        j
  X:0015H         SYMBOL        error
  -------         ENDDO         
  C:8B2EH         LINE#         260
  C:8B39H         LINE#         261
  C:8B39H         LINE#         264
  C:8B3EH         LINE#         269
  C:8B50H         LINE#         271
  C:8B63H         LINE#         272
  C:8B63H         LINE#         273
  C:8B8CH         LINE#         274
  C:8B8CH         LINE#         275
  C:8B92H         LINE#         277
  C:8B9BH         LINE#         278
  C:8BA9H         LINE#         279
  C:8BB2H         LINE#         280
  C:8BB2H         LINE#         282
  C:8BBAH         LINE#         286
  C:8BC0H         LINE#         287
  C:8BC0H         LINE#         288
  C:8BCEH         LINE#         290
  C:8BCEH         LINE#         292
  C:8BCEH         LINE#         293
  C:8BD8H         LINE#         294
  C:8BE3H         LINE#         295
  C:8BEEH         LINE#         296
  C:8BF9H         LINE#         298
  C:8BF9H         LINE#         299
  -------         ENDPROC       _GRABA_SERIE
  -------         PROC          _WRITE_EEPROM_TICKET
  X:0016H         SYMBOL        buffer
  -------         DO            
  X:0019H         SYMBOL        cod_3
BL51 BANKED LINKER/LOCATER V6.22.2.0                                                  09/07/2021  11:24:22  PAGE 47


  X:001AH         SYMBOL        cod_2
  X:001BH         SYMBOL        cod_1
  X:001CH         SYMBOL        cod_0
  X:001DH         SYMBOL        Noticket
  D:0004H         SYMBOL        Bnoticket
  -------         ENDDO         
  C:80BAH         LINE#         300
  C:80C5H         LINE#         301
  C:80C5H         LINE#         303
  C:80CDH         LINE#         304
  C:80D6H         LINE#         305
  C:80E4H         LINE#         306
  C:80EDH         LINE#         307
  C:8101H         LINE#         309
  C:810AH         LINE#         310
  C:811DH         LINE#         311
  C:8122H         LINE#         312
  C:8125H         LINE#         314
  C:8138H         LINE#         315
  C:813DH         LINE#         316
  C:8140H         LINE#         318
  C:8153H         LINE#         319
  C:8158H         LINE#         320
  C:815BH         LINE#         322
  C:8167H         LINE#         323
  C:816AH         LINE#         324
  C:8173H         LINE#         326
  C:8181H         LINE#         327
  C:818FH         LINE#         328
  C:819DH         LINE#         329
  -------         ENDPROC       _WRITE_EEPROM_TICKET
  -------         PROC          LEE_NO_TICKET
  -------         DO            
  D:0004H         SYMBOL        Noticket
  X:0059H         SYMBOL        Lee_No_Ticket
  D:0007H         SYMBOL        num_chr
  -------         ENDDO         
  C:B08FH         LINE#         334
  C:B08FH         LINE#         335
  C:B08FH         LINE#         339
  C:B092H         LINE#         340
  C:B0ADH         LINE#         341
  C:B0B6H         LINE#         342
  C:B0C2H         LINE#         343
  C:B0CBH         LINE#         344
  C:B0D4H         LINE#         345
  C:B0DAH         LINE#         346
  -------         ENDPROC       LEE_NO_TICKET
  -------         PROC          READ_EEPROM_TICKET
  -------         DO            
  D:0001H         SYMBOL        cod3
  X:0064H         SYMBOL        cod2
  X:0065H         SYMBOL        cod1
  X:0066H         SYMBOL        cod0
  X:0067H         SYMBOL        Noticket
  -------         ENDDO         
  C:8BFAH         LINE#         350
BL51 BANKED LINKER/LOCATER V6.22.2.0                                                  09/07/2021  11:24:22  PAGE 48


  C:8BFAH         LINE#         351
  C:8BFAH         LINE#         353
  C:8C04H         LINE#         354
  C:8C0BH         LINE#         355
  C:8C15H         LINE#         356
  C:8C23H         LINE#         357
  C:8C2DH         LINE#         359
  C:8C4DH         LINE#         360
  C:8C72H         LINE#         361
  C:8C97H         LINE#         362
  C:8CB5H         LINE#         363
  C:8CC3H         LINE#         364
  -------         ENDPROC       READ_EEPROM_TICKET
  -------         PROC          INCREMENTE_TICKET
  -------         DO            
  D:0004H         SYMBOL        Noticket
  X:0009H         SYMBOL        Lee_No_Ticket
  -------         ENDDO         
  C:B9A5H         LINE#         368
  C:B9A5H         LINE#         369
  C:B9A5H         LINE#         373
  C:B9A8H         LINE#         374
  C:B9B5H         LINE#         375
  C:B9D0H         LINE#         376
  -------         ENDPROC       INCREMENTE_TICKET
  -------         PROC          _LEERMEMORIA
  X:009CH         SYMBOL        addres
  X:009EH         SYMBOL        res
  -------         DO            
  D:0007H         SYMBOL        i
  -------         ENDDO         
  C:ACBEH         LINE#         382
  C:ACCFH         LINE#         383
  C:ACCFH         LINE#         385
  C:ACCFH         LINE#         386
  C:ACEBH         LINE#         387
  C:ACFAH         LINE#         388
  C:AD08H         LINE#         389
  C:AD12H         LINE#         390
  C:AD15H         LINE#         391
  -------         ENDPROC       _LEERMEMORIA
  -------         PROC          _ESCRIBIRMEMORIA
  X:005DH         SYMBOL        addres
  X:005FH         SYMBOL        res
  C:ABE4H         LINE#         393
  C:ABF5H         LINE#         394
  C:ABF5H         LINE#         397
  C:AC05H         LINE#         398
  C:AC0CH         LINE#         399
  C:AC0FH         LINE#         401
  C:AC1DH         LINE#         402
  C:AC27H         LINE#         403
  C:AC29H         LINE#         404
  C:AC2CH         LINE#         405
  C:AC3AH         LINE#         406
  C:AC44H         LINE#         407
  -------         ENDPROC       _ESCRIBIRMEMORIA
BL51 BANKED LINKER/LOCATER V6.22.2.0                                                  09/07/2021  11:24:22  PAGE 49


  -------         PROC          CONFIRMACION
  -------         DO            
  X:0011H         SYMBOL        hora
  D:0007H         SYMBOL        temp
  -------         ENDDO         
  C:B7A4H         LINE#         410
  C:B7A4H         LINE#         411
  C:B7A4H         LINE#         413
  C:B7A6H         LINE#         414
  C:B7AFH         LINE#         416
  C:B7B5H         LINE#         417
  C:B7B9H         LINE#         418
  C:B7B9H         LINE#         420
  C:B7BDH         LINE#         421
  C:B7C6H         LINE#         422
  C:B7C6H         LINE#         424
  C:B7CBH         LINE#         425
  C:B7CDH         LINE#         426
  C:B7CDH         LINE#         428
  C:B7D1H         LINE#         429
  C:B7DAH         LINE#         430
  C:B7DAH         LINE#         431
  C:B7DAH         LINE#         432
  C:B7DAH         LINE#         433
  C:B7DCH         LINE#         435
  C:B7DCH         LINE#         436
  C:B7DFH         LINE#         437
  C:B7DFH         LINE#         438
  C:B7DFH         LINE#         439
  C:B7DFH         LINE#         442
  -------         ENDPROC       CONFIRMACION
  -------         PROC          FORMATO_EEPROM
  -------         DO            
  X:001CH         SYMBOL        dato
  X:001DH         SYMBOL        i
  X:001FH         SYMBOL        password
  -------         ENDDO         
  C:AEF9H         LINE#         443
  C:AEF9H         LINE#         444
  C:AEF9H         LINE#         445
  C:AEFFH         LINE#         448
  C:AF14H         LINE#         449
  C:AF14H         LINE#         450
  C:AF1EH         LINE#         451
  C:AF2EH         LINE#         452
  C:AF38H         LINE#         453
  C:AF47H         LINE#         454
  -------         ENDPROC       FORMATO_EEPROM
  -------         ENDMOD        EEPROM

  -------         MODULE        IO_SENSORES
  C:0000H         SYMBOL        _ICE_DUMMY_
  D:0090H         PUBLIC        P1
  D:00B0H         PUBLIC        P3
  C:B3EEH         PUBLIC        Dir_board
  B:0021H.7       PUBLIC        PULSADOR_BOTTON
  C:BE02H         PUBLIC        sel_Pulsa
BL51 BANKED LINKER/LOCATER V6.22.2.0                                                  09/07/2021  11:24:22  PAGE 50


  B:0090H.1       PUBLIC        DataIn
  C:BCC3H         PUBLIC        Dir_Board_Monitor
  C:BDFBH         PUBLIC        sel_Auto
  C:B8C9H         PUBLIC        ValidaSensoresPaso
  B:00B0H.3       PUBLIC        busy
  C:BC3AH         PUBLIC        ValidaSensor
  C:BE10H         PUBLIC        sel_Sensor1
  C:BE09H         PUBLIC        sel_Sensor2
  C:BBB7H         PUBLIC        ValidaSensor_cero
  C:AE9EH         PUBLIC        Valida_Sensor1_Auto
  B:00B0H.5       PUBLIC        sel_A
  B:00B0H.6       PUBLIC        sel_B
  B:00B0H.7       PUBLIC        sel_C
  C:95A5H         PUBLIC        msj_lcd_informativo
  C:BE17H         PUBLIC        sel_Dir1
  C:BE1EH         PUBLIC        sel_Dir2
  C:BD3BH         PUBLIC        Botton
  C:BDF4H         PUBLIC        sel_Funcion
  -------         PROC          SEL_FUNCION
  C:BDF4H         LINE#         34
  C:BDF4H         LINE#         35
  C:BDF4H         LINE#         36
  C:BDF6H         LINE#         37
  C:BDF8H         LINE#         38
  C:BDFAH         LINE#         39
  -------         ENDPROC       SEL_FUNCION
  -------         PROC          SEL_AUTO
  C:BDFBH         LINE#         41
  C:BDFBH         LINE#         42
  C:BDFBH         LINE#         43
  C:BDFDH         LINE#         44
  C:BDFFH         LINE#         45
  C:BE01H         LINE#         46
  -------         ENDPROC       SEL_AUTO
  -------         PROC          SEL_PULSA
  C:BE02H         LINE#         48
  C:BE02H         LINE#         49
  C:BE02H         LINE#         50
  C:BE04H         LINE#         51
  C:BE06H         LINE#         52
  C:BE08H         LINE#         53
  -------         ENDPROC       SEL_PULSA
  -------         PROC          SEL_SENSOR2
  C:BE09H         LINE#         56
  C:BE09H         LINE#         57
  C:BE09H         LINE#         58
  C:BE0BH         LINE#         59
  C:BE0DH         LINE#         60
  C:BE0FH         LINE#         61
  -------         ENDPROC       SEL_SENSOR2
  -------         PROC          SEL_SENSOR1
  C:BE10H         LINE#         63
  C:BE10H         LINE#         64
  C:BE10H         LINE#         65
  C:BE12H         LINE#         66
  C:BE14H         LINE#         67
  C:BE16H         LINE#         68
BL51 BANKED LINKER/LOCATER V6.22.2.0                                                  09/07/2021  11:24:22  PAGE 51


  -------         ENDPROC       SEL_SENSOR1
  -------         PROC          SEL_DIR1
  C:BE17H         LINE#         70
  C:BE17H         LINE#         71
  C:BE17H         LINE#         72
  C:BE19H         LINE#         73
  C:BE1BH         LINE#         74
  C:BE1DH         LINE#         75
  -------         ENDPROC       SEL_DIR1
  -------         PROC          SEL_DIR2
  C:BE1EH         LINE#         77
  C:BE1EH         LINE#         78
  C:BE1EH         LINE#         79
  C:BE20H         LINE#         80
  C:BE22H         LINE#         81
  C:BE24H         LINE#         82
  -------         ENDPROC       SEL_DIR2
  -------         PROC          BOTTON
  C:BD3BH         LINE#         83
  C:BD3BH         LINE#         84
  C:BD3BH         LINE#         85
  C:BD3EH         LINE#         86
  C:BD41H         LINE#         87
  C:BD41H         LINE#         88
  C:BD4AH         LINE#         89
  C:BD4CH         LINE#         90
  C:BD4CH         LINE#         92
  -------         ENDPROC       BOTTON
  -------         PROC          VALIDASENSOR
  -------         DO            
  D:0007H         SYMBOL        Valido
  D:0004H         SYMBOL        Tmin
  -------         ENDDO         
  C:BC3AH         LINE#         94
  C:BC3AH         LINE#         95
  C:BC3AH         LINE#         97
  C:BC3CH         LINE#         98
  C:BC40H         LINE#         99
  C:BC4BH         LINE#         100
  C:BC4BH         LINE#         101
  C:BC50H         LINE#         102
  C:BC54H         LINE#         103
  C:BC54H         LINE#         104
  C:BC56H         LINE#         105
  C:BC56H         LINE#         106
  C:BC58H         LINE#         107
  C:BC58H         LINE#         108
  -------         ENDPROC       VALIDASENSOR
  -------         PROC          VALIDASENSOR_CERO
  -------         DO            
  D:0007H         SYMBOL        Valido
  D:0004H         SYMBOL        Tmin
  -------         ENDDO         
  C:BBB7H         LINE#         109
  C:BBB7H         LINE#         110
  C:BBB7H         LINE#         112
  C:BBB9H         LINE#         113
BL51 BANKED LINKER/LOCATER V6.22.2.0                                                  09/07/2021  11:24:22  PAGE 52


  C:BBBDH         LINE#         114
  C:BBCCH         LINE#         115
  C:BBCCH         LINE#         116
  C:BBD1H         LINE#         117
  C:BBD5H         LINE#         118
  C:BBD5H         LINE#         119
  C:BBD6H         LINE#         120
  C:BBD6H         LINE#         121
  C:BBD8H         LINE#         122
  C:BBD8H         LINE#         123
  -------         ENDPROC       VALIDASENSOR_CERO
  -------         PROC          DIR_BOARD
  -------         DO            
  X:0033H         SYMBOL        Board
  D:0007H         SYMBOL        Board_High
  -------         ENDDO         
  C:B3EEH         LINE#         127
  C:B3EEH         LINE#         128
  C:B3EEH         LINE#         129
  C:B3F4H         LINE#         131
  C:B3F7H         LINE#         132
  C:B3FAH         LINE#         133
  C:B3FAH         LINE#         134
  C:B3FDH         LINE#         135
  C:B3FDH         LINE#         136
  C:B400H         LINE#         137
  C:B403H         LINE#         138
  C:B403H         LINE#         139
  C:B40AH         LINE#         140
  C:B40AH         LINE#         141
  C:B412H         LINE#         142
  C:B412H         LINE#         143
  C:B41AH         LINE#         145
  C:B41DH         LINE#         146
  C:B41DH         LINE#         147
  C:B423H         LINE#         148
  C:B423H         LINE#         149
  C:B425H         LINE#         150
  C:B427H         LINE#         151
  C:B429H         LINE#         152
  C:B429H         LINE#         154
  C:B429H         LINE#         155
  C:B430H         LINE#         156
  -------         ENDPROC       DIR_BOARD
  -------         PROC          DIR_BOARD_MONITOR
  -------         DO            
  D:0007H         SYMBOL        Board_High
  -------         ENDDO         
  C:BCC3H         LINE#         157
  C:BCC3H         LINE#         158
  C:BCC3H         LINE#         161
  C:BCCCH         LINE#         162
  C:BCCFH         LINE#         163
  C:BCCFH         LINE#         164
  C:BCD2H         LINE#         165
  C:BCD2H         LINE#         166
  C:BCD4H         LINE#         167
BL51 BANKED LINKER/LOCATER V6.22.2.0                                                  09/07/2021  11:24:22  PAGE 53


  C:BCD4H         LINE#         168
  C:BCD4H         LINE#         169
  C:BCD8H         LINE#         170
  -------         ENDPROC       DIR_BOARD_MONITOR
  -------         PROC          VALIDA_SENSOR1_AUTO
  -------         DO            
  X:0012H         SYMBOL        sensor
  -------         ENDDO         
  C:AE9EH         LINE#         174
  C:AE9EH         LINE#         175
  C:AE9EH         LINE#         177
  C:AEA1H         LINE#         178
  C:AEA4H         LINE#         179
  C:AEA7H         LINE#         180
  C:AEACH         LINE#         181
  C:AEACH         LINE#         182
  C:AEB3H         LINE#         183
  C:AEB7H         LINE#         184
  C:AEB7H         LINE#         185
  C:AEB7H         LINE#         186
  C:AEB9H         LINE#         188
  C:AEB9H         LINE#         189
  C:AEC0H         LINE#         190
  C:AEC5H         LINE#         191
  C:AEC5H         LINE#         192
  C:AEC5H         LINE#         193
  C:AEC5H         LINE#         196
  C:AEC7H         LINE#         198
  C:AECAH         LINE#         199
  C:AECFH         LINE#         200
  C:AECFH         LINE#         202
  C:AED6H         LINE#         203
  C:AEDCH         LINE#         204
  C:AEE2H         LINE#         205
  C:AEE5H         LINE#         206
  C:AEE7H         LINE#         208
  C:AEE7H         LINE#         209
  C:AEEEH         LINE#         210
  C:AEF3H         LINE#         211
  C:AEF3H         LINE#         214
  C:AEF3H         LINE#         216
  C:AEF8H         LINE#         217
  -------         ENDPROC       VALIDA_SENSOR1_AUTO
  -------         PROC          VALIDASENSORESPASO
  -------         DO            
  X:0011H         SYMBOL        sensor
  -------         ENDDO         
  C:B8C9H         LINE#         222
  C:B8C9H         LINE#         223
  C:B8C9H         LINE#         225
  C:B8CCH         LINE#         226
  C:B8CFH         LINE#         227
  C:B8CFH         LINE#         228
  C:B8DDH         LINE#         229
  C:B8DDH         LINE#         230
  C:B8E5H         LINE#         232
  C:B8E7H         LINE#         234
BL51 BANKED LINKER/LOCATER V6.22.2.0                                                  09/07/2021  11:24:22  PAGE 54


  C:B8E7H         LINE#         235
  C:B8EDH         LINE#         236
  C:B8EFH         LINE#         237
  C:B8EFH         LINE#         238
  C:B8EFH         LINE#         239
  C:B8EFH         LINE#         240
  C:B8F8H         LINE#         241
  C:B8FBH         LINE#         242
  C:B8FBH         LINE#         243
  C:B900H         LINE#         244
  -------         ENDPROC       VALIDASENSORESPASO
  -------         PROC          MSJ_LCD_INFORMATIVO
  -------         DO            
  X:021BH         SYMBOL        contador
  X:0001H         SYMBOL        info
  X:021CH         SYMBOL        toggle
  -------         ENDDO         
  C:95A5H         LINE#         257
  C:95A5H         LINE#         258
  C:95A5H         LINE#         260
  C:95AAH         LINE#         262
  C:95B0H         LINE#         263
  C:95BDH         LINE#         264
  C:95BDH         LINE#         266
  C:95BFH         LINE#         267
  C:95C2H         LINE#         268
  C:95CEH         LINE#         269
  C:95CEH         LINE#         270
  C:95D8H         LINE#         271
  C:95D8H         LINE#         273
  C:95E1H         LINE#         274
  C:95E9H         LINE#         275
  C:95F1H         LINE#         276
  C:95FDH         LINE#         277
  C:95FDH         LINE#         279
  C:9600H         LINE#         280
  C:9600H         LINE#         281
  C:9602H         LINE#         282
  C:9605H         LINE#         283
  C:960BH         LINE#         284
  C:960BH         LINE#         285
  C:9619H         LINE#         286
  C:9619H         LINE#         287
  C:961FH         LINE#         288
  C:961FH         LINE#         289
  C:9621H         LINE#         290
  C:962FH         LINE#         291
  C:962FH         LINE#         292
  C:9638H         LINE#         293
  C:963BH         LINE#         294
  C:963BH         LINE#         295
  C:9640H         LINE#         296
  C:9643H         LINE#         297
  C:9648H         LINE#         298
  C:9648H         LINE#         299
  C:9648H         LINE#         300
  C:9648H         LINE#         301
BL51 BANKED LINKER/LOCATER V6.22.2.0                                                  09/07/2021  11:24:22  PAGE 55


  C:9648H         LINE#         302
  C:964BH         LINE#         303
  C:964EH         LINE#         304
  C:964EH         LINE#         305
  C:9653H         LINE#         306
  C:9653H         LINE#         307
  C:9653H         LINE#         308
  -------         ENDPROC       MSJ_LCD_INFORMATIVO
  -------         ENDMOD        IO_SENSORES

  -------         MODULE        PANTALLAS
  C:0000H         SYMBOL        _ICE_DUMMY_
  D:0080H         PUBLIC        P0
  C:AA06H         PUBLIC        Reloj_Pantalla_Lcd
  C:2D60H         PUBLIC        _PantallaLCD
  C:B3B2H         PUBLIC        _LCD_txt
  C:A688H         PUBLIC        _Raspberry_data
  C:BB51H         PUBLIC        _tx_chrlcd
  C:268FH         SYMBOL        _?ix1000
  C:2695H         SYMBOL        _?ix1001
  C:269BH         SYMBOL        _?ix1002
  C:26C3H         SYMBOL        _?ix1003
  C:B31EH         PUBLIC        _LCD_txt_num_char
  C:4B66H         PUBLIC        _PantallaLCD_LINEA_2
  B:0098H.4       PUBLIC        REN
  B:0080H.7       PUBLIC        sel_com
  -------         PROC          _PANTALLALCD
  X:0018H         SYMBOL        cod_msg
  -------         DO            
  X:0019H         SYMBOL        Ini_LCD_Line_one
  X:001FH         SYMBOL        num_chr
  X:0020H         SYMBOL        msjpantalla
  -------         ENDDO         
  C:2D60H         LINE#         96
  C:2D65H         LINE#         97
  C:2D65H         LINE#         99
  C:2D78H         LINE#         108
  C:2D7AH         LINE#         110
  C:2D83H         LINE#         111
  C:2D83H         LINE#         112
  C:2D8DH         LINE#         114
  C:2DE9H         LINE#         115
  C:2DE9H         LINE#         117
  C:2DE9H         LINE#         118
  C:2DF7H         LINE#         119
  C:2DFDH         LINE#         120
  C:2E00H         LINE#         121
  C:2E06H         LINE#         122
  C:2E09H         LINE#         124
  C:2E09H         LINE#         126
  C:2E17H         LINE#         127
  C:2E1DH         LINE#         128
  C:2E20H         LINE#         129
  C:2E26H         LINE#         130
  C:2E29H         LINE#         132
  C:2E29H         LINE#         134
  C:2E37H         LINE#         135
BL51 BANKED LINKER/LOCATER V6.22.2.0                                                  09/07/2021  11:24:22  PAGE 56


  C:2E3DH         LINE#         136
  C:2E40H         LINE#         137
  C:2E46H         LINE#         138
  C:2E49H         LINE#         139
  C:2E49H         LINE#         140
  C:2E57H         LINE#         141
  C:2E5DH         LINE#         142
  C:2E60H         LINE#         143
  C:2E66H         LINE#         144
  C:2E69H         LINE#         145
  C:2E69H         LINE#         146
  C:2E77H         LINE#         147
  C:2E7DH         LINE#         148
  C:2E80H         LINE#         149
  C:2E86H         LINE#         150
  C:2E89H         LINE#         151
  C:2E89H         LINE#         152
  C:2E97H         LINE#         153
  C:2E9DH         LINE#         154
  C:2EA0H         LINE#         155
  C:2EA6H         LINE#         156
  C:2EA9H         LINE#         157
  C:2EA9H         LINE#         159
  C:2EB7H         LINE#         160
  C:2EBDH         LINE#         161
  C:2EC0H         LINE#         162
  C:2EC6H         LINE#         163
  C:2EC9H         LINE#         164
  C:2EC9H         LINE#         170
  C:2EC9H         LINE#         171
  C:2ED7H         LINE#         172
  C:2EDDH         LINE#         173
  C:2EE0H         LINE#         174
  C:2EE6H         LINE#         175
  C:2EE9H         LINE#         176
  C:2EE9H         LINE#         177
  C:2EF7H         LINE#         178
  C:2EFDH         LINE#         179
  C:2F00H         LINE#         180
  C:2F06H         LINE#         181
  C:2F09H         LINE#         183
  C:2F09H         LINE#         184
  C:2F17H         LINE#         185
  C:2F1DH         LINE#         186
  C:2F20H         LINE#         187
  C:2F26H         LINE#         188
  C:2F29H         LINE#         190
  C:2F29H         LINE#         191
  C:2F37H         LINE#         192
  C:2F3DH         LINE#         193
  C:2F40H         LINE#         194
  C:2F46H         LINE#         195
  C:2F49H         LINE#         200
  C:2F49H         LINE#         202
  C:2F57H         LINE#         203
  C:2F5DH         LINE#         204
  C:2F60H         LINE#         205
BL51 BANKED LINKER/LOCATER V6.22.2.0                                                  09/07/2021  11:24:22  PAGE 57


  C:2F66H         LINE#         206
  C:2F69H         LINE#         208
  C:2F69H         LINE#         210
  C:2F77H         LINE#         211
  C:2F7DH         LINE#         212
  C:2F80H         LINE#         213
  C:2F86H         LINE#         214
  C:2F89H         LINE#         216
  C:2F89H         LINE#         217
  C:2F97H         LINE#         218
  C:2F9DH         LINE#         219
  C:2FA0H         LINE#         220
  C:2FA6H         LINE#         221
  C:2FA9H         LINE#         223
  C:2FA9H         LINE#         225
  C:2FB7H         LINE#         226
  C:2FBDH         LINE#         227
  C:2FC0H         LINE#         228
  C:2FC6H         LINE#         229
  C:2FC9H         LINE#         231
  C:2FC9H         LINE#         233
  C:2FD7H         LINE#         234
  C:2FDDH         LINE#         235
  C:2FE0H         LINE#         236
  C:2FE6H         LINE#         237
  C:2FE9H         LINE#         239
  C:2FE9H         LINE#         240
  C:2FF7H         LINE#         241
  C:2FFDH         LINE#         242
  C:3000H         LINE#         243
  C:3006H         LINE#         244
  C:3009H         LINE#         246
  C:3009H         LINE#         247
  C:3017H         LINE#         248
  C:301DH         LINE#         249
  C:3020H         LINE#         250
  C:3026H         LINE#         251
  C:3029H         LINE#         253
  C:3029H         LINE#         255
  C:3037H         LINE#         256
  C:303DH         LINE#         257
  C:3040H         LINE#         258
  C:3046H         LINE#         259
  C:3049H         LINE#         261
  C:3049H         LINE#         262
  C:3057H         LINE#         263
  C:305DH         LINE#         264
  C:3060H         LINE#         265
  C:3066H         LINE#         266
  C:3069H         LINE#         267
  C:3069H         LINE#         268
  C:3077H         LINE#         269
  C:307DH         LINE#         270
  C:3080H         LINE#         271
  C:3086H         LINE#         272
  C:3089H         LINE#         273
  C:3089H         LINE#         274
BL51 BANKED LINKER/LOCATER V6.22.2.0                                                  09/07/2021  11:24:22  PAGE 58


  C:3097H         LINE#         275
  C:309DH         LINE#         276
  C:30A0H         LINE#         277
  C:30A6H         LINE#         278
  C:30A9H         LINE#         279
  C:30A9H         LINE#         280
  C:30B7H         LINE#         281
  C:30BAH         LINE#         282
  C:30C0H         LINE#         283
  C:30C2H         LINE#         287
  C:30C2H         LINE#         288
  C:30D0H         LINE#         289
  C:30D6H         LINE#         290
  C:30D9H         LINE#         291
  C:30DFH         LINE#         292
  C:30E1H         LINE#         293
  C:30E1H         LINE#         294
  C:30EFH         LINE#         295
  C:30F5H         LINE#         296
  C:30F8H         LINE#         297
  C:30FEH         LINE#         298
  C:3100H         LINE#         299
  C:3100H         LINE#         300
  C:310EH         LINE#         301
  C:3114H         LINE#         302
  C:3117H         LINE#         303
  C:3122H         LINE#         304
  C:3122H         LINE#         313
  C:3122H         LINE#         315
  C:3122H         LINE#         316
  C:3122H         LINE#         317
  C:3124H         LINE#         319
  C:3125H         LINE#         321
  C:3125H         LINE#         322
  C:3127H         LINE#         323
  C:3195H         LINE#         324
  C:3195H         LINE#         327
  C:3195H         LINE#         328
  C:31A1H         LINE#         329
  C:31A1H         LINE#         331
  C:31A4H         LINE#         332
  C:31A4H         LINE#         335
  C:31B0H         LINE#         336
  C:31B0H         LINE#         337
  C:31B3H         LINE#         339
  C:31B3H         LINE#         340
  C:31BFH         LINE#         341
  C:31BFH         LINE#         343
  C:31C2H         LINE#         344
  C:31C2H         LINE#         345
  C:31CEH         LINE#         346
  C:31CEH         LINE#         348
  C:31D1H         LINE#         349
  C:31D1H         LINE#         350
  C:31DDH         LINE#         351
  C:31DDH         LINE#         353
  C:31E0H         LINE#         354
BL51 BANKED LINKER/LOCATER V6.22.2.0                                                  09/07/2021  11:24:22  PAGE 59


  C:31E0H         LINE#         355
  C:31ECH         LINE#         356
  C:31ECH         LINE#         358
  C:31EFH         LINE#         359
  C:31EFH         LINE#         360
  C:31FBH         LINE#         361
  C:31FBH         LINE#         363
  C:31FEH         LINE#         364
  C:31FEH         LINE#         365
  C:320AH         LINE#         366
  C:320AH         LINE#         368
  C:320DH         LINE#         369
  C:320DH         LINE#         370
  C:3219H         LINE#         371
  C:3219H         LINE#         373
  C:321CH         LINE#         374
  C:321CH         LINE#         375
  C:3228H         LINE#         376
  C:3228H         LINE#         378
  C:322BH         LINE#         380
  C:322BH         LINE#         381
  C:3237H         LINE#         382
  C:3237H         LINE#         384
  C:323AH         LINE#         386
  C:323AH         LINE#         387
  C:3246H         LINE#         388
  C:3246H         LINE#         390
  C:3249H         LINE#         392
  C:3249H         LINE#         393
  C:3255H         LINE#         394
  C:3255H         LINE#         396
  C:3258H         LINE#         400
  C:3258H         LINE#         401
  C:3264H         LINE#         402
  C:3264H         LINE#         404
  C:3267H         LINE#         406
  C:3267H         LINE#         407
  C:3273H         LINE#         408
  C:3273H         LINE#         410
  C:3276H         LINE#         412
  C:3276H         LINE#         413
  C:3282H         LINE#         414
  C:3282H         LINE#         417
  C:3285H         LINE#         418
  C:3285H         LINE#         419
  C:3291H         LINE#         420
  C:3291H         LINE#         422
  C:3294H         LINE#         423
  C:3294H         LINE#         424
  C:32A0H         LINE#         425
  C:32A0H         LINE#         427
  C:32A3H         LINE#         428
  C:32A3H         LINE#         429
  C:32AFH         LINE#         430
  C:32AFH         LINE#         432
  C:32B2H         LINE#         433
  C:32B2H         LINE#         434
BL51 BANKED LINKER/LOCATER V6.22.2.0                                                  09/07/2021  11:24:22  PAGE 60


  C:32BEH         LINE#         435
  C:32BEH         LINE#         437
  C:32C1H         LINE#         439
  C:32C1H         LINE#         440
  C:32CDH         LINE#         441
  C:32CDH         LINE#         443
  C:32D0H         LINE#         445
  C:32D0H         LINE#         446
  C:32DCH         LINE#         447
  C:32DCH         LINE#         449
  C:32DFH         LINE#         450
  C:32DFH         LINE#         451
  C:32EBH         LINE#         452
  C:32EBH         LINE#         454
  C:32EEH         LINE#         455
  C:32EEH         LINE#         456
  C:32FAH         LINE#         457
  C:32FAH         LINE#         459
  C:32FCH         LINE#         460
  C:32FCH         LINE#         461
  C:3308H         LINE#         462
  C:3308H         LINE#         464
  C:330AH         LINE#         466
  C:330AH         LINE#         467
  C:3316H         LINE#         468
  C:3316H         LINE#         470
  C:3318H         LINE#         471
  C:3318H         LINE#         472
  C:3324H         LINE#         473
  C:3324H         LINE#         475
  C:3326H         LINE#         476
  C:3326H         LINE#         477
  C:3332H         LINE#         478
  C:3332H         LINE#         480
  C:3334H         LINE#         482
  C:3334H         LINE#         483
  C:3340H         LINE#         484
  C:3340H         LINE#         486
  C:3342H         LINE#         489
  C:3342H         LINE#         490
  C:334EH         LINE#         491
  C:334EH         LINE#         493
  C:3350H         LINE#         494
  C:3350H         LINE#         495
  C:335CH         LINE#         496
  C:335CH         LINE#         498
  C:335EH         LINE#         499
  C:335EH         LINE#         500
  C:336AH         LINE#         501
  C:336AH         LINE#         502
  C:336CH         LINE#         504
  C:336CH         LINE#         505
  C:337BH         LINE#         506
  C:3384H         LINE#         507
  C:3384H         LINE#         512
  C:3384H         LINE#         513
  C:3384H         LINE#         514
BL51 BANKED LINKER/LOCATER V6.22.2.0                                                  09/07/2021  11:24:22  PAGE 61


  C:3384H         LINE#         516
  C:3389H         LINE#         517
  C:338BH         LINE#         518
  C:338BH         LINE#         522
  -------         ENDPROC       _PANTALLALCD
  -------         PROC          _PANTALLALCD_LINEA_2
  X:0011H         SYMBOL        cod_msg
  X:0012H         SYMBOL        buffer
  -------         DO            
  X:0015H         SYMBOL        Ini_LCD_Line_one
  X:001BH         SYMBOL        num_chr
  X:001CH         SYMBOL        msjpantalla
  -------         ENDDO         
  C:4B66H         LINE#         523
  C:4B74H         LINE#         524
  C:4B74H         LINE#         526
  C:4B87H         LINE#         528
  C:4B9AH         LINE#         535
  C:4B9CH         LINE#         537
  C:4BA5H         LINE#         538
  C:4BA5H         LINE#         541
  C:4BB3H         LINE#         542
  C:4BB3H         LINE#         544
  C:4BB3H         LINE#         545
  C:4BB6H         LINE#         546
  C:4BC4H         LINE#         547
  C:4BD9H         LINE#         548
  C:4BDFH         LINE#         549
  C:4BE5H         LINE#         550
  C:4BEBH         LINE#         551
  C:4BEBH         LINE#         552
  C:4BEDH         LINE#         553
  C:4BEDH         LINE#         554
  C:4BF0H         LINE#         555
  C:4BFEH         LINE#         556
  C:4C13H         LINE#         557
  C:4C19H         LINE#         558
  C:4C1FH         LINE#         559
  C:4C2AH         LINE#         560
  C:4C3AH         LINE#         561
  C:4C3AH         LINE#         565
  C:4C3AH         LINE#         567
  C:4C3AH         LINE#         569
  C:4C3AH         LINE#         570
  C:4C3CH         LINE#         571
  C:4C3DH         LINE#         573
  C:4C3DH         LINE#         574
  C:4C3FH         LINE#         576
  C:4C67H         LINE#         577
  C:4C67H         LINE#         578
  C:4C67H         LINE#         581
  C:4C73H         LINE#         583
  C:4C73H         LINE#         585
  C:4C73H         LINE#         588
  C:4C73H         LINE#         591
  C:4C76H         LINE#         593
  C:4C76H         LINE#         594
BL51 BANKED LINKER/LOCATER V6.22.2.0                                                  09/07/2021  11:24:22  PAGE 62


  C:4C82H         LINE#         595
  C:4C82H         LINE#         596
  C:4C82H         LINE#         597
  C:4C82H         LINE#         598
  C:4C82H         LINE#         599
  C:4C82H         LINE#         601
  C:4C85H         LINE#         602
  C:4C85H         LINE#         604
  C:4C91H         LINE#         605
  C:4C94H         LINE#         606
  C:4C97H         LINE#         607
  C:4C97H         LINE#         609
  C:4CA0H         LINE#         611
  C:4CA0H         LINE#         612
  C:4CA2H         LINE#         614
  C:4CA2H         LINE#         616
  C:4CB3H         LINE#         618
  C:4CB6H         LINE#         620
  C:4CB6H         LINE#         621
  C:4CC1H         LINE#         622
  C:4CC1H         LINE#         623
  C:4CC8H         LINE#         625
  C:4CDEH         LINE#         627
  C:4CF5H         LINE#         628
  C:4CF8H         LINE#         630
  C:4CF8H         LINE#         631
  C:4CFFH         LINE#         633
  C:4CFFH         LINE#         634
  C:4CFFH         LINE#         637
  C:4D02H         LINE#         638
  C:4D02H         LINE#         639
  C:4D11H         LINE#         640
  C:4D2FH         LINE#         641
  C:4D46H         LINE#         643
  C:4D46H         LINE#         645
  C:4D49H         LINE#         646
  C:4D49H         LINE#         647
  C:4D58H         LINE#         648
  C:4D6BH         LINE#         649
  C:4D85H         LINE#         650
  C:4DA3H         LINE#         651
  C:4DBAH         LINE#         652
  C:4DBAH         LINE#         654
  C:4DBCH         LINE#         655
  C:4DBCH         LINE#         656
  C:4DCBH         LINE#         657
  C:4DE9H         LINE#         658
  C:4E00H         LINE#         659
  C:4E03H         LINE#         660
  C:4E03H         LINE#         661
  C:4E03H         LINE#         663
  C:4E03H         LINE#         664
  C:4E03H         LINE#         666
  C:4E08H         LINE#         667
  C:4E0AH         LINE#         668
  C:4E0AH         LINE#         669
  -------         ENDPROC       _PANTALLALCD_LINEA_2
BL51 BANKED LINKER/LOCATER V6.22.2.0                                                  09/07/2021  11:24:22  PAGE 63


  C:BB48H         SYMBOL        L?0176
  C:BB4BH         SYMBOL        L?0177
  C:BB4CH         SYMBOL        L?0178
  -------         PROC          L?0175
  -------         ENDPROC       L?0175
  C:BB48H         SYMBOL        L?0176
  C:BB4BH         SYMBOL        L?0177
  C:BB4CH         SYMBOL        L?0178
  -------         PROC          _TX_CHRLCD
  D:0007H         SYMBOL        data_com
  X:004DH         SYMBOL        enable_char_add
  -------         DO            
  X:004EH         SYMBOL        d
  -------         ENDDO         
  C:BB51H         LINE#         675
  C:BB56H         LINE#         676
  C:BB56H         LINE#         678
  C:BB5EH         LINE#         679
  C:BB6EH         LINE#         681
  -------         ENDPROC       _TX_CHRLCD
  -------         PROC          L?0181
  -------         ENDPROC       L?0181
  -------         PROC          _LCD_TXT
  X:0048H         SYMBOL        msg
  X:004BH         SYMBOL        enable_char_add
  -------         DO            
  X:004CH         SYMBOL        i
  -------         ENDDO         
  C:B3B2H         LINE#         688
  C:B3C0H         LINE#         689
  C:B3C0H         LINE#         692
  C:B3DDH         LINE#         693
  C:B3DDH         LINE#         694
  C:B3E5H         LINE#         695
  C:B3EDH         LINE#         696
  -------         ENDPROC       _LCD_TXT
  -------         PROC          _LCD_TXT_NUM_CHAR
  X:001EH         SYMBOL        msg
  X:0021H         SYMBOL        length_char
  X:0022H         SYMBOL        enable_char_add
  -------         DO            
  X:0023H         SYMBOL        i
  -------         ENDDO         
  C:B31EH         LINE#         703
  C:B32CH         LINE#         704
  C:B32CH         LINE#         707
  C:B33FH         LINE#         708
  C:B33FH         LINE#         709
  C:B35BH         LINE#         710
  C:B363H         LINE#         711
  -------         ENDPROC       _LCD_TXT_NUM_CHAR
  C:A682H         SYMBOL        L?0180
  -------         PROC          L?0179
  -------         ENDPROC       L?0179
  C:A682H         SYMBOL        L?0180
  -------         PROC          _RASPBERRY_DATA
  X:0048H         SYMBOL        msjpantalla
BL51 BANKED LINKER/LOCATER V6.22.2.0                                                  09/07/2021  11:24:22  PAGE 64


  -------         DO            
  X:004BH         SYMBOL        i
  X:004CH         SYMBOL        lenth_cadena
  X:004DH         SYMBOL        d
  -------         ENDDO         
  C:A688H         LINE#         713
  C:A693H         LINE#         714
  C:A693H         LINE#         721
  C:A69BH         LINE#         723
  C:A6ADH         LINE#         724
  C:A6ADH         LINE#         726
  C:A6BFH         LINE#         727
  C:A6BFH         LINE#         728
  C:A6C4H         LINE#         729
  C:A6E2H         LINE#         731
  C:A6EAH         LINE#         734
  C:A6FCH         LINE#         735
  C:A6FCH         LINE#         737
  C:A701H         LINE#         739
  -------         ENDPROC       _RASPBERRY_DATA
  -------         PROC          RELOJ_PANTALLA_LCD
  -------         DO            
  X:0011H         SYMBOL        Ini_Clock_LCD
  -------         ENDDO         
  C:AA06H         LINE#         747
  C:AA06H         LINE#         748
  C:AA06H         LINE#         750
  C:AA19H         LINE#         752
  C:AA1FH         LINE#         753
  C:AA1FH         LINE#         754
  C:AA21H         LINE#         755
  C:AA2AH         LINE#         759
  C:AA2CH         LINE#         760
  C:AA3CH         LINE#         762
  C:AA3EH         LINE#         763
  C:AA40H         LINE#         765
  C:AA41H         LINE#         767
  C:AA41H         LINE#         768
  C:AA43H         LINE#         769
  C:AA48H         LINE#         770
  C:AA57H         LINE#         772
  C:AA60H         LINE#         773
  C:AA77H         LINE#         774
  C:AA80H         LINE#         777
  C:AA82H         LINE#         778
  C:AA82H         LINE#         779
  -------         ENDPROC       RELOJ_PANTALLA_LCD
  -------         ENDMOD        PANTALLAS

  -------         MODULE        PROG
  C:0000H         SYMBOL        _ICE_DUMMY_
  C:595AH         PUBLIC        Prog_fecha_vencimiento
  C:69EFH         PUBLIC        Prog_Sin_Cobro
  C:74A0H         PUBLIC        _Ver_Horario_Desde_Hasta
  C:78DAH         PUBLIC        Prog_debug
  C:7BCEH         PUBLIC        Prog_AntiPassBack
  C:9F9BH         PUBLIC        _GetOption
BL51 BANKED LINKER/LOCATER V6.22.2.0                                                  09/07/2021  11:24:22  PAGE 65


  X:01BAH         PUBLIC        validacion
  C:7DC6H         PUBLIC        Prog_Validar_Tipo_Vehiculo_Mensual
  X:01C5H         PUBLIC        cursor
  C:7386H         PUBLIC        _Prog_Horarios_on_off
  C:98F2H         PUBLIC        Show
  C:4217H         PUBLIC        Ver_Prog
  C:B9D9H         PUBLIC        Addr_Horarios
  C:943DH         PUBLIC        prog_id_cliente
  C:B47BH         PUBLIC        _ValidarClave
  C:5304H         PUBLIC        menu
  C:79D6H         PUBLIC        Prog_Use_Lpr
  C:AD24H         PUBLIC        _ListaComandos
  C:141FH         SYMBOL        _?ix1000
  C:142AH         SYMBOL        _?ix1001
  C:143AH         SYMBOL        _?ix1002
  C:144AH         SYMBOL        _?ix1003
  C:144EH         SYMBOL        _?ix1004
  C:68AAH         PUBLIC        Prog_Horarios
  C:1452H         SYMBOL        _?ix1005
  C:7EC2H         PUBLIC        Prog_Apb_Mensual
  C:7FBEH         PUBLIC        Prog_mensuales
  C:8F14H         PUBLIC        Prog_tarjeta_automatica_o_boton
  C:5558H         PUBLIC        _hash_id
  C:48AFH         PUBLIC        _Prog_Horario_dias
  C:9151H         PUBLIC        Prog_tiempo_gracia
  C:A88EH         PUBLIC        _IngresaDato
  X:01D9H         PUBLIC        comandos
  C:B1BBH         PUBLIC        First_Clave
  C:BCACH         PUBLIC        DisplayCursor
  C:7CCAH         PUBLIC        Prog_Placa
  C:9094H         PUBLIC        prog_cod_park
  C:6DA7H         PUBLIC        Ver_Horario
  C:725EH         PUBLIC        _Ver_Horario_dias
  C:5760H         PUBLIC        _Prog_Horario_Desde_Hasta
  C:7AD2H         PUBLIC        tipo_pantalla
  C:8469H         PUBLIC        Prog_Address_High_Board
  C:B53DH         PUBLIC        _GetCMD
  -------         PROC          _HASH_ID
  X:005DH         SYMBOL        clave
  -------         DO            
  X:0060H         SYMBOL        len_clave
  X:0061H         SYMBOL        i
  X:01B6H         SYMBOL        temp
  X:01B8H         SYMBOL        temp1
  X:0062H         SYMBOL        aleatorio
  X:006DH         SYMBOL        suma
  X:007DH         SYMBOL        xxor
  X:008DH         SYMBOL        usuario1
  X:0098H         SYMBOL        vencimiento_password
  -------         ENDDO         
  C:5558H         LINE#         128
  C:5563H         LINE#         129
  C:5563H         LINE#         132
  C:5576H         LINE#         134
  C:5589H         LINE#         135
  C:559CH         LINE#         139
  C:55A9H         LINE#         140
BL51 BANKED LINKER/LOCATER V6.22.2.0                                                  09/07/2021  11:24:22  PAGE 66


  C:55C5H         LINE#         142
  C:55C5H         LINE#         143
  C:55C9H         LINE#         144
  C:55CBH         LINE#         146
  C:55CBH         LINE#         147
  C:55D2H         LINE#         148
  C:55D2H         LINE#         149
  C:55E5H         LINE#         150
  C:55F9H         LINE#         151
  C:55F9H         LINE#         152
  C:5625H         LINE#         153
  C:5630H         LINE#         154
  C:563DH         LINE#         155
  C:565BH         LINE#         156
  C:5666H         LINE#         157
  C:5673H         LINE#         158
  C:5697H         LINE#         159
  C:569FH         LINE#         160
  C:569FH         LINE#         161
  C:56A4H         LINE#         162
  C:56A4H         LINE#         163
  C:56BDH         LINE#         164
  C:56BDH         LINE#         165
  C:56C9H         LINE#         167
  C:56C9H         LINE#         168
  C:56D8H         LINE#         169
  C:56D8H         LINE#         170
  C:56E4H         LINE#         171
  C:56E4H         LINE#         172
  C:56FDH         LINE#         173
  C:56FDH         LINE#         174
  C:5708H         LINE#         175
  C:5708H         LINE#         176
  C:5721H         LINE#         177
  C:5721H         LINE#         178
  C:572CH         LINE#         179
  C:572CH         LINE#         180
  C:5741H         LINE#         182
  C:574AH         LINE#         183
  C:5759H         LINE#         185
  C:575FH         LINE#         186
  -------         ENDPROC       _HASH_ID
  -------         PROC          _LISTACOMANDOS
  X:0046H         SYMBOL        cmd
  -------         DO            
  X:0049H         SYMBOL        buf
  X:004CH         SYMBOL        i
  -------         ENDDO         
  C:AD24H         LINE#         193
  C:AD2FH         LINE#         194
  C:AD2FH         LINE#         198
  C:AD42H         LINE#         199
  C:AD42H         LINE#         200
  C:AD5AH         LINE#         201
  C:AD75H         LINE#         202
  C:AD7BH         LINE#         203
  C:AD83H         LINE#         205
BL51 BANKED LINKER/LOCATER V6.22.2.0                                                  09/07/2021  11:24:22  PAGE 67


  C:AD85H         LINE#         206
  -------         ENDPROC       _LISTACOMANDOS
  -------         PROC          L?0291
  -------         ENDPROC       L?0291
  -------         PROC          _VALIDARCLAVE
  X:005DH         SYMBOL        buffer
  -------         DO            
  X:0060H         SYMBOL        buf
  -------         ENDDO         
  C:B47BH         LINE#         212
  C:B486H         LINE#         213
  C:B486H         LINE#         216
  C:B495H         LINE#         217
  C:B4B0H         LINE#         218
  C:B4B2H         LINE#         221
  C:B4B4H         LINE#         222
  -------         ENDPROC       _VALIDARCLAVE
  -------         PROC          L?0292
  -------         ENDPROC       L?0292
  -------         PROC          _GETCMD
  X:005DH         SYMBOL        in
  -------         DO            
  X:0060H         SYMBOL        tokens
  -------         ENDDO         
  C:B53DH         LINE#         229
  C:B548H         LINE#         230
  C:B548H         LINE#         231
  C:B55BH         LINE#         232
  -------         ENDPROC       _GETCMD
  -------         PROC          L?0290
  -------         ENDPROC       L?0290
  -------         PROC          _GETOPTION
  X:0046H         SYMBOL        in
  -------         DO            
  X:0049H         SYMBOL        tokensSpace
  X:004DH         SYMBOL        tokensQuote
  -------         ENDDO         
  C:9F9BH         LINE#         238
  C:9FA6H         LINE#         239
  C:9FA6H         LINE#         240
  C:9FB9H         LINE#         241
  C:9FCCH         LINE#         244
  C:9FDEH         LINE#         245
  C:9FEAH         LINE#         248
  C:9FF1H         LINE#         249
  C:9FFEH         LINE#         251
  C:A017H         LINE#         252
  -------         ENDPROC       _GETOPTION
  -------         PROC          DISPLAYCURSOR
  C:BCACH         LINE#         257
  C:BCACH         LINE#         258
  C:BCACH         LINE#         259
  -------         ENDPROC       DISPLAYCURSOR
  C:A88AH         SYMBOL        L?0289
  -------         PROC          L?0288
  -------         ENDPROC       L?0288
  C:A88AH         SYMBOL        L?0289
BL51 BANKED LINKER/LOCATER V6.22.2.0                                                  09/07/2021  11:24:22  PAGE 68


  -------         PROC          _INGRESADATO
  X:0071H         SYMBOL        buffer
  X:0074H         SYMBOL        modo
  -------         DO            
  D:0006H         SYMBOL        i
  -------         ENDDO         
  C:A88EH         LINE#         266
  C:A89CH         LINE#         267
  C:A89CH         LINE#         272
  C:A89CH         LINE#         273
  C:A8AEH         LINE#         274
  C:A8B4H         LINE#         275
  C:A8B4H         LINE#         276
  C:A8CFH         LINE#         277
  C:A8D1H         LINE#         279
  C:A8D1H         LINE#         280
  C:A8D6H         LINE#         281
  C:A8D6H         LINE#         282
  C:A8E7H         LINE#         283
  C:A8F1H         LINE#         284
  C:A900H         LINE#         286
  C:A905H         LINE#         290
  -------         ENDPROC       _INGRESADATO
  -------         PROC          PROG_ID_CLIENTE
  -------         DO            
  X:0046H         SYMBOL        buffer
  X:0050H         SYMBOL        dataee
  -------         ENDDO         
  C:943DH         LINE#         307
  C:943DH         LINE#         308
  C:943DH         LINE#         312
  C:944FH         LINE#         313
  C:946CH         LINE#         315
  C:9483H         LINE#         317
  C:948CH         LINE#         318
  C:9493H         LINE#         319
  C:94A4H         LINE#         320
  C:94ADH         LINE#         322
  C:94BFH         LINE#         323
  C:94DCH         LINE#         324
  -------         ENDPROC       PROG_ID_CLIENTE
  -------         PROC          PROG_COD_PARK
  -------         DO            
  X:0046H         SYMBOL        buffer
  X:0050H         SYMBOL        dataee
  -------         ENDDO         
  C:9094H         LINE#         329
  C:9094H         LINE#         330
  C:9094H         LINE#         334
  C:90A7H         LINE#         335
  C:90C4H         LINE#         337
  C:90DBH         LINE#         339
  C:90E4H         LINE#         340
  C:90EFH         LINE#         341
  C:9100H         LINE#         342
  C:910AH         LINE#         344
  C:911DH         LINE#         345
BL51 BANKED LINKER/LOCATER V6.22.2.0                                                  09/07/2021  11:24:22  PAGE 69


  C:913AH         LINE#         346
  -------         ENDPROC       PROG_COD_PARK
  -------         PROC          PROG_TIEMPO_GRACIA
  -------         DO            
  X:0046H         SYMBOL        buffer
  X:0050H         SYMBOL        dataee
  -------         ENDDO         
  C:9151H         LINE#         351
  C:9151H         LINE#         352
  C:9151H         LINE#         356
  C:9164H         LINE#         357
  C:9181H         LINE#         359
  C:9198H         LINE#         361
  C:91A1H         LINE#         362
  C:91ACH         LINE#         363
  C:91BDH         LINE#         364
  C:91C7H         LINE#         366
  C:91DAH         LINE#         367
  C:91F7H         LINE#         368
  -------         ENDPROC       PROG_TIEMPO_GRACIA
  -------         PROC          PROG_SIN_COBRO
  -------         DO            
  X:0046H         SYMBOL        buffer
  X:0050H         SYMBOL        dataee
  -------         ENDDO         
  C:69EFH         LINE#         374
  C:69EFH         LINE#         375
  C:69EFH         LINE#         381
  C:6A02H         LINE#         382
  C:6A1FH         LINE#         383
  C:6A29H         LINE#         384
  C:6A29H         LINE#         385
  C:6A3CH         LINE#         386
  C:6A3EH         LINE#         387
  C:6A4AH         LINE#         388
  C:6A4AH         LINE#         389
  C:6A5DH         LINE#         390
  C:6A5FH         LINE#         392
  C:6A5FH         LINE#         393
  C:6A76H         LINE#         394
  C:6A76H         LINE#         396
  C:6A7FH         LINE#         397
  C:6A8AH         LINE#         398
  C:6A9BH         LINE#         399
  C:6AA5H         LINE#         401
  C:6AB8H         LINE#         402
  C:6AD5H         LINE#         403
  C:6ADFH         LINE#         404
  C:6ADFH         LINE#         405
  C:6AF2H         LINE#         406
  C:6AF4H         LINE#         407
  C:6B00H         LINE#         408
  C:6B00H         LINE#         409
  C:6B13H         LINE#         410
  C:6B15H         LINE#         412
  C:6B15H         LINE#         413
  C:6B2CH         LINE#         414
BL51 BANKED LINKER/LOCATER V6.22.2.0                                                  09/07/2021  11:24:22  PAGE 70


  C:6B2CH         LINE#         416
  -------         ENDPROC       PROG_SIN_COBRO
  -------         PROC          PROG_DEBUG
  -------         DO            
  X:0046H         SYMBOL        buffer
  X:0050H         SYMBOL        dataee
  -------         ENDDO         
  C:78DAH         LINE#         422
  C:78DAH         LINE#         423
  C:78DAH         LINE#         428
  C:78EDH         LINE#         429
  C:790AH         LINE#         430
  C:7914H         LINE#         431
  C:7914H         LINE#         432
  C:7927H         LINE#         433
  C:7929H         LINE#         435
  C:7929H         LINE#         436
  C:7940H         LINE#         437
  C:7940H         LINE#         439
  C:7949H         LINE#         440
  C:7954H         LINE#         441
  C:7965H         LINE#         442
  C:796FH         LINE#         444
  C:7982H         LINE#         445
  C:799FH         LINE#         446
  C:79A9H         LINE#         447
  C:79A9H         LINE#         448
  C:79BCH         LINE#         449
  C:79BEH         LINE#         451
  C:79BEH         LINE#         452
  C:79D5H         LINE#         453
  C:79D5H         LINE#         454
  -------         ENDPROC       PROG_DEBUG
  -------         PROC          PROG_USE_LPR
  -------         DO            
  X:0046H         SYMBOL        buffer
  X:0050H         SYMBOL        dataee
  -------         ENDDO         
  C:79D6H         LINE#         459
  C:79D6H         LINE#         460
  C:79D6H         LINE#         465
  C:79E9H         LINE#         466
  C:7A06H         LINE#         467
  C:7A10H         LINE#         468
  C:7A10H         LINE#         469
  C:7A23H         LINE#         470
  C:7A25H         LINE#         472
  C:7A25H         LINE#         473
  C:7A3CH         LINE#         474
  C:7A3CH         LINE#         476
  C:7A45H         LINE#         477
  C:7A50H         LINE#         478
  C:7A61H         LINE#         479
  C:7A6BH         LINE#         481
  C:7A7EH         LINE#         482
  C:7A9BH         LINE#         483
  C:7AA5H         LINE#         484
BL51 BANKED LINKER/LOCATER V6.22.2.0                                                  09/07/2021  11:24:22  PAGE 71


  C:7AA5H         LINE#         485
  C:7AB8H         LINE#         486
  C:7ABAH         LINE#         488
  C:7ABAH         LINE#         489
  C:7AD1H         LINE#         490
  C:7AD1H         LINE#         491
  -------         ENDPROC       PROG_USE_LPR
  -------         PROC          TIPO_PANTALLA
  -------         DO            
  X:0046H         SYMBOL        buffer
  X:0050H         SYMBOL        dataee
  -------         ENDDO         
  C:7AD2H         LINE#         498
  C:7AD2H         LINE#         499
  C:7AD2H         LINE#         504
  C:7AE5H         LINE#         505
  C:7B02H         LINE#         506
  C:7B0CH         LINE#         507
  C:7B0CH         LINE#         508
  C:7B1FH         LINE#         509
  C:7B21H         LINE#         511
  C:7B21H         LINE#         512
  C:7B38H         LINE#         513
  C:7B38H         LINE#         515
  C:7B41H         LINE#         516
  C:7B4CH         LINE#         517
  C:7B5DH         LINE#         518
  C:7B67H         LINE#         520
  C:7B7AH         LINE#         521
  C:7B97H         LINE#         522
  C:7BA1H         LINE#         523
  C:7BA1H         LINE#         524
  C:7BB4H         LINE#         525
  C:7BB6H         LINE#         527
  C:7BB6H         LINE#         528
  C:7BCDH         LINE#         529
  C:7BCDH         LINE#         531
  -------         ENDPROC       TIPO_PANTALLA
  -------         PROC          PROG_TARJETA_AUTOMATICA_O_BOTON
  -------         DO            
  X:0046H         SYMBOL        buffer
  X:0050H         SYMBOL        dataee
  -------         ENDDO         
  C:8F14H         LINE#         532
  C:8F14H         LINE#         533
  C:8F14H         LINE#         538
  C:8F27H         LINE#         539
  C:8F44H         LINE#         540
  C:8F50H         LINE#         541
  C:8F50H         LINE#         542
  C:8F54H         LINE#         543
  C:8F56H         LINE#         545
  C:8F56H         LINE#         546
  C:8F5DH         LINE#         547
  C:8F5DH         LINE#         549
  C:8F66H         LINE#         550
  C:8F71H         LINE#         551
BL51 BANKED LINKER/LOCATER V6.22.2.0                                                  09/07/2021  11:24:22  PAGE 72


  C:8F82H         LINE#         552
  C:8F8CH         LINE#         554
  C:8F9FH         LINE#         555
  C:8FBCH         LINE#         556
  C:8FC8H         LINE#         557
  C:8FC8H         LINE#         558
  C:8FCCH         LINE#         559
  C:8FCEH         LINE#         561
  C:8FCEH         LINE#         562
  C:8FD5H         LINE#         563
  C:8FD5H         LINE#         564
  -------         ENDPROC       PROG_TARJETA_AUTOMATICA_O_BOTON
  -------         PROC          PROG_ANTIPASSBACK
  -------         DO            
  X:0046H         SYMBOL        buffer
  X:0050H         SYMBOL        dataee
  -------         ENDDO         
  C:7BCEH         LINE#         565
  C:7BCEH         LINE#         566
  C:7BCEH         LINE#         571
  C:7BE1H         LINE#         572
  C:7BFEH         LINE#         573
  C:7C08H         LINE#         574
  C:7C08H         LINE#         575
  C:7C1BH         LINE#         576
  C:7C1DH         LINE#         578
  C:7C1DH         LINE#         579
  C:7C34H         LINE#         580
  C:7C34H         LINE#         582
  C:7C3DH         LINE#         583
  C:7C48H         LINE#         584
  C:7C59H         LINE#         585
  C:7C63H         LINE#         587
  C:7C76H         LINE#         588
  C:7C93H         LINE#         589
  C:7C9DH         LINE#         590
  C:7C9DH         LINE#         591
  C:7CB0H         LINE#         592
  C:7CB2H         LINE#         594
  C:7CB2H         LINE#         595
  C:7CC9H         LINE#         596
  C:7CC9H         LINE#         597
  -------         ENDPROC       PROG_ANTIPASSBACK
  -------         PROC          PROG_PLACA
  -------         DO            
  X:0046H         SYMBOL        buffer
  X:0050H         SYMBOL        dataee
  -------         ENDDO         
  C:7CCAH         LINE#         598
  C:7CCAH         LINE#         599
  C:7CCAH         LINE#         604
  C:7CDDH         LINE#         605
  C:7CFAH         LINE#         606
  C:7D04H         LINE#         607
  C:7D04H         LINE#         608
  C:7D17H         LINE#         609
  C:7D19H         LINE#         611
BL51 BANKED LINKER/LOCATER V6.22.2.0                                                  09/07/2021  11:24:22  PAGE 73


  C:7D19H         LINE#         612
  C:7D30H         LINE#         613
  C:7D30H         LINE#         615
  C:7D39H         LINE#         616
  C:7D44H         LINE#         617
  C:7D55H         LINE#         618
  C:7D5FH         LINE#         620
  C:7D72H         LINE#         621
  C:7D8FH         LINE#         622
  C:7D99H         LINE#         623
  C:7D99H         LINE#         624
  C:7DACH         LINE#         625
  C:7DAEH         LINE#         627
  C:7DAEH         LINE#         628
  C:7DC5H         LINE#         629
  C:7DC5H         LINE#         630
  -------         ENDPROC       PROG_PLACA
  -------         PROC          PROG_ADDRESS_HIGH_BOARD
  -------         DO            
  X:0046H         SYMBOL        buffer
  X:0050H         SYMBOL        dataee
  -------         ENDDO         
  C:8469H         LINE#         631
  C:8469H         LINE#         632
  C:8469H         LINE#         637
  C:847CH         LINE#         638
  C:8499H         LINE#         639
  C:84A3H         LINE#         640
  C:84A3H         LINE#         641
  C:84A7H         LINE#         642
  C:84A9H         LINE#         644
  C:84A9H         LINE#         645
  C:84C0H         LINE#         646
  C:84C0H         LINE#         648
  C:84C9H         LINE#         649
  C:84D4H         LINE#         650
  C:84E5H         LINE#         651
  C:84EFH         LINE#         653
  C:8502H         LINE#         654
  C:851FH         LINE#         655
  C:8529H         LINE#         656
  C:8529H         LINE#         657
  C:852DH         LINE#         658
  C:852FH         LINE#         660
  C:852FH         LINE#         661
  C:8546H         LINE#         662
  C:8546H         LINE#         663
  -------         ENDPROC       PROG_ADDRESS_HIGH_BOARD
  -------         PROC          ADDR_HORARIOS
  -------         DO            
  X:0074H         SYMBOL        ee_addr_horario
  -------         ENDDO         
  C:B9D9H         LINE#         665
  C:B9D9H         LINE#         666
  C:B9D9H         LINE#         669
  C:B9DFH         LINE#         670
  C:B9E3H         LINE#         671
BL51 BANKED LINKER/LOCATER V6.22.2.0                                                  09/07/2021  11:24:22  PAGE 74


  C:B9E7H         LINE#         672
  C:B9EBH         LINE#         673
  C:B9EFH         LINE#         674
  C:B9F3H         LINE#         675
  C:B9F7H         LINE#         676
  C:B9FBH         LINE#         677
  C:B9FFH         LINE#         678
  C:BA03H         LINE#         679
  C:BA06H         LINE#         680
  C:BA0CH         LINE#         681
  -------         ENDPROC       ADDR_HORARIOS
  -------         PROC          _PROG_HORARIOS_ON_OFF
  X:0061H         SYMBOL        addr
  -------         DO            
  X:0063H         SYMBOL        buffer
  X:006DH         SYMBOL        dataee
  X:006FH         SYMBOL        habilitado
  -------         ENDDO         
  C:7386H         LINE#         682
  C:7390H         LINE#         683
  C:7390H         LINE#         686
  C:739FH         LINE#         687
  C:73BCH         LINE#         688
  C:73C6H         LINE#         689
  C:73C6H         LINE#         690
  C:73D9H         LINE#         691
  C:73DBH         LINE#         693
  C:73DBH         LINE#         694
  C:73F2H         LINE#         695
  C:73F2H         LINE#         696
  C:73FBH         LINE#         697
  C:7406H         LINE#         698
  C:7417H         LINE#         699
  C:7426H         LINE#         701
  C:743DH         LINE#         702
  C:745AH         LINE#         703
  C:7467H         LINE#         704
  C:7467H         LINE#         705
  C:746AH         LINE#         706
  C:747DH         LINE#         707
  C:747FH         LINE#         709
  C:747FH         LINE#         710
  C:7484H         LINE#         711
  C:7499H         LINE#         712
  C:7499H         LINE#         713
  C:749FH         LINE#         714
  -------         ENDPROC       _PROG_HORARIOS_ON_OFF
  -------         PROC          _PROG_HORARIO_DESDE_HASTA
  X:0061H         SYMBOL        addr
  -------         DO            
  X:0063H         SYMBOL        buffer
  D:0007H         SYMBOL        dataee
  -------         ENDDO         
  C:5760H         LINE#         715
  C:5768H         LINE#         716
  C:5768H         LINE#         721
  C:5771H         LINE#         722
BL51 BANKED LINKER/LOCATER V6.22.2.0                                                  09/07/2021  11:24:22  PAGE 75


  C:5774H         LINE#         723
  C:577DH         LINE#         724
  C:5795H         LINE#         725
  C:57A8H         LINE#         726
  C:57B6H         LINE#         727
  C:57CEH         LINE#         728
  C:57E1H         LINE#         729
  C:57EFH         LINE#         730
  C:5807H         LINE#         731
  C:581AH         LINE#         732
  C:5828H         LINE#         733
  C:5840H         LINE#         734
  C:5853H         LINE#         735
  C:5861H         LINE#         739
  C:586AH         LINE#         740
  C:586DH         LINE#         742
  C:5876H         LINE#         744
  C:588EH         LINE#         745
  C:58A1H         LINE#         746
  C:58AFH         LINE#         747
  C:58C7H         LINE#         748
  C:58DAH         LINE#         749
  C:58E8H         LINE#         750
  C:5900H         LINE#         751
  C:5913H         LINE#         752
  C:5921H         LINE#         753
  C:5939H         LINE#         754
  C:594CH         LINE#         755
  -------         ENDPROC       _PROG_HORARIO_DESDE_HASTA
  -------         PROC          _VER_HORARIO_DESDE_HASTA
  X:0074H         SYMBOL        addr
  -------         DO            
  D:0007H         SYMBOL        dataee
  -------         ENDDO         
  C:74A0H         LINE#         757
  C:74A8H         LINE#         758
  C:74A8H         LINE#         760
  C:74B1H         LINE#         761
  C:74C4H         LINE#         762
  C:74D2H         LINE#         763
  C:74E5H         LINE#         764
  C:74F3H         LINE#         765
  C:7506H         LINE#         766
  C:7514H         LINE#         767
  C:7527H         LINE#         768
  C:7535H         LINE#         770
  C:7548H         LINE#         771
  C:7556H         LINE#         773
  C:7569H         LINE#         774
  C:7577H         LINE#         776
  C:758AH         LINE#         777
  C:7598H         LINE#         779
  C:75ABH         LINE#         780
  -------         ENDPROC       _VER_HORARIO_DESDE_HASTA
  -------         PROC          _PROG_HORARIO_DIAS
  X:0061H         SYMBOL        addr
  -------         DO            
BL51 BANKED LINKER/LOCATER V6.22.2.0                                                  09/07/2021  11:24:22  PAGE 76


  X:0063H         SYMBOL        buffer
  X:006DH         SYMBOL        dataee
  X:006EH         SYMBOL        j
  X:006FH         SYMBOL        temp
  -------         ENDDO         
  C:48AFH         LINE#         782
  C:48B7H         LINE#         783
  C:48B7H         LINE#         787
  C:48C0H         LINE#         788
  C:48C9H         LINE#         789
  C:48D2H         LINE#         790
  C:48DDH         LINE#         793
  C:48E6H         LINE#         795
  C:48FCH         LINE#         796
  C:48FCH         LINE#         798
  C:490FH         LINE#         799
  C:490FH         LINE#         800
  C:4918H         LINE#         802
  C:492DH         LINE#         803
  C:4945H         LINE#         804
  C:4952H         LINE#         805
  C:4952H         LINE#         807
  C:4968H         LINE#         808
  C:4968H         LINE#         809
  C:4971H         LINE#         810
  C:4986H         LINE#         811
  C:499EH         LINE#         812
  C:49ABH         LINE#         813
  C:49ABH         LINE#         815
  C:49C1H         LINE#         816
  C:49C1H         LINE#         817
  C:49CAH         LINE#         818
  C:49DFH         LINE#         819
  C:49F7H         LINE#         820
  C:4A04H         LINE#         821
  C:4A04H         LINE#         823
  C:4A1AH         LINE#         824
  C:4A1AH         LINE#         825
  C:4A23H         LINE#         826
  C:4A38H         LINE#         827
  C:4A50H         LINE#         828
  C:4A5DH         LINE#         829
  C:4A5DH         LINE#         831
  C:4A73H         LINE#         832
  C:4A73H         LINE#         833
  C:4A7CH         LINE#         834
  C:4A91H         LINE#         835
  C:4AA9H         LINE#         836
  C:4AB6H         LINE#         837
  C:4AB6H         LINE#         839
  C:4ACCH         LINE#         840
  C:4ACCH         LINE#         841
  C:4AD5H         LINE#         842
  C:4AEAH         LINE#         843
  C:4B02H         LINE#         844
  C:4B0FH         LINE#         845
  C:4B0FH         LINE#         847
BL51 BANKED LINKER/LOCATER V6.22.2.0                                                  09/07/2021  11:24:22  PAGE 77


  C:4B25H         LINE#         848
  C:4B25H         LINE#         849
  C:4B2EH         LINE#         850
  C:4B3DH         LINE#         851
  C:4B4FH         LINE#         852
  C:4B5CH         LINE#         853
  C:4B5CH         LINE#         854
  C:4B65H         LINE#         856
  -------         ENDPROC       _PROG_HORARIO_DIAS
  -------         PROC          _VER_HORARIO_DIAS
  X:0074H         SYMBOL        addr
  -------         DO            
  X:0076H         SYMBOL        dataee
  -------         ENDDO         
  C:725EH         LINE#         857
  C:7266H         LINE#         858
  C:7266H         LINE#         861
  C:7276H         LINE#         862
  C:727CH         LINE#         863
  C:727CH         LINE#         864
  C:7280H         LINE#         865
  C:7282H         LINE#         867
  C:7282H         LINE#         868
  C:7289H         LINE#         869
  C:7289H         LINE#         872
  C:72A1H         LINE#         873
  C:72A7H         LINE#         874
  C:72A7H         LINE#         875
  C:72ABH         LINE#         876
  C:72ADH         LINE#         878
  C:72ADH         LINE#         879
  C:72B4H         LINE#         880
  C:72B4H         LINE#         883
  C:72CCH         LINE#         884
  C:72D2H         LINE#         885
  C:72D2H         LINE#         886
  C:72D6H         LINE#         887
  C:72D8H         LINE#         889
  C:72D8H         LINE#         890
  C:72DFH         LINE#         891
  C:72DFH         LINE#         893
  C:72F7H         LINE#         894
  C:72FDH         LINE#         895
  C:72FDH         LINE#         896
  C:7301H         LINE#         897
  C:7303H         LINE#         899
  C:7303H         LINE#         900
  C:730AH         LINE#         901
  C:730AH         LINE#         903
  C:7322H         LINE#         904
  C:7328H         LINE#         905
  C:7328H         LINE#         906
  C:732CH         LINE#         907
  C:732EH         LINE#         909
  C:732EH         LINE#         910
  C:7335H         LINE#         911
  C:7335H         LINE#         914
BL51 BANKED LINKER/LOCATER V6.22.2.0                                                  09/07/2021  11:24:22  PAGE 78


  C:734DH         LINE#         915
  C:7353H         LINE#         916
  C:7353H         LINE#         917
  C:7357H         LINE#         918
  C:7359H         LINE#         920
  C:7359H         LINE#         921
  C:7360H         LINE#         922
  C:7360H         LINE#         924
  C:7372H         LINE#         925
  C:7378H         LINE#         926
  C:7378H         LINE#         927
  C:737CH         LINE#         928
  C:737EH         LINE#         930
  C:737EH         LINE#         931
  C:7385H         LINE#         932
  C:7385H         LINE#         933
  -------         ENDPROC       _VER_HORARIO_DIAS
  -------         PROC          PROG_HORARIOS
  -------         DO            
  X:0046H         SYMBOL        buffer
  X:0050H         SYMBOL        ee_addr_horario
  X:005BH         SYMBOL        addr
  X:005DH         SYMBOL        temp
  X:005FH         SYMBOL        dataee
  X:0060H         SYMBOL        j
  -------         ENDDO         
  C:68AAH         LINE#         934
  C:68AAH         LINE#         935
  C:68AAH         LINE#         944
  C:68B6H         LINE#         948
  C:68BFH         LINE#         949
  C:68CAH         LINE#         951
  C:68D9H         LINE#         955
  C:68EFH         LINE#         956
  C:68F5H         LINE#         960
  C:6903H         LINE#         961
  C:690BH         LINE#         962
  C:690BH         LINE#         964
  C:691AH         LINE#         965
  C:692EH         LINE#         966
  C:692EH         LINE#         967
  C:6942H         LINE#         968
  C:694AH         LINE#         970
  C:695AH         LINE#         973
  C:695DH         LINE#         977
  C:6968H         LINE#         980
  C:6971H         LINE#         981
  C:697CH         LINE#         982
  C:698BH         LINE#         983
  C:699EH         LINE#         985
  C:69B6H         LINE#         986
  C:69D0H         LINE#         987
  C:69D8H         LINE#         988
  C:69D8H         LINE#         990
  C:69E6H         LINE#         991
  C:69EEH         LINE#         992
  C:69EEH         LINE#         993
BL51 BANKED LINKER/LOCATER V6.22.2.0                                                  09/07/2021  11:24:22  PAGE 79


  C:69EEH         LINE#         995
  -------         ENDPROC       PROG_HORARIOS
  -------         PROC          PROG_VALIDAR_TIPO_VEHICULO_MENSUAL
  -------         DO            
  X:0046H         SYMBOL        buffer
  X:0050H         SYMBOL        dataee
  -------         ENDDO         
  C:7DC6H         LINE#         996
  C:7DC6H         LINE#         997
  C:7DC6H         LINE#         1002
  C:7DD9H         LINE#         1003
  C:7DF6H         LINE#         1004
  C:7E00H         LINE#         1005
  C:7E00H         LINE#         1006
  C:7E13H         LINE#         1007
  C:7E15H         LINE#         1009
  C:7E15H         LINE#         1010
  C:7E2CH         LINE#         1011
  C:7E2CH         LINE#         1013
  C:7E35H         LINE#         1014
  C:7E40H         LINE#         1015
  C:7E51H         LINE#         1016
  C:7E5BH         LINE#         1018
  C:7E6EH         LINE#         1019
  C:7E8BH         LINE#         1020
  C:7E95H         LINE#         1021
  C:7E95H         LINE#         1022
  C:7EA8H         LINE#         1023
  C:7EAAH         LINE#         1025
  C:7EAAH         LINE#         1026
  C:7EC1H         LINE#         1027
  C:7EC1H         LINE#         1028
  -------         ENDPROC       PROG_VALIDAR_TIPO_VEHICULO_MENSUAL
  -------         PROC          PROG_APB_MENSUAL
  -------         DO            
  X:0046H         SYMBOL        buffer
  X:0050H         SYMBOL        dataee
  -------         ENDDO         
  C:7EC2H         LINE#         1029
  C:7EC2H         LINE#         1030
  C:7EC2H         LINE#         1035
  C:7ED5H         LINE#         1036
  C:7EF2H         LINE#         1037
  C:7EFCH         LINE#         1038
  C:7EFCH         LINE#         1039
  C:7F0FH         LINE#         1040
  C:7F11H         LINE#         1042
  C:7F11H         LINE#         1043
  C:7F28H         LINE#         1044
  C:7F28H         LINE#         1046
  C:7F31H         LINE#         1047
  C:7F3CH         LINE#         1048
  C:7F4DH         LINE#         1049
  C:7F57H         LINE#         1051
  C:7F6AH         LINE#         1052
  C:7F87H         LINE#         1053
  C:7F91H         LINE#         1054
BL51 BANKED LINKER/LOCATER V6.22.2.0                                                  09/07/2021  11:24:22  PAGE 80


  C:7F91H         LINE#         1055
  C:7FA4H         LINE#         1056
  C:7FA6H         LINE#         1058
  C:7FA6H         LINE#         1059
  C:7FBDH         LINE#         1060
  C:7FBDH         LINE#         1061
  -------         ENDPROC       PROG_APB_MENSUAL
  -------         PROC          PROG_FECHA_VENCIMIENTO
  -------         DO            
  X:0046H         SYMBOL        buffer
  X:0051H         SYMBOL        cmd
  X:0054H         SYMBOL        fecha
  X:005BH         SYMBOL        dataee
  -------         ENDDO         
  C:595AH         LINE#         1063
  C:595AH         LINE#         1064
  C:595AH         LINE#         1071
  C:5967H         LINE#         1072
  C:597EH         LINE#         1075
  C:5995H         LINE#         1077
  C:5995H         LINE#         1078
  C:599EH         LINE#         1079
  C:59ABH         LINE#         1080
  C:59C2H         LINE#         1081
  C:59D4H         LINE#         1082
  C:59DDH         LINE#         1087
  C:59E8H         LINE#         1088
  C:59FCH         LINE#         1089
  C:5A09H         LINE#         1091
  C:5A12H         LINE#         1094
  C:5A1BH         LINE#         1095
  C:5A26H         LINE#         1096
  C:5A3DH         LINE#         1098
  C:5A45H         LINE#         1099
  C:5A4DH         LINE#         1100
  C:5A50H         LINE#         1102
  C:5A61H         LINE#         1103
  C:5A72H         LINE#         1105
  C:5A81H         LINE#         1106
  C:5A89H         LINE#         1107
  C:5A91H         LINE#         1108
  C:5A94H         LINE#         1109
  C:5AA5H         LINE#         1110
  C:5AB6H         LINE#         1111
  C:5AC5H         LINE#         1112
  C:5ACDH         LINE#         1113
  C:5AD5H         LINE#         1114
  C:5AD8H         LINE#         1115
  C:5AE9H         LINE#         1116
  C:5AFAH         LINE#         1117
  C:5B09H         LINE#         1118
  C:5B14H         LINE#         1120
  C:5B21H         LINE#         1122
  C:5B38H         LINE#         1123
  -------         ENDPROC       PROG_FECHA_VENCIMIENTO
  -------         PROC          VER_HORARIO
  -------         DO            
BL51 BANKED LINKER/LOCATER V6.22.2.0                                                  09/07/2021  11:24:22  PAGE 81


  X:0059H         SYMBOL        buffer
  X:0063H         SYMBOL        ee_addr_horario
  X:006EH         SYMBOL        conta
  X:006FH         SYMBOL        addr
  X:0071H         SYMBOL        temp
  X:0073H         SYMBOL        dataee
  -------         ENDDO         
  C:6DA7H         LINE#         1126
  C:6DA7H         LINE#         1127
  C:6DA7H         LINE#         1136
  C:6DB3H         LINE#         1137
  C:6DC9H         LINE#         1138
  C:6DC9H         LINE#         1140
  C:6DD9H         LINE#         1143
  C:6DF2H         LINE#         1144
  C:6DF8H         LINE#         1147
  C:6E06H         LINE#         1148
  C:6E15H         LINE#         1149
  C:6E2FH         LINE#         1150
  C:6E3AH         LINE#         1151
  C:6E3AH         LINE#         1152
  C:6E43H         LINE#         1154
  C:6E4CH         LINE#         1155
  C:6E5CH         LINE#         1156
  C:6E5FH         LINE#         1158
  C:6E6AH         LINE#         1159
  C:6E82H         LINE#         1160
  C:6E9CH         LINE#         1161
  C:6EA6H         LINE#         1162
  C:6EA6H         LINE#         1163
  C:6EADH         LINE#         1165
  C:6EBBH         LINE#         1166
  C:6EC3H         LINE#         1167
  C:6EC5H         LINE#         1169
  C:6EC5H         LINE#         1170
  C:6EC9H         LINE#         1171
  C:6EC9H         LINE#         1172
  C:6ECBH         LINE#         1174
  C:6ECBH         LINE#         1175
  C:6ED4H         LINE#         1176
  C:6ED4H         LINE#         1178
  C:6EDDH         LINE#         1181
  -------         ENDPROC       VER_HORARIO
  -------         PROC          PROG_MENSUALES
  -------         DO            
  X:0046H         SYMBOL        buffer
  X:0050H         SYMBOL        dataee
  -------         ENDDO         
  C:7FBEH         LINE#         1182
  C:7FBEH         LINE#         1183
  C:7FBEH         LINE#         1188
  C:7FD1H         LINE#         1189
  C:7FEEH         LINE#         1190
  C:7FF8H         LINE#         1191
  C:7FF8H         LINE#         1192
  C:800BH         LINE#         1193
  C:800DH         LINE#         1195
BL51 BANKED LINKER/LOCATER V6.22.2.0                                                  09/07/2021  11:24:22  PAGE 82


  C:800DH         LINE#         1196
  C:8024H         LINE#         1197
  C:8024H         LINE#         1199
  C:802DH         LINE#         1200
  C:8038H         LINE#         1201
  C:8049H         LINE#         1202
  C:8053H         LINE#         1204
  C:8066H         LINE#         1205
  C:8083H         LINE#         1206
  C:808DH         LINE#         1207
  C:808DH         LINE#         1208
  C:80A0H         LINE#         1209
  C:80A2H         LINE#         1211
  C:80A2H         LINE#         1212
  C:80B9H         LINE#         1213
  C:80B9H         LINE#         1215
  -------         ENDPROC       PROG_MENSUALES
  -------         PROC          VER_PROG
  -------         DO            
  X:0046H         SYMBOL        buffer
  X:0050H         SYMBOL        dataee
  X:0052H         SYMBOL        fecha
  -------         ENDDO         
  C:4217H         LINE#         1217
  C:4217H         LINE#         1218
  C:4217H         LINE#         1224
  C:4229H         LINE#         1225
  C:4246H         LINE#         1227
  C:425DH         LINE#         1229
  C:4270H         LINE#         1230
  C:428DH         LINE#         1232
  C:42A4H         LINE#         1234
  C:42B7H         LINE#         1235
  C:42D4H         LINE#         1236
  C:42E2H         LINE#         1237
  C:42E2H         LINE#         1238
  C:42E6H         LINE#         1239
  C:42E8H         LINE#         1241
  C:42E8H         LINE#         1242
  C:42EFH         LINE#         1243
  C:42EFH         LINE#         1245
  C:4302H         LINE#         1246
  C:431FH         LINE#         1247
  C:432BH         LINE#         1248
  C:432BH         LINE#         1249
  C:432FH         LINE#         1250
  C:4331H         LINE#         1252
  C:4331H         LINE#         1253
  C:4338H         LINE#         1254
  C:4338H         LINE#         1256
  C:434BH         LINE#         1257
  C:4368H         LINE#         1258
  C:4374H         LINE#         1259
  C:4374H         LINE#         1260
  C:4378H         LINE#         1261
  C:437AH         LINE#         1263
  C:437AH         LINE#         1264
BL51 BANKED LINKER/LOCATER V6.22.2.0                                                  09/07/2021  11:24:22  PAGE 83


  C:4381H         LINE#         1265
  C:4381H         LINE#         1267
  C:4394H         LINE#         1268
  C:43B1H         LINE#         1269
  C:43BDH         LINE#         1270
  C:43BDH         LINE#         1271
  C:43C1H         LINE#         1272
  C:43C3H         LINE#         1274
  C:43C3H         LINE#         1275
  C:43CAH         LINE#         1276
  C:43CAH         LINE#         1278
  C:43DDH         LINE#         1279
  C:43FAH         LINE#         1280
  C:4406H         LINE#         1281
  C:4406H         LINE#         1282
  C:440AH         LINE#         1283
  C:440CH         LINE#         1285
  C:440CH         LINE#         1286
  C:4413H         LINE#         1287
  C:4413H         LINE#         1289
  C:4426H         LINE#         1290
  C:4443H         LINE#         1291
  C:444FH         LINE#         1292
  C:444FH         LINE#         1293
  C:4453H         LINE#         1294
  C:4455H         LINE#         1296
  C:4455H         LINE#         1297
  C:445CH         LINE#         1298
  C:445CH         LINE#         1301
  C:446FH         LINE#         1302
  C:448CH         LINE#         1304
  C:44A3H         LINE#         1306
  C:44A6H         LINE#         1310
  C:44B9H         LINE#         1311
  C:44D6H         LINE#         1312
  C:44E2H         LINE#         1313
  C:44E2H         LINE#         1314
  C:44E6H         LINE#         1315
  C:44E8H         LINE#         1317
  C:44E8H         LINE#         1318
  C:44EFH         LINE#         1319
  C:44EFH         LINE#         1321
  C:4502H         LINE#         1322
  C:451FH         LINE#         1323
  C:452BH         LINE#         1324
  C:452BH         LINE#         1325
  C:452FH         LINE#         1326
  C:4531H         LINE#         1328
  C:4531H         LINE#         1329
  C:4538H         LINE#         1330
  C:4538H         LINE#         1333
  C:454BH         LINE#         1334
  C:4568H         LINE#         1335
  C:4574H         LINE#         1336
  C:4574H         LINE#         1337
  C:4578H         LINE#         1338
  C:457AH         LINE#         1340
BL51 BANKED LINKER/LOCATER V6.22.2.0                                                  09/07/2021  11:24:22  PAGE 84


  C:457AH         LINE#         1341
  C:4581H         LINE#         1342
  C:4581H         LINE#         1345
  C:458EH         LINE#         1347
  C:45A5H         LINE#         1348
  C:45BCH         LINE#         1351
  C:45C8H         LINE#         1352
  -------         ENDPROC       VER_PROG
  -------         PROC          SHOW
  C:98F2H         LINE#         1359
  C:98F2H         LINE#         1360
  C:98F2H         LINE#         1361
  C:98FBH         LINE#         1362
  C:9904H         LINE#         1363
  C:990DH         LINE#         1364
  C:9916H         LINE#         1365
  C:991FH         LINE#         1366
  C:9928H         LINE#         1367
  C:9931H         LINE#         1368
  C:993AH         LINE#         1369
  C:9943H         LINE#         1370
  C:994CH         LINE#         1371
  C:9955H         LINE#         1372
  C:995EH         LINE#         1373
  C:9967H         LINE#         1374
  C:9970H         LINE#         1375
  C:9979H         LINE#         1376
  C:9982H         LINE#         1377
  C:998BH         LINE#         1378
  -------         ENDPROC       SHOW
  -------         PROC          FIRST_CLAVE
  -------         DO            
  X:0046H         SYMBOL        clave
  -------         ENDDO         
  C:B1BBH         LINE#         1385
  C:B1BBH         LINE#         1386
  C:B1BBH         LINE#         1390
  C:B1C4H         LINE#         1391
  C:B1C9H         LINE#         1392
  C:B1DBH         LINE#         1393
  C:B1E8H         LINE#         1394
  C:B1EEH         LINE#         1395
  C:B1F1H         LINE#         1396
  C:B1F4H         LINE#         1397
  C:B1F6H         LINE#         1399
  -------         ENDPROC       FIRST_CLAVE
  -------         PROC          MENU
  -------         DO            
  X:0001H         SYMBOL        cmd
  X:0004H         SYMBOL        option1
  X:0007H         SYMBOL        option2
  X:000AH         SYMBOL        opt_buffer
  X:0032H         SYMBOL        buffer
  D:0007H         SYMBOL        dato
  -------         ENDDO         
  C:5304H         LINE#         1403
  C:5304H         LINE#         1404
BL51 BANKED LINKER/LOCATER V6.22.2.0                                                  09/07/2021  11:24:22  PAGE 85


  C:5304H         LINE#         1414
  C:530DH         LINE#         1419
  C:5319H         LINE#         1420
  C:5319H         LINE#         1421
  C:531CH         LINE#         1422
  C:5326H         LINE#         1425
  C:5326H         LINE#         1427
  C:5326H         LINE#         1428
  C:532FH         LINE#         1429
  C:533CH         LINE#         1430
  C:5341H         LINE#         1431
  C:5357H         LINE#         1432
  C:5369H         LINE#         1433
  C:5372H         LINE#         1438
  C:537DH         LINE#         1439
  C:538BH         LINE#         1440
  C:5398H         LINE#         1442
  C:53A1H         LINE#         1445
  C:53A9H         LINE#         1446
  C:53ADH         LINE#         1447
  C:53ADH         LINE#         1448
  C:53ADH         LINE#         1449
  C:53B0H         LINE#         1451
  C:53B0H         LINE#         1452
  C:53B9H         LINE#         1453
  C:53C3H         LINE#         1454
  C:53C3H         LINE#         1455
  C:53C3H         LINE#         1456
  C:53C3H         LINE#         1457
  C:53C6H         LINE#         1460
  C:53D1H         LINE#         1461
  C:53DFH         LINE#         1462
  C:53F3H         LINE#         1463
  C:5407H         LINE#         1468
  C:541DH         LINE#         1469
  C:541DH         LINE#         1471
  C:542CH         LINE#         1472
  C:542EH         LINE#         1473
  C:543EH         LINE#         1474
  C:543EH         LINE#         1476
  C:544DH         LINE#         1477
  C:546BH         LINE#         1478
  C:546BH         LINE#         1484
  C:547EH         LINE#         1485
  C:547EH         LINE#         1486
  C:54CAH         LINE#         1487
  C:54CAH         LINE#         1488
  C:54CAH         LINE#         1489
  C:54CDH         LINE#         1491
  C:54D0H         LINE#         1493
  C:54D0H         LINE#         1494
  C:54D3H         LINE#         1495
  C:54D6H         LINE#         1496
  C:54D6H         LINE#         1497
  C:54D9H         LINE#         1498
  C:54DCH         LINE#         1499
  C:54DCH         LINE#         1500
BL51 BANKED LINKER/LOCATER V6.22.2.0                                                  09/07/2021  11:24:22  PAGE 86


  C:54DFH         LINE#         1501
  C:54E2H         LINE#         1502
  C:54E2H         LINE#         1503
  C:54E5H         LINE#         1504
  C:54E8H         LINE#         1505
  C:54E8H         LINE#         1506
  C:54EBH         LINE#         1507
  C:54EEH         LINE#         1508
  C:54EEH         LINE#         1509
  C:54F1H         LINE#         1510
  C:54F4H         LINE#         1511
  C:54F4H         LINE#         1512
  C:54F7H         LINE#         1513
  C:54FAH         LINE#         1514
  C:54FAH         LINE#         1515
  C:54FDH         LINE#         1516
  C:5500H         LINE#         1517
  C:5500H         LINE#         1518
  C:5503H         LINE#         1519
  C:5506H         LINE#         1520
  C:5506H         LINE#         1521
  C:5509H         LINE#         1522
  C:550CH         LINE#         1523
  C:550CH         LINE#         1524
  C:550FH         LINE#         1525
  C:5512H         LINE#         1526
  C:5512H         LINE#         1527
  C:5515H         LINE#         1528
  C:5518H         LINE#         1529
  C:5518H         LINE#         1530
  C:551BH         LINE#         1531
  C:551EH         LINE#         1533
  C:551EH         LINE#         1534
  C:5521H         LINE#         1535
  C:5524H         LINE#         1536
  C:5524H         LINE#         1537
  C:5527H         LINE#         1538
  C:552AH         LINE#         1539
  C:552AH         LINE#         1540
  C:552DH         LINE#         1541
  C:5530H         LINE#         1542
  C:5530H         LINE#         1544
  C:5530H         LINE#         1545
  C:5530H         LINE#         1546
  C:5533H         LINE#         1547
  C:5536H         LINE#         1550
  C:5536H         LINE#         1551
  C:5554H         LINE#         1552
  C:5557H         LINE#         1553
  C:5557H         LINE#         1554
  C:5557H         LINE#         1555
  C:5557H         LINE#         1556
  -------         ENDPROC       MENU
  -------         ENDMOD        PROG

  -------         MODULE        PTO_PARALELO
  C:0000H         SYMBOL        _ICE_DUMMY_
BL51 BANKED LINKER/LOCATER V6.22.2.0                                                  09/07/2021  11:24:22  PAGE 87


  D:0080H         PUBLIC        P0
  D:00A0H         PUBLIC        P2
  D:00B0H         PUBLIC        P3
  C:6C6BH         PUBLIC        load_and_send_id_cod
  C:9CA5H         PUBLIC        _recibe_port
  B:00B0H.2       PUBLIC        ready
  B:0080H.6       PUBLIC        rx_in_data
  C:BD4DH         PUBLIC        Pulso_Bus
  C:A24EH         PUBLIC        _send_portERR
  B:00B0H.3       PUBLIC        busy
  C:B0DBH         PUBLIC        load_and_send_info_reloj
  C:94F3H         PUBLIC        _send_port
  B:00B0H.4       PUBLIC        port_clk
  C:BDCEH         PUBLIC        cond_ini_pto
  -------         PROC          _RECIBE_PORT
  X:0001H         SYMBOL        buffer_port
  -------         DO            
  D:0006H         SYMBOL        count
  X:0004H         SYMBOL        time_out
  X:0005H         SYMBOL        num_data
  X:0006H         SYMBOL        T_ANCHO
  X:0008H         SYMBOL        data_temp
  -------         ENDDO         
  C:9CA5H         LINE#         61
  C:9CB0H         LINE#         62
  C:9CB0H         LINE#         66
  C:9CB9H         LINE#         67
  C:9CBCH         LINE#         70
  C:9CBFH         LINE#         71
  C:9CBFH         LINE#         73
  C:9CC2H         LINE#         74
  C:9CC7H         LINE#         75
  C:9CC9H         LINE#         76
  C:9CCDH         LINE#         77
  C:9CCFH         LINE#         80
  C:9CD4H         LINE#         81
  C:9CDDH         LINE#         82
  C:9CDDH         LINE#         83
  C:9CE0H         LINE#         84
  C:9CE0H         LINE#         86
  C:9CE5H         LINE#         87
  C:9CE9H         LINE#         88
  C:9CE9H         LINE#         89
  C:9CEBH         LINE#         90
  C:9CEDH         LINE#         91
  C:9CEDH         LINE#         92
  C:9CEDH         LINE#         94
  C:9CEDH         LINE#         95
  C:9CFAH         LINE#         96
  C:9CFAH         LINE#         98
  C:9CFDH         LINE#         99
  C:9CFDH         LINE#         101
  C:9D03H         LINE#         103
  C:9D05H         LINE#         104
  C:9D19H         LINE#         105
  C:9D23H         LINE#         106
  C:9D29H         LINE#         107
BL51 BANKED LINKER/LOCATER V6.22.2.0                                                  09/07/2021  11:24:22  PAGE 88


  C:9D2FH         LINE#         108
  C:9D31H         LINE#         109
  C:9D31H         LINE#         110
  C:9D31H         LINE#         111
  C:9D31H         LINE#         114
  C:9D33H         LINE#         115
  C:9D35H         LINE#         116
  C:9D35H         LINE#         117
  C:9D38H         LINE#         119
  C:9D3DH         LINE#         120
  -------         ENDPROC       _RECIBE_PORT
  -------         PROC          _SEND_PORT
  X:0016H         SYMBOL        buffer_port
  X:0019H         SYMBOL        length_char
  -------         DO            
  X:001AH         SYMBOL        cont
  X:001EH         SYMBOL        timeOut
  X:001FH         SYMBOL        length
  -------         ENDDO         
  C:94F3H         LINE#         127
  C:9501H         LINE#         128
  C:9501H         LINE#         133
  C:9505H         LINE#         135
  C:9507H         LINE#         136
  C:9509H         LINE#         137
  C:950BH         LINE#         138
  C:9510H         LINE#         139
  C:9512H         LINE#         140
  C:951CH         LINE#         142
  C:9525H         LINE#         143
  C:9525H         LINE#         144
  C:9527H         LINE#         145
  C:9529H         LINE#         146
  C:954DH         LINE#         147
  C:9561H         LINE#         148
  C:9561H         LINE#         149
  C:9564H         LINE#         151
  C:9564H         LINE#         152
  C:9566H         LINE#         153
  C:956FH         LINE#         154
  C:956FH         LINE#         158
  C:956FH         LINE#         160
  C:957FH         LINE#         161
  C:9582H         LINE#         162
  C:958CH         LINE#         164
  C:9592H         LINE#         165
  C:9595H         LINE#         167
  C:9595H         LINE#         169
  C:9598H         LINE#         170
  C:959AH         LINE#         171
  C:959CH         LINE#         172
  C:959EH         LINE#         173
  -------         ENDPROC       _SEND_PORT
  -------         PROC          PULSO_BUS
  C:BD4DH         LINE#         181
  C:BD4DH         LINE#         182
  C:BD4DH         LINE#         183
BL51 BANKED LINKER/LOCATER V6.22.2.0                                                  09/07/2021  11:24:22  PAGE 89


  C:BD4FH         LINE#         184
  C:BD56H         LINE#         185
  C:BD58H         LINE#         186
  -------         ENDPROC       PULSO_BUS
  -------         PROC          _SEND_PORTERR
  X:0018H         SYMBOL        cod_err
  -------         DO            
  X:0019H         SYMBOL        timeOut
  X:001AH         SYMBOL        cont
  -------         ENDDO         
  C:A24EH         LINE#         191
  C:A254H         LINE#         192
  C:A254H         LINE#         196
  C:A256H         LINE#         197
  C:A258H         LINE#         198
  C:A25BH         LINE#         199
  C:A263H         LINE#         201
  C:A265H         LINE#         202
  C:A267H         LINE#         203
  C:A270H         LINE#         204
  C:A270H         LINE#         205
  C:A292H         LINE#         206
  C:A2A6H         LINE#         207
  C:A2A6H         LINE#         208
  C:A2ABH         LINE#         209
  C:A2ABH         LINE#         210
  C:A2ADH         LINE#         211
  C:A2B6H         LINE#         212
  C:A2B6H         LINE#         213
  C:A2BCH         LINE#         214
  C:A2BFH         LINE#         215
  C:A2BFH         LINE#         216
  C:A2C1H         LINE#         217
  C:A2C3H         LINE#         218
  C:A2C5H         LINE#         220
  C:A2C8H         LINE#         222
  C:A2CFH         LINE#         223
  -------         ENDPROC       _SEND_PORTERR
  -------         PROC          COND_INI_PTO
  C:BDCEH         LINE#         229
  C:BDCEH         LINE#         230
  C:BDCEH         LINE#         232
  C:BDD0H         LINE#         233
  C:BDD2H         LINE#         234
  C:BDD4H         LINE#         235
  C:BDD7H         LINE#         236
  -------         ENDPROC       COND_INI_PTO
  -------         PROC          LOAD_AND_SEND_INFO_RELOJ
  -------         DO            
  X:0002H         SYMBOL        buffer_info
  -------         ENDDO         
  C:B0DBH         LINE#         242
  C:B0DBH         LINE#         243
  C:B0DBH         LINE#         246
  C:B0E1H         LINE#         248
  C:B0E5H         LINE#         254
  C:B0EEH         LINE#         257
BL51 BANKED LINKER/LOCATER V6.22.2.0                                                  09/07/2021  11:24:22  PAGE 90


  C:B0F8H         LINE#         258
  C:B0FCH         LINE#         259
  C:B0FFH         LINE#         260
  C:B108H         LINE#         261
  C:B119H         LINE#         262
  C:B11CH         LINE#         263
  -------         ENDPROC       LOAD_AND_SEND_INFO_RELOJ
  -------         PROC          LOAD_AND_SEND_ID_COD
  -------         DO            
  X:0002H         SYMBOL        buffer_info
  X:000DH         SYMBOL        buf
  X:0011H         SYMBOL        i
  X:0012H         SYMBOL        ID_CLIENTE
  X:0014H         SYMBOL        COD_PARK
  -------         ENDDO         
  C:6C6BH         LINE#         270
  C:6C6BH         LINE#         271
  C:6C6BH         LINE#         279
  C:6C7BH         LINE#         281
  C:6C8CH         LINE#         283
  C:6C92H         LINE#         284
  C:6C96H         LINE#         285
  C:6C99H         LINE#         287
  C:6CBFH         LINE#         288
  C:6CD6H         LINE#         291
  C:6CEDH         LINE#         294
  C:6D13H         LINE#         295
  C:6D2AH         LINE#         297
  C:6D41H         LINE#         298
  C:6D4FH         LINE#         299
  C:6D60H         LINE#         300
  C:6D73H         LINE#         301
  C:6D79H         LINE#         302
  C:6D82H         LINE#         303
  C:6D96H         LINE#         304
  C:6D99H         LINE#         305
  -------         ENDPROC       LOAD_AND_SEND_ID_COD
  -------         ENDMOD        PTO_PARALELO

  -------         MODULE        TIBBO
  C:0000H         SYMBOL        _ICE_DUMMY_
  C:B364H         PUBLIC        _Debug_HexDec
  C:B17DH         PUBLIC        _Debug_txt_Tibbo
  D:0080H         PUBLIC        P0
  D:0090H         PUBLIC        P1
  B:0090H.0       PUBLIC        txd2
  B:00A8H.7       PUBLIC        EA
  C:B901H         PUBLIC        _Debug_txt_rs232
  C:AFA6H         PUBLIC        _Debug_Buffer_rs232_lcd
  C:B12AH         PUBLIC        _tx_aux
  B:0080H.0       PUBLIC        rx_ip
  C:BDE4H         PUBLIC        Debug_Dividir_texto
  C:BE30H         PUBLIC        cond_ini_tibbo
  C:BDA3H         PUBLIC        time_mbit
  C:A2D6H         PUBLIC        rx_Data
  C:BCDFH         PUBLIC        time_bit
  C:B577H         PUBLIC        _Debug_pto_paralelo
BL51 BANKED LINKER/LOCATER V6.22.2.0                                                  09/07/2021  11:24:22  PAGE 91


  C:B72AH         PUBLIC        _Debug_monitor
  C:A4F3H         PUBLIC        _DebugBufferMF
  C:B203H         PUBLIC        _Debug_chr_Tibbo
  B:0080H.7       PUBLIC        sel_com
  C:B24AH         PUBLIC        _Debug_chr_rs232_lcd
  C:BCD9H         SYMBOL        L?0080
  -------         PROC          L?0079
  -------         ENDPROC       L?0079
  C:BCD9H         SYMBOL        L?0080
  -------         PROC          TIME_BIT
  -------         DO            
  D:0007H         SYMBOL        j
  -------         ENDDO         
  C:BCDFH         LINE#         21
  C:BCDFH         LINE#         22
  C:BCDFH         LINE#         24
  C:BCEBH         LINE#         25
  C:BCEBH         LINE#         26
  C:BCEEH         LINE#         52
  -------         ENDPROC       TIME_BIT
  -------         PROC          TIME_MBIT
  -------         DO            
  D:0007H         SYMBOL        j
  -------         ENDDO         
  C:BDA3H         LINE#         55
  C:BDA3H         LINE#         56
  C:BDA3H         LINE#         60
  C:BDAFH         LINE#         61
  C:BDAFH         LINE#         71
  C:BDB2H         LINE#         73
  -------         ENDPROC       TIME_MBIT
  -------         PROC          L?0083
  -------         ENDPROC       L?0083
  -------         PROC          _TX_AUX
  D:0006H         SYMBOL        caracter
  -------         DO            
  D:0004H         SYMBOL        j
  D:0005H         SYMBOL        temporal
  D:0006H         SYMBOL        bitTX
  -------         ENDDO         
  C:B12AH         LINE#         78
  C:B12CH         LINE#         79
  C:B12CH         LINE#         82
  C:B12EH         LINE#         83
  C:B130H         LINE#         84
  C:B133H         LINE#         85
  C:B134H         LINE#         86
  C:B135H         LINE#         87
  C:B137H         LINE#         88
  C:B13BH         LINE#         89
  C:B13DH         LINE#         90
  C:B13DH         LINE#         91
  C:B13FH         LINE#         92
  C:B141H         LINE#         94
  C:B141H         LINE#         95
  C:B143H         LINE#         96
  C:B143H         LINE#         97
BL51 BANKED LINKER/LOCATER V6.22.2.0                                                  09/07/2021  11:24:22  PAGE 92


  C:B146H         LINE#         98
  C:B152H         LINE#         99
  C:B152H         LINE#         100
  C:B156H         LINE#         101
  C:B159H         LINE#         102
  C:B15BH         LINE#         103
  C:B15BH         LINE#         104
  C:B15DH         LINE#         105
  C:B15FH         LINE#         107
  C:B15FH         LINE#         108
  C:B161H         LINE#         109
  C:B161H         LINE#         110
  C:B164H         LINE#         111
  C:B167H         LINE#         112
  C:B169H         LINE#         113
  C:B16CH         LINE#         114
  C:B16FH         LINE#         116
  C:B171H         LINE#         117
  -------         ENDPROC       _TX_AUX
  -------         PROC          _DEBUG_HEXDEC
  D:0007H         SYMBOL        xfc
  -------         DO            
  X:0018H         SYMBOL        valor
  D:0006H         SYMBOL        centena
  D:0003H         SYMBOL        decena
  D:0002H         SYMBOL        unidad
  -------         ENDDO         
  C:B364H         LINE#         120
  C:B364H         LINE#         121
  C:B364H         LINE#         124
  C:B36BH         LINE#         126
  C:B36CH         LINE#         127
  C:B36DH         LINE#         128
  C:B36EH         LINE#         129
  C:B376H         LINE#         130
  C:B376H         LINE#         131
  C:B380H         LINE#         132
  C:B380H         LINE#         133
  C:B384H         LINE#         134
  C:B385H         LINE#         135
  C:B387H         LINE#         136
  C:B391H         LINE#         137
  C:B391H         LINE#         138
  C:B395H         LINE#         139
  C:B396H         LINE#         140
  C:B398H         LINE#         141
  C:B39AH         LINE#         142
  C:B39EH         LINE#         143
  C:B3A2H         LINE#         144
  C:B3A9H         LINE#         146
  C:B3A9H         LINE#         147
  -------         ENDPROC       _DEBUG_HEXDEC
  -------         PROC          _DEBUG_CHR_TIBBO
  D:0003H         SYMBOL        Dat
  -------         DO            
  D:0007H         SYMBOL        temp
  -------         ENDDO         
BL51 BANKED LINKER/LOCATER V6.22.2.0                                                  09/07/2021  11:24:22  PAGE 93


  C:B203H         LINE#         152
  C:B205H         LINE#         153
  C:B205H         LINE#         155
  C:B20DH         LINE#         156
  C:B20DH         LINE#         157
  C:B214H         LINE#         158
  C:B227H         LINE#         160
  C:B22AH         LINE#         162
  C:B22EH         LINE#         163
  C:B241H         LINE#         164
  C:B244H         LINE#         165
  C:B249H         LINE#         167
  C:B249H         LINE#         168
  -------         ENDPROC       _DEBUG_CHR_TIBBO
  -------         PROC          _DEBUG_CHR_RS232_LCD
  X:0017H         SYMBOL        Dat
  -------         DO            
  D:0007H         SYMBOL        temp
  D:0006H         SYMBOL        d
  -------         ENDDO         
  C:B24AH         LINE#         169
  C:B24FH         LINE#         170
  C:B24FH         LINE#         172
  C:B255H         LINE#         173
  C:B268H         LINE#         174
  C:B26DH         LINE#         175
  C:B274H         LINE#         176
  C:B287H         LINE#         177
  C:B28CH         LINE#         178
  -------         ENDPROC       _DEBUG_CHR_RS232_LCD
  -------         PROC          _DEBUGBUFFERMF
  X:0027H         SYMBOL        str
  X:002AH         SYMBOL        num_char
  X:002BH         SYMBOL        io
  -------         DO            
  X:002CH         SYMBOL        j
  -------         ENDDO         
  C:A4F3H         LINE#         186
  C:A501H         LINE#         187
  C:A501H         LINE#         191
  C:A509H         LINE#         192
  C:A509H         LINE#         193
  C:A518H         LINE#         194
  C:A518H         LINE#         195
  C:A51EH         LINE#         196
  C:A520H         LINE#         197
  C:A52DH         LINE#         198
  C:A52DH         LINE#         199
  C:A536H         LINE#         200
  C:A536H         LINE#         202
  C:A548H         LINE#         203
  C:A548H         LINE#         204
  C:A55AH         LINE#         205
  C:A564H         LINE#         206
  C:A56CH         LINE#         207
  C:A571H         LINE#         208
  C:A576H         LINE#         209
BL51 BANKED LINKER/LOCATER V6.22.2.0                                                  09/07/2021  11:24:22  PAGE 94


  C:A576H         LINE#         211
  -------         ENDPROC       _DEBUGBUFFERMF
  -------         PROC          _DEBUG_BUFFER_RS232_LCD
  X:0011H         SYMBOL        str
  X:0014H         SYMBOL        num_char
  -------         DO            
  X:0015H         SYMBOL        j
  X:0016H         SYMBOL        d
  -------         ENDDO         
  C:AFA6H         LINE#         212
  C:AFB4H         LINE#         213
  C:AFB4H         LINE#         215
  C:AFB6H         LINE#         216
  C:AFC4H         LINE#         217
  C:AFC4H         LINE#         218
  C:AFD6H         LINE#         219
  C:AFE0H         LINE#         220
  C:AFE8H         LINE#         221
  C:AFF2H         LINE#         224
  C:AFF4H         LINE#         225
  -------         ENDPROC       _DEBUG_BUFFER_RS232_LCD
  C:B177H         SYMBOL        L?0082
  -------         PROC          L?0081
  -------         ENDPROC       L?0081
  C:B177H         SYMBOL        L?0082
  -------         PROC          _DEBUG_TXT_TIBBO
  X:0064H         SYMBOL        str
  -------         DO            
  X:0067H         SYMBOL        i
  -------         ENDDO         
  C:B17DH         LINE#         229
  C:B188H         LINE#         230
  C:B188H         LINE#         232
  C:B18BH         LINE#         234
  C:B193H         LINE#         235
  C:B193H         LINE#         236
  C:B1AFH         LINE#         237
  C:B1AFH         LINE#         238
  C:B1B2H         LINE#         239
  C:B1BAH         LINE#         241
  C:B1BAH         LINE#         242
  -------         ENDPROC       _DEBUG_TXT_TIBBO
  -------         PROC          _DEBUG_TXT_RS232
  X:0007H         SYMBOL        str
  -------         DO            
  X:000AH         SYMBOL        i
  X:000BH         SYMBOL        d
  -------         ENDDO         
  C:B901H         LINE#         243
  C:B90CH         LINE#         244
  C:B90CH         LINE#         246
  C:B90FH         LINE#         249
  C:B928H         LINE#         250
  C:B928H         LINE#         251
  C:B930H         LINE#         252
  C:B938H         LINE#         255
  -------         ENDPROC       _DEBUG_TXT_RS232
BL51 BANKED LINKER/LOCATER V6.22.2.0                                                  09/07/2021  11:24:22  PAGE 95


  -------         PROC          DEBUG_DIVIDIR_TEXTO
  C:BDE4H         LINE#         256
  C:BDE4H         LINE#         257
  C:BDE4H         LINE#         258
  -------         ENDPROC       DEBUG_DIVIDIR_TEXTO
  -------         PROC          RX_DATA
  -------         DO            
  D:0006H         SYMBOL        temporal
  -------         ENDDO         
  C:A2D6H         LINE#         264
  C:A2D6H         LINE#         265
  C:A2D6H         LINE#         268
  C:A2D8H         LINE#         269
  C:A2DBH         LINE#         271
  C:A2DEH         LINE#         273
  C:A2EAH         LINE#         274
  C:A2EAH         LINE#         276
  C:A2EDH         LINE#         278
  C:A2F9H         LINE#         279
  C:A2F9H         LINE#         281
  C:A2FCH         LINE#         283
  C:A308H         LINE#         284
  C:A308H         LINE#         286
  C:A30BH         LINE#         288
  C:A317H         LINE#         289
  C:A317H         LINE#         291
  C:A31AH         LINE#         293
  C:A326H         LINE#         294
  C:A326H         LINE#         296
  C:A329H         LINE#         298
  C:A335H         LINE#         299
  C:A335H         LINE#         301
  C:A338H         LINE#         303
  C:A344H         LINE#         304
  C:A344H         LINE#         306
  C:A347H         LINE#         307
  C:A355H         LINE#         309
  C:A358H         LINE#         310
  C:A35BH         LINE#         311
  C:A35BH         LINE#         312
  C:A35BH         LINE#         315
  C:A35DH         LINE#         317
  -------         ENDPROC       RX_DATA
  -------         PROC          COND_INI_TIBBO
  C:BE30H         LINE#         335
  C:BE30H         LINE#         336
  C:BE30H         LINE#         338
  C:BE32H         LINE#         339
  C:BE34H         LINE#         340
  -------         ENDPROC       COND_INI_TIBBO
  -------         PROC          _DEBUG_PTO_PARALELO
  X:0001H         SYMBOL        buffer
  X:0004H         SYMBOL        Length_trama
  C:B577H         LINE#         341
  C:B585H         LINE#         342
  C:B585H         LINE#         344
  C:B58EH         LINE#         345
BL51 BANKED LINKER/LOCATER V6.22.2.0                                                  09/07/2021  11:24:22  PAGE 96


  C:B5A5H         LINE#         346
  C:B5AEH         LINE#         347
  C:B5B1H         LINE#         348
  C:B5B4H         LINE#         349
  -------         ENDPROC       _DEBUG_PTO_PARALELO
  -------         PROC          _DEBUG_MONITOR
  X:0011H         SYMBOL        buffer
  X:0014H         SYMBOL        Length_trama
  C:B72AH         LINE#         352
  C:B738H         LINE#         353
  C:B738H         LINE#         354
  C:B73BH         LINE#         355
  C:B744H         LINE#         356
  C:B752H         LINE#         357
  C:B755H         LINE#         358
  C:B75EH         LINE#         359
  C:B761H         LINE#         360
  C:B764H         LINE#         361
  -------         ENDPROC       _DEBUG_MONITOR
  -------         ENDMOD        TIBBO

  -------         MODULE        UART
  C:0000H         SYMBOL        _ICE_DUMMY_
  C:BB6FH         PUBLIC        com_getchar
  C:BD5FH         PUBLIC        com_rbuflen
  C:BD71H         PUBLIC        com_tbuflen
  B:00A8H.4       PUBLIC        ES
  B:0098H.0       PUBLIC        RI
  C:B81BH         PUBLIC        _com_putchar
  B:0098H.1       PUBLIC        TI
  B:0021H.4       PUBLIC        aSk
  B:00B8H.4       PUBLIC        PS
  D:000DH         SYMBOL        r_in
  D:000EH         SYMBOL        r_out
  D:000FH         SYMBOL        t_in
  D:0010H         SYMBOL        t_out
  D:0099H         PUBLIC        SBUF
  D:0087H         PUBLIC        PCON
  D:0089H         PUBLIC        TMOD
  B:0021H.5       SYMBOL        ti_restart
  B:00A8H.3       PUBLIC        ET1
  D:008DH         PUBLIC        TH1
  B:0098H.7       PUBLIC        SM0
  B:0098H.6       PUBLIC        SM1
  D:008BH         PUBLIC        TL1
  B:0098H.5       PUBLIC        SM2
  B:0088H.6       PUBLIC        TR1
  C:BACCH         PUBLIC        com_initialize
  X:0217H         PUBLIC        cnt__ask_off
  B:0098H.4       PUBLIC        REN
  C:B634H         PUBLIC        com_baudrate
  C:5B4FH         SYMBOL        com_isr
  -------         PROC          COM_ISR
  -------         DO            
  X:0215H         SYMBOL        cDatoRx
  D:0006H         SYMBOL        k
  D:0007H         SYMBOL        bcc
BL51 BANKED LINKER/LOCATER V6.22.2.0                                                  09/07/2021  11:24:22  PAGE 97


  X:0216H         SYMBOL        num_datos
  -------         ENDDO         
  C:5B4FH         LINE#         102
  C:5B64H         LINE#         110
  C:5B6AH         LINE#         111
  C:5B6AH         LINE#         113
  C:5B6CH         LINE#         114
  C:5B72H         LINE#         115
  C:5B82H         LINE#         116
  C:5B82H         LINE#         117
  C:5B8DH         LINE#         118
  C:5B8FH         LINE#         120
  C:5B8FH         LINE#         121
  C:5B9FH         LINE#         122
  C:5B9FH         LINE#         123
  C:5BA4H         LINE#         124
  C:5BA4H         LINE#         125
  C:5BC1H         LINE#         126
  C:5BC1H         LINE#         130
  C:5BC1H         LINE#         133
  C:5BD0H         LINE#         134
  C:5BD0H         LINE#         135
  C:5BD2H         LINE#         136
  C:5BDAH         LINE#         137
  C:5BDFH         LINE#         139
  C:5BDFH         LINE#         141
  C:5BE2H         LINE#         145
  C:5BE2H         LINE#         146
  C:5BE2H         LINE#         147
  C:5BFAH         LINE#         148
  C:5C09H         LINE#         149
  C:5C09H         LINE#         150
  C:5C09H         LINE#         151
  C:5C0BH         LINE#         153
  C:5C0BH         LINE#         154
  C:5C0DH         LINE#         155
  C:5C0DH         LINE#         156
  C:5C0DH         LINE#         157
  C:5C10H         LINE#         161
  C:5C10H         LINE#         163
  C:5C19H         LINE#         164
  C:5C19H         LINE#         166
  C:5C1FH         LINE#         167
  C:5C32H         LINE#         168
  C:5C32H         LINE#         169
  C:5C35H         LINE#         171
  C:5C35H         LINE#         172
  C:5C4AH         LINE#         173
  C:5C50H         LINE#         174
  C:5C50H         LINE#         176
  C:5C53H         LINE#         180
  C:5C53H         LINE#         182
  C:5C6BH         LINE#         183
  C:5C71H         LINE#         184
  C:5C74H         LINE#         185
  C:5C74H         LINE#         186
  C:5C8CH         LINE#         187
BL51 BANKED LINKER/LOCATER V6.22.2.0                                                  09/07/2021  11:24:22  PAGE 98


  C:5C8CH         LINE#         188
  C:5C8DH         LINE#         189
  C:5C9AH         LINE#         190
  C:5C9AH         LINE#         191
  C:5CA7H         LINE#         192
  C:5CAAH         LINE#         193
  C:5CB8H         LINE#         194
  C:5CB8H         LINE#         195
  C:5CBAH         LINE#         196
  C:5CBFH         LINE#         197
  C:5CC1H         LINE#         198
  C:5CC5H         LINE#         200
  C:5CC7H         LINE#         202
  C:5CC7H         LINE#         203
  C:5CC7H         LINE#         204
  C:5CC7H         LINE#         205
  C:5CC9H         LINE#         207
  C:5CC9H         LINE#         208
  C:5CC9H         LINE#         209
  C:5CC9H         LINE#         211
  C:5CCBH         LINE#         213
  C:5CCBH         LINE#         214
  C:5CD1H         LINE#         215
  C:5CD1H         LINE#         217
  C:5CD3H         LINE#         218
  C:5CD3H         LINE#         219
  C:5CEBH         LINE#         220
  C:5D09H         LINE#         221
  C:5D09H         LINE#         222
  C:5D0BH         LINE#         223
  C:5D0DH         LINE#         224
  C:5D0DH         LINE#         225
  C:5D0DH         LINE#         227
  C:5D0FH         LINE#         231
  C:5D0FH         LINE#         232
  C:5D14H         LINE#         233
  C:5D14H         LINE#         234
  C:5D14H         LINE#         235
  C:5D14H         LINE#         240
  C:5D17H         LINE#         241
  C:5D17H         LINE#         242
  C:5D19H         LINE#         244
  C:5D1FH         LINE#         245
  C:5D1FH         LINE#         246
  C:5D29H         LINE#         248
  C:5D2BH         LINE#         249
  C:5D2DH         LINE#         250
  C:5D2FH         LINE#         252
  C:5D2FH         LINE#         253
  C:5D31H         LINE#         254
  C:5D31H         LINE#         255
  C:5D31H         LINE#         257
  -------         ENDPROC       COM_ISR
  -------         PROC          COM_INITIALIZE
  C:BACCH         LINE#         273
  C:BAD3H         LINE#         274
  C:BAD3H         LINE#         278
BL51 BANKED LINKER/LOCATER V6.22.2.0                                                  09/07/2021  11:24:22  PAGE 99


  C:BAD6H         LINE#         283
  C:BAD9H         LINE#         284
  C:BADBH         LINE#         286
  C:BADDH         LINE#         287
  C:BADFH         LINE#         292
  C:BAE3H         LINE#         293
  C:BAE5H         LINE#         294
  C:BAE7H         LINE#         296
  C:BAE9H         LINE#         297
  C:BAEBH         LINE#         298
  C:BAEDH         LINE#         300
  C:BAEFH         LINE#         301
  C:BAF1H         LINE#         302
  -------         ENDPROC       COM_INITIALIZE
  -------         PROC          COM_BAUDRATE
  -------         DO            
  D:0007H         SYMBOL        dataee
  -------         ENDDO         
  C:B634H         LINE#         308
  C:B63BH         LINE#         310
  C:B63BH         LINE#         312
  C:B644H         LINE#         317
  C:B646H         LINE#         318
  C:B649H         LINE#         319
  C:B64BH         LINE#         324
  C:B64DH         LINE#         325
  C:B64FH         LINE#         327
  C:B652H         LINE#         329
  C:B655H         LINE#         330
  C:B658H         LINE#         332
  C:B65BH         LINE#         333
  C:B65BH         LINE#         334
  C:B65EH         LINE#         335
  C:B661H         LINE#         336
  C:B663H         LINE#         337
  C:B665H         LINE#         339
  C:B665H         LINE#         341
  C:B668H         LINE#         342
  C:B66BH         LINE#         343
  C:B66DH         LINE#         344
  C:B66DH         LINE#         345
  -------         ENDPROC       COM_BAUDRATE
  -------         PROC          _COM_PUTCHAR
  X:00AAH         SYMBOL        c
  C:B81BH         LINE#         351
  C:B827H         LINE#         352
  C:B827H         LINE#         356
  C:B834H         LINE#         357
  C:B838H         LINE#         363
  C:B846H         LINE#         365
  C:B848H         LINE#         367
  C:B84BH         LINE#         368
  C:B84BH         LINE#         369
  C:B84DH         LINE#         370
  C:B84FH         LINE#         371
  C:B84FH         LINE#         373
  C:B851H         LINE#         374
BL51 BANKED LINKER/LOCATER V6.22.2.0                                                  09/07/2021  11:24:22  PAGE 100


  -------         ENDPROC       _COM_PUTCHAR
  -------         PROC          COM_GETCHAR
  C:BB6FH         LINE#         380
  C:BB76H         LINE#         381
  C:BB76H         LINE#         382
  C:BB7CH         LINE#         383
  C:BB82H         LINE#         385
  C:BB90H         LINE#         386
  -------         ENDPROC       COM_GETCHAR
  -------         PROC          COM_RBUFLEN
  C:BD5FH         LINE#         392
  C:BD66H         LINE#         393
  C:BD66H         LINE#         394
  C:BD6CH         LINE#         395
  -------         ENDPROC       COM_RBUFLEN
  -------         PROC          COM_TBUFLEN
  C:BD71H         LINE#         401
  C:BD78H         LINE#         402
  C:BD78H         LINE#         403
  C:BD7EH         LINE#         404
  -------         ENDPROC       COM_TBUFLEN
  -------         ENDMOD        UART

  -------         MODULE        LINTECH
  C:0000H         SYMBOL        _ICE_DUMMY_
  C:9AD3H         PUBLIC        _Inicializa
  C:8E51H         PUBLIC        _RD_MF
  C:96FEH         PUBLIC        Dwload_EEprom
  C:9E67H         PUBLIC        _Card_Insercion
  C:829BH         PUBLIC        _Mov_Card
  C:77DAH         PUBLIC        _WR_MF
  C:9384H         PUBLIC        _Dwload_EEprom_prog
  C:A0A8H         PUBLIC        LoadVerify_EEprom
  C:A35EH         PUBLIC        Unique_Identifier_UID
  C:A986H         PUBLIC        Power_off
  C:A46DH         PUBLIC        _Check_Status
  C:9654H         PUBLIC        Clave_Seguridad_S2
  C:A906H         PUBLIC        Aut_Card_check_Status
  -------         PROC          _INICIALIZA
  X:0002H         SYMBOL        TipoMovimiento
  -------         DO            
  D:0003H         SYMBOL        j
  X:0003H         SYMBOL        bcc
  X:0004H         SYMBOL        g_scArrTxComSoft
  -------         ENDDO         
  C:9AD3H         LINE#         69
  C:9AD8H         LINE#         70
  C:9AD8H         LINE#         73
  C:9ADBH         LINE#         74
  C:9AF1H         LINE#         75
  C:9AF1H         LINE#         77
  C:9AFAH         LINE#         79
  C:9B00H         LINE#         80
  C:9B03H         LINE#         81
  C:9B05H         LINE#         82
  C:9B09H         LINE#         83
  C:9B0DH         LINE#         84
BL51 BANKED LINKER/LOCATER V6.22.2.0                                                  09/07/2021  11:24:22  PAGE 101


  C:9B11H         LINE#         85
  C:9B19H         LINE#         86
  C:9B1DH         LINE#         87
  C:9B29H         LINE#         88
  C:9B29H         LINE#         89
  C:9B3DH         LINE#         90
  C:9B40H         LINE#         91
  C:9B48H         LINE#         92
  C:9B4AH         LINE#         93
  C:9B4FH         LINE#         94
  C:9B5EH         LINE#         95
  C:9B69H         LINE#         96
  C:9B6FH         LINE#         97
  C:9B6FH         LINE#         98
  -------         ENDPROC       _INICIALIZA
  -------         PROC          _CHECK_STATUS
  X:0002H         SYMBOL        Detalle
  -------         DO            
  D:0006H         SYMBOL        j
  D:0007H         SYMBOL        bcc
  X:0003H         SYMBOL        g_scArrTxComSoft
  -------         ENDDO         
  C:A46DH         LINE#         110
  C:A472H         LINE#         111
  C:A472H         LINE#         115
  C:A478H         LINE#         116
  C:A478H         LINE#         117
  C:A47CH         LINE#         118
  C:A47EH         LINE#         120
  C:A47EH         LINE#         121
  C:A485H         LINE#         122
  C:A485H         LINE#         123
  C:A487H         LINE#         125
  C:A48DH         LINE#         126
  C:A490H         LINE#         127
  C:A492H         LINE#         128
  C:A496H         LINE#         129
  C:A49AH         LINE#         130
  C:A49EH         LINE#         131
  C:A4A6H         LINE#         132
  C:A4AAH         LINE#         133
  C:A4B6H         LINE#         134
  C:A4B6H         LINE#         135
  C:A4C3H         LINE#         136
  C:A4C6H         LINE#         137
  C:A4CBH         LINE#         138
  C:A4CDH         LINE#         139
  C:A4D2H         LINE#         140
  C:A4E1H         LINE#         141
  C:A4ECH         LINE#         142
  C:A4F2H         LINE#         143
  -------         ENDPROC       _CHECK_STATUS
  -------         PROC          _CARD_INSERCION
  D:0007H         SYMBOL        Tipo
  -------         DO            
  D:0006H         SYMBOL        j
  D:0007H         SYMBOL        bcc
BL51 BANKED LINKER/LOCATER V6.22.2.0                                                  09/07/2021  11:24:22  PAGE 102


  X:0002H         SYMBOL        g_scArrTxComSoft
  -------         ENDDO         
  C:9E67H         LINE#         153
  C:9E67H         LINE#         154
  C:9E67H         LINE#         157
  C:9E74H         LINE#         158
  C:9E74H         LINE#         159
  C:9E7BH         LINE#         160
  C:9E81H         LINE#         161
  C:9E83H         LINE#         163
  C:9E83H         LINE#         165
  C:9E8AH         LINE#         166
  C:9E90H         LINE#         168
  C:9E90H         LINE#         170
  C:9E92H         LINE#         172
  C:9E98H         LINE#         173
  C:9E9BH         LINE#         174
  C:9E9DH         LINE#         175
  C:9EA1H         LINE#         176
  C:9EA5H         LINE#         177
  C:9EA9H         LINE#         179
  C:9EAFH         LINE#         180
  C:9EBBH         LINE#         181
  C:9EBBH         LINE#         182
  C:9EC8H         LINE#         183
  C:9ECBH         LINE#         185
  C:9ED0H         LINE#         187
  C:9ED2H         LINE#         188
  C:9ED7H         LINE#         189
  C:9EE6H         LINE#         190
  C:9EF1H         LINE#         191
  C:9EF7H         LINE#         192
  -------         ENDPROC       _CARD_INSERCION
  -------         PROC          _MOV_CARD
  X:0002H         SYMBOL        Posicion
  -------         DO            
  D:0003H         SYMBOL        j
  X:0003H         SYMBOL        bcc
  X:0004H         SYMBOL        g_scArrTxComSoft
  -------         ENDDO         
  C:829BH         LINE#         203
  C:82A0H         LINE#         204
  C:82A0H         LINE#         207
  C:82A3H         LINE#         209
  C:82C3H         LINE#         210
  C:82C3H         LINE#         211
  C:82CAH         LINE#         212
  C:82CAH         LINE#         213
  C:82D0H         LINE#         214
  C:82D2H         LINE#         215
  C:82D9H         LINE#         216
  C:82D9H         LINE#         217
  C:82DFH         LINE#         218
  C:82E1H         LINE#         219
  C:82E8H         LINE#         220
  C:82E8H         LINE#         221
  C:82EEH         LINE#         222
BL51 BANKED LINKER/LOCATER V6.22.2.0                                                  09/07/2021  11:24:22  PAGE 103


  C:82F0H         LINE#         223
  C:82F7H         LINE#         224
  C:82F7H         LINE#         225
  C:82FDH         LINE#         226
  C:82FFH         LINE#         227
  C:8306H         LINE#         228
  C:8306H         LINE#         229
  C:830FH         LINE#         230
  C:830FH         LINE#         232
  C:8315H         LINE#         233
  C:8318H         LINE#         234
  C:831AH         LINE#         235
  C:831EH         LINE#         236
  C:8322H         LINE#         237
  C:8326H         LINE#         238
  C:832EH         LINE#         239
  C:8332H         LINE#         240
  C:833EH         LINE#         241
  C:833EH         LINE#         242
  C:8352H         LINE#         243
  C:8355H         LINE#         244
  C:835DH         LINE#         245
  C:835FH         LINE#         246
  C:8364H         LINE#         247
  C:8373H         LINE#         248
  C:837EH         LINE#         249
  C:8384H         LINE#         250
  C:8384H         LINE#         252
  -------         ENDPROC       _MOV_CARD
  -------         PROC          AUT_CARD_CHECK_STATUS
  -------         DO            
  D:0003H         SYMBOL        j
  X:0002H         SYMBOL        bcc
  X:0003H         SYMBOL        g_scArrTxComSoft
  -------         ENDDO         
  C:A906H         LINE#         258
  C:A906H         LINE#         259
  C:A906H         LINE#         262
  C:A90BH         LINE#         264
  C:A914H         LINE#         266
  C:A91AH         LINE#         267
  C:A91DH         LINE#         268
  C:A91FH         LINE#         269
  C:A923H         LINE#         270
  C:A927H         LINE#         271
  C:A92BH         LINE#         272
  C:A92FH         LINE#         273
  C:A933H         LINE#         274
  C:A93FH         LINE#         275
  C:A93FH         LINE#         276
  C:A953H         LINE#         277
  C:A956H         LINE#         278
  C:A95EH         LINE#         279
  C:A960H         LINE#         280
  C:A965H         LINE#         281
  C:A974H         LINE#         282
  C:A97FH         LINE#         283
BL51 BANKED LINKER/LOCATER V6.22.2.0                                                  09/07/2021  11:24:22  PAGE 104


  C:A985H         LINE#         284
  -------         ENDPROC       AUT_CARD_CHECK_STATUS
  -------         PROC          CLAVE_SEGURIDAD_S2
  -------         DO            
  D:0003H         SYMBOL        j
  X:0002H         SYMBOL        bcc
  X:0003H         SYMBOL        g_scArrTxComSoft
  -------         ENDDO         
  C:9654H         LINE#         287
  C:9654H         LINE#         288
  C:9654H         LINE#         291
  C:9659H         LINE#         292
  C:9662H         LINE#         295
  C:9668H         LINE#         296
  C:966BH         LINE#         297
  C:966DH         LINE#         298
  C:9671H         LINE#         299
  C:9675H         LINE#         300
  C:9679H         LINE#         301
  C:967DH         LINE#         302
  C:9680H         LINE#         303
  C:9684H         LINE#         304
  C:9687H         LINE#         305
  C:968BH         LINE#         307
  C:968FH         LINE#         309
  C:9693H         LINE#         310
  C:9697H         LINE#         311
  C:969BH         LINE#         312
  C:969FH         LINE#         313
  C:96A3H         LINE#         314
  C:96A7H         LINE#         317
  C:96ABH         LINE#         319
  C:96B7H         LINE#         320
  C:96B7H         LINE#         321
  C:96CBH         LINE#         322
  C:96CEH         LINE#         323
  C:96D6H         LINE#         324
  C:96D8H         LINE#         325
  C:96DDH         LINE#         326
  C:96ECH         LINE#         327
  C:96F7H         LINE#         328
  C:96FDH         LINE#         331
  -------         ENDPROC       CLAVE_SEGURIDAD_S2
  -------         PROC          DWLOAD_EEPROM
  -------         DO            
  D:0003H         SYMBOL        j
  X:0002H         SYMBOL        bcc
  X:0003H         SYMBOL        g_scArrTxComSoft
  -------         ENDDO         
  C:96FEH         LINE#         336
  C:96FEH         LINE#         337
  C:96FEH         LINE#         340
  C:9703H         LINE#         341
  C:970CH         LINE#         343
  C:9712H         LINE#         344
  C:9715H         LINE#         345
  C:9717H         LINE#         346
BL51 BANKED LINKER/LOCATER V6.22.2.0                                                  09/07/2021  11:24:22  PAGE 105


  C:971BH         LINE#         347
  C:971FH         LINE#         348
  C:9723H         LINE#         349
  C:9727H         LINE#         350
  C:972AH         LINE#         351
  C:972EH         LINE#         352
  C:9731H         LINE#         353
  C:9734H         LINE#         354
  C:9738H         LINE#         355
  C:973CH         LINE#         356
  C:9740H         LINE#         357
  C:9744H         LINE#         358
  C:9748H         LINE#         359
  C:974CH         LINE#         360
  C:9750H         LINE#         361
  C:9754H         LINE#         363
  C:9760H         LINE#         364
  C:9760H         LINE#         365
  C:9774H         LINE#         366
  C:9777H         LINE#         367
  C:977FH         LINE#         368
  C:9781H         LINE#         369
  C:9786H         LINE#         370
  C:9795H         LINE#         371
  C:97A0H         LINE#         372
  C:97A6H         LINE#         373
  -------         ENDPROC       DWLOAD_EEPROM
  -------         PROC          _DWLOAD_EEPROM_PROG
  X:0026H         SYMBOL        password
  -------         DO            
  D:0003H         SYMBOL        j
  X:0029H         SYMBOL        bcc
  X:002AH         SYMBOL        g_scArrTxComSoft
  -------         ENDDO         
  C:9384H         LINE#         375
  C:938FH         LINE#         376
  C:938FH         LINE#         379
  C:9392H         LINE#         380
  C:939BH         LINE#         382
  C:93A1H         LINE#         383
  C:93A4H         LINE#         384
  C:93A6H         LINE#         385
  C:93AAH         LINE#         386
  C:93AEH         LINE#         387
  C:93B2H         LINE#         388
  C:93B6H         LINE#         389
  C:93B9H         LINE#         390
  C:93BDH         LINE#         391
  C:93C0H         LINE#         392
  C:93C3H         LINE#         393
  C:93C7H         LINE#         394
  C:93D9H         LINE#         395
  C:93E3H         LINE#         396
  C:93EDH         LINE#         397
  C:93F7H         LINE#         398
  C:9401H         LINE#         399
  C:940BH         LINE#         400
BL51 BANKED LINKER/LOCATER V6.22.2.0                                                  09/07/2021  11:24:22  PAGE 106


  C:940FH         LINE#         402
  C:941BH         LINE#         403
  C:941BH         LINE#         404
  C:942FH         LINE#         405
  C:9432H         LINE#         406
  C:943AH         LINE#         407
  C:943CH         LINE#         412
  -------         ENDPROC       _DWLOAD_EEPROM_PROG
  -------         PROC          LOADVERIFY_EEPROM
  -------         DO            
  D:0003H         SYMBOL        j
  X:0002H         SYMBOL        bcc
  X:0003H         SYMBOL        g_scArrTxComSoft
  -------         ENDDO         
  C:A0A8H         LINE#         417
  C:A0A8H         LINE#         418
  C:A0A8H         LINE#         421
  C:A0ADH         LINE#         422
  C:A0B6H         LINE#         425
  C:A0BCH         LINE#         426
  C:A0BFH         LINE#         427
  C:A0C1H         LINE#         428
  C:A0C5H         LINE#         429
  C:A0C9H         LINE#         430
  C:A0CDH         LINE#         431
  C:A0D1H         LINE#         432
  C:A0D4H         LINE#         433
  C:A0D8H         LINE#         434
  C:A0DBH         LINE#         435
  C:A0DEH         LINE#         436
  C:A0E2H         LINE#         441
  C:A0EEH         LINE#         442
  C:A0EEH         LINE#         443
  C:A102H         LINE#         444
  C:A105H         LINE#         445
  C:A10DH         LINE#         446
  C:A10FH         LINE#         447
  C:A114H         LINE#         448
  C:A123H         LINE#         449
  C:A12EH         LINE#         450
  C:A134H         LINE#         452
  -------         ENDPROC       LOADVERIFY_EEPROM
  -------         PROC          _RD_MF
  X:0002H         SYMBOL        Sector
  X:0003H         SYMBOL        Bloque
  -------         DO            
  D:0003H         SYMBOL        j
  X:0004H         SYMBOL        bcc
  X:0005H         SYMBOL        g_scArrTxComSoft
  -------         ENDDO         
  C:8E51H         LINE#         458
  C:8E59H         LINE#         459
  C:8E59H         LINE#         463
  C:8E5CH         LINE#         465
  C:8E65H         LINE#         466
  C:8E6DH         LINE#         468
  C:8E76H         LINE#         469
BL51 BANKED LINKER/LOCATER V6.22.2.0                                                  09/07/2021  11:24:22  PAGE 107


  C:8E7EH         LINE#         470
  C:8E87H         LINE#         473
  C:8E8DH         LINE#         474
  C:8E90H         LINE#         475
  C:8E92H         LINE#         476
  C:8E96H         LINE#         477
  C:8E9AH         LINE#         478
  C:8E9EH         LINE#         479
  C:8EA2H         LINE#         480
  C:8EA5H         LINE#         481
  C:8EA9H         LINE#         482
  C:8EB1H         LINE#         483
  C:8EB9H         LINE#         484
  C:8EBDH         LINE#         485
  C:8EC1H         LINE#         487
  C:8ECDH         LINE#         488
  C:8ECDH         LINE#         489
  C:8EE1H         LINE#         490
  C:8EE4H         LINE#         491
  C:8EECH         LINE#         494
  C:8EEEH         LINE#         495
  C:8EF3H         LINE#         496
  C:8F02H         LINE#         497
  C:8F0DH         LINE#         498
  C:8F13H         LINE#         500
  -------         ENDPROC       _RD_MF
  -------         PROC          _WR_MF
  X:0002H         SYMBOL        Sector
  X:0003H         SYMBOL        Bloque
  X:0004H         SYMBOL        buffer
  -------         DO            
  D:0005H         SYMBOL        j
  X:0007H         SYMBOL        bcc
  X:0008H         SYMBOL        g_scArrTxComSoft
  -------         ENDDO         
  C:77DAH         LINE#         507
  C:77EBH         LINE#         509
  C:77EBH         LINE#         512
  C:77EEH         LINE#         514
  C:77F7H         LINE#         515
  C:77FFH         LINE#         517
  C:7808H         LINE#         518
  C:7810H         LINE#         519
  C:7819H         LINE#         521
  C:781FH         LINE#         522
  C:7822H         LINE#         523
  C:7824H         LINE#         524
  C:7828H         LINE#         526
  C:782CH         LINE#         527
  C:7830H         LINE#         528
  C:7834H         LINE#         529
  C:7837H         LINE#         530
  C:783BH         LINE#         531
  C:7843H         LINE#         532
  C:784BH         LINE#         533
  C:784FH         LINE#         535
  C:785BH         LINE#         536
BL51 BANKED LINKER/LOCATER V6.22.2.0                                                  09/07/2021  11:24:22  PAGE 108


  C:785BH         LINE#         537
  C:787BH         LINE#         538
  C:787EH         LINE#         540
  C:7884H         LINE#         542
  C:7890H         LINE#         543
  C:7890H         LINE#         544
  C:78A7H         LINE#         545
  C:78AAH         LINE#         546
  C:78B2H         LINE#         549
  C:78B4H         LINE#         550
  C:78B9H         LINE#         551
  C:78C8H         LINE#         552
  C:78D3H         LINE#         553
  C:78D9H         LINE#         555
  -------         ENDPROC       _WR_MF
  -------         PROC          UNIQUE_IDENTIFIER_UID
  -------         DO            
  D:0003H         SYMBOL        j
  X:0002H         SYMBOL        bcc
  X:0003H         SYMBOL        g_scArrTxComSoft
  -------         ENDDO         
  C:A35EH         LINE#         560
  C:A35EH         LINE#         561
  C:A35EH         LINE#         564
  C:A363H         LINE#         566
  C:A36CH         LINE#         568
  C:A372H         LINE#         569
  C:A375H         LINE#         570
  C:A377H         LINE#         571
  C:A37BH         LINE#         572
  C:A37FH         LINE#         573
  C:A383H         LINE#         574
  C:A387H         LINE#         575
  C:A38BH         LINE#         576
  C:A38FH         LINE#         577
  C:A393H         LINE#         578
  C:A39FH         LINE#         579
  C:A39FH         LINE#         580
  C:A3B3H         LINE#         581
  C:A3B6H         LINE#         582
  C:A3BEH         LINE#         583
  C:A3C0H         LINE#         584
  C:A3C5H         LINE#         585
  C:A3D4H         LINE#         586
  C:A3DFH         LINE#         587
  C:A3E5H         LINE#         588
  -------         ENDPROC       UNIQUE_IDENTIFIER_UID
  -------         PROC          POWER_OFF
  -------         DO            
  D:0003H         SYMBOL        j
  X:0002H         SYMBOL        bcc
  X:0003H         SYMBOL        g_scArrTxComSoft
  -------         ENDDO         
  C:A986H         LINE#         589
  C:A986H         LINE#         590
  C:A986H         LINE#         593
  C:A98BH         LINE#         595
BL51 BANKED LINKER/LOCATER V6.22.2.0                                                  09/07/2021  11:24:22  PAGE 109


  C:A994H         LINE#         597
  C:A99AH         LINE#         598
  C:A99DH         LINE#         599
  C:A99FH         LINE#         600
  C:A9A3H         LINE#         601
  C:A9A7H         LINE#         602
  C:A9ABH         LINE#         603
  C:A9AFH         LINE#         604
  C:A9B3H         LINE#         605
  C:A9BFH         LINE#         606
  C:A9BFH         LINE#         607
  C:A9D3H         LINE#         608
  C:A9D6H         LINE#         609
  C:A9DEH         LINE#         610
  C:A9E0H         LINE#         611
  C:A9E5H         LINE#         612
  C:A9F4H         LINE#         613
  C:A9FFH         LINE#         614
  C:AA05H         LINE#         617
  -------         ENDPROC       POWER_OFF
  -------         ENDMOD        LINTECH

  -------         MODULE        VERIFICADOR
  C:0000H         SYMBOL        _ICE_DUMMY_
  D:0080H         PUBLIC        P0
  C:9A35H         PUBLIC        Ingreso_Vehiculo
  D:0090H         PUBLIC        P1
  C:BA76H         PUBLIC        _Armar_Trama_Tarjeta_Sector1_Bloque0
  D:00B0H         PUBLIC        P3
  C:87D8H         PUBLIC        _Valida_Tipo_Tarjeta
  C:B783H         PUBLIC        _Load_Secuencia_Expedidor
  C:5D44H         PUBLIC        _Armar_Trama_Tarjeta_Sector1_Bloque2
  C:50AEH         PUBLIC        _Armar_Trama_Pto_Paralelo_Expedidor
  B:0080H.2       PUBLIC        led_err_imp
  C:BAF6H         PUBLIC        Analiza_Presencia_rotacion
  C:A018H         PUBLIC        _Disparo_Lock_Entrada_Vehiculo
  C:A577H         PUBLIC        _Armar_Trama_Placa
  C:8547H         PUBLIC        _rta_cmd_transporte
  C:4E0BH         PUBLIC        _Armar_Trama_Monitor
  C:6B2DH         PUBLIC        Secuencia_inicio_expedidor
  C:88B2H         PUBLIC        _Analiza_Uid_Card
  B:0080H.0       PUBLIC        rx_ip
  B:0080H.3       PUBLIC        Atascado_GP0_PIN_3
  B:0090H.7       PUBLIC        lock
  C:9D3EH         PUBLIC        _Responde_Lectura_Tarjeta_Sector1_Bloque0
  C:8FD6H         PUBLIC        error_rx_pto
  C:5F2FH         PUBLIC        _Responde_Lectura_Tarjeta_Sector1_Bloque1
  C:700CH         PUBLIC        _Responde_Lectura_Tarjeta_Sector1_Bloque2
  C:AAFBH         PUBLIC        Respuesta_Placa_Cancel
  B:0090H.1       PUBLIC        DataIn
  C:984DH         PUBLIC        _Send_Pto_Paralelo
  C:B672H         PUBLIC        Trama_Validacion_P_N
  B:0022H.0       PUBLIC        MenSual
  C:6EDEH         PUBLIC        _Armar_Trama_Pto_Paralelo_Expedidor_Mensual
  C:675BH         PUBLIC        _Responde_ReeLectura_Tarjeta_Sector1_Bloque2
  C:38BEH         PUBLIC        _SecuenciaExpedidorMF
  C:BA3EH         PUBLIC        Pregunta_Placa_Habilitada
BL51 BANKED LINKER/LOCATER V6.22.2.0                                                  09/07/2021  11:24:22  PAGE 110


  C:ADE4H         PUBLIC        _Pregunta_Lpr
  C:A135H         PUBLIC        Wait_Placa
  C:AA83H         PUBLIC        Responde_Estado_Sensores_Transporte
  C:9B70H         PUBLIC        Entrega_Card_Captura
  C:AE41H         PUBLIC        _Respuesta_Segunda_clave
  X:0147H         SYMBOL        Estado
  C:B96FH         PUBLIC        _Responde_Write_Tarjeta_Sector1_Bloque0
  C:B939H         PUBLIC        _Responde_Write_Tarjeta_Sector1_Bloque1
  C:B291H         PUBLIC        _Responde_Write_Tarjeta_Sector2_Bloque0
  C:A3E6H         PUBLIC        _Responde_Write_Tarjeta_Sector1_Bloque2
  C:A702H         PUBLIC        Responde_Tipo_Tarjeta
  C:BA0DH         PUBLIC        _Tarjeta_Rotacion
  -------         PROC          TRAMA_VALIDACION_P_N
  -------         DO            
  D:0007H         SYMBOL        Trama_Validacion_P_N
  -------         ENDDO         
  C:B672H         LINE#         579
  C:B672H         LINE#         580
  C:B672H         LINE#         581
  C:B674H         LINE#         583
  C:B68AH         LINE#         584
  C:B68AH         LINE#         585
  C:B68DH         LINE#         586
  C:B68DH         LINE#         587
  C:B68FH         LINE#         590
  C:B697H         LINE#         591
  C:B697H         LINE#         593
  C:B699H         LINE#         595
  C:B69AH         LINE#         596
  C:B69EH         LINE#         597
  C:B69EH         LINE#         599
  C:B6A0H         LINE#         601
  C:B6A1H         LINE#         603
  C:B6A1H         LINE#         604
  C:B6AAH         LINE#         605
  C:B6ACH         LINE#         607
  C:B6ACH         LINE#         608
  C:B6ADH         LINE#         610
  C:B6ADH         LINE#         612
  C:B6AFH         LINE#         614
  C:B6AFH         LINE#         616
  C:B6AFH         LINE#         618
  C:B6AFH         LINE#         619
  -------         ENDPROC       TRAMA_VALIDACION_P_N
  -------         PROC          ERROR_RX_PTO
  -------         DO            
  X:00B7H         SYMBOL        cnt_espera_ask_on
  X:0007H         SYMBOL        error_rx_pto
  -------         ENDDO         
  C:8FD6H         LINE#         643
  C:8FD6H         LINE#         644
  C:8FD6H         LINE#         647
  C:8FDCH         LINE#         651
  C:8FE5H         LINE#         652
  C:8FEDH         LINE#         653
  C:8FF6H         LINE#         654
  C:8FFEH         LINE#         655
BL51 BANKED LINKER/LOCATER V6.22.2.0                                                  09/07/2021  11:24:22  PAGE 111


  C:9007H         LINE#         656
  C:900AH         LINE#         658
  C:900AH         LINE#         659
  C:9010H         LINE#         660
  C:901AH         LINE#         661
  C:901AH         LINE#         662
  C:9023H         LINE#         663
  C:9025H         LINE#         664
  C:902CH         LINE#         665
  C:9031H         LINE#         666
  C:9037H         LINE#         667
  C:903CH         LINE#         668
  C:903EH         LINE#         669
  C:9045H         LINE#         670
  C:904BH         LINE#         671
  C:904BH         LINE#         673
  C:904BH         LINE#         674
  C:9050H         LINE#         675
  C:9050H         LINE#         676
  C:9050H         LINE#         677
  C:9052H         LINE#         679
  C:9052H         LINE#         680
  C:9060H         LINE#         681
  C:9073H         LINE#         682
  C:9073H         LINE#         683
  C:9074H         LINE#         685
  C:907AH         LINE#         686
  C:907EH         LINE#         687
  C:9080H         LINE#         688
  C:9080H         LINE#         689
  C:9082H         LINE#         691
  C:9082H         LINE#         692
  C:9083H         LINE#         693
  C:9088H         LINE#         694
  C:908EH         LINE#         695
  C:908EH         LINE#         696
  C:908EH         LINE#         697
  C:9093H         LINE#         698
  -------         ENDPROC       ERROR_RX_PTO
  -------         PROC          _RTA_CMD_TRANSPORTE
  X:0002H         SYMBOL        secuencia_Expedidor
  -------         DO            
  X:0005H         SYMBOL        temp
  X:0006H         SYMBOL        EstadoComSeqMF
  -------         ENDDO         
  C:8547H         LINE#         714
  C:8552H         LINE#         715
  C:8552H         LINE#         721
  C:855FH         LINE#         722
  C:855FH         LINE#         723
  C:8567H         LINE#         724
  C:8567H         LINE#         725
  C:8575H         LINE#         726
  C:8578H         LINE#         727
  C:857EH         LINE#         728
  C:857EH         LINE#         729
  C:8587H         LINE#         730
BL51 BANKED LINKER/LOCATER V6.22.2.0                                                  09/07/2021  11:24:22  PAGE 112


  C:859BH         LINE#         731
  C:85A3H         LINE#         732
  C:85A3H         LINE#         733
  C:85ACH         LINE#         734
  C:85ACH         LINE#         736
  C:85BDH         LINE#         738
  C:85BFH         LINE#         740
  C:85BFH         LINE#         743
  C:85D7H         LINE#         744
  C:85D7H         LINE#         745
  C:85E2H         LINE#         746
  C:85E4H         LINE#         748
  C:85E4H         LINE#         749
  C:85F2H         LINE#         750
  C:85F2H         LINE#         751
  C:85F2H         LINE#         752
  C:85F4H         LINE#         754
  C:85F4H         LINE#         756
  C:8608H         LINE#         757
  C:861DH         LINE#         758
  C:861DH         LINE#         759
  C:8622H         LINE#         760
  -------         ENDPROC       _RTA_CMD_TRANSPORTE
  -------         PROC          ANALIZA_PRESENCIA_ROTACION
  -------         DO            
  X:0002H         SYMBOL        Estado_expedidor
  -------         ENDDO         
  C:BAF6H         LINE#         821
  C:BAF6H         LINE#         822
  C:BAF6H         LINE#         824
  C:BAFCH         LINE#         825
  C:BAFCH         LINE#         827
  C:BB02H         LINE#         828
  C:BB04H         LINE#         830
  C:BB04H         LINE#         832
  C:BB09H         LINE#         833
  C:BB0EH         LINE#         834
  C:BB14H         LINE#         835
  C:BB1AH         LINE#         837
  C:BB1AH         LINE#         838
  C:BB1FH         LINE#         839
  -------         ENDPROC       ANALIZA_PRESENCIA_ROTACION
  -------         PROC          _ANALIZA_UID_CARD
  X:0002H         SYMBOL        Atributos_Expedidor
  -------         DO            
  X:0005H         SYMBOL        Estado_expedidor
  D:0007H         SYMBOL        temp
  X:0006H         SYMBOL        buffer_UID
  -------         ENDDO         
  C:88B2H         LINE#         843
  C:88BDH         LINE#         844
  C:88BDH         LINE#         848
  C:88CDH         LINE#         849
  C:88CDH         LINE#         851
  C:88D9H         LINE#         852
  C:88D9H         LINE#         853
  C:88F1H         LINE#         855
BL51 BANKED LINKER/LOCATER V6.22.2.0                                                  09/07/2021  11:24:22  PAGE 113


  C:88F4H         LINE#         857
  C:88FDH         LINE#         858
  C:890EH         LINE#         861
  C:8917H         LINE#         862
  C:891FH         LINE#         863
  C:8927H         LINE#         864
  C:892FH         LINE#         865
  C:8937H         LINE#         866
  C:8940H         LINE#         868
  C:8957H         LINE#         869
  C:8961H         LINE#         870
  C:896BH         LINE#         871
  C:8975H         LINE#         872
  C:897BH         LINE#         873
  C:897DH         LINE#         875
  C:897DH         LINE#         876
  C:8983H         LINE#         877
  C:8983H         LINE#         878
  C:8988H         LINE#         879
  -------         ENDPROC       _ANALIZA_UID_CARD
  -------         PROC          INGRESO_VEHICULO
  -------         DO            
  X:0002H         SYMBOL        CardAutomatic
  X:00B9H         SYMBOL        pulseboton
  -------         ENDDO         
  C:9A35H         LINE#         883
  C:9A35H         LINE#         884
  C:9A35H         LINE#         887
  C:9A3EH         LINE#         889
  C:9A47H         LINE#         890
  C:9A47H         LINE#         892
  C:9A55H         LINE#         894
  C:9A58H         LINE#         895
  C:9A58H         LINE#         897
  C:9A5BH         LINE#         899
  C:9A5BH         LINE#         901
  C:9A63H         LINE#         902
  C:9A63H         LINE#         903
  C:9A6CH         LINE#         904
  C:9A71H         LINE#         905
  C:9A71H         LINE#         906
  C:9A73H         LINE#         908
  C:9A73H         LINE#         910
  C:9A76H         LINE#         911
  C:9A76H         LINE#         913
  C:9A79H         LINE#         915
  C:9A79H         LINE#         917
  C:9A86H         LINE#         918
  C:9A8BH         LINE#         919
  C:9A90H         LINE#         920
  C:9A92H         LINE#         922
  C:9A92H         LINE#         923
  C:9A98H         LINE#         926
  C:9A98H         LINE#         927
  C:9A9BH         LINE#         928
  C:9A9EH         LINE#         929
  C:9A9EH         LINE#         930
BL51 BANKED LINKER/LOCATER V6.22.2.0                                                  09/07/2021  11:24:22  PAGE 114


  C:9AA0H         LINE#         931
  C:9AA5H         LINE#         932
  C:9AA9H         LINE#         933
  C:9AAFH         LINE#         934
  C:9AB1H         LINE#         936
  C:9AB1H         LINE#         937
  C:9AB4H         LINE#         938
  C:9AB4H         LINE#         940
  C:9AB7H         LINE#         942
  C:9AB7H         LINE#         943
  C:9ABDH         LINE#         944
  C:9AC3H         LINE#         945
  C:9AC3H         LINE#         948
  C:9AC3H         LINE#         949
  C:9AC5H         LINE#         951
  C:9AC5H         LINE#         954
  C:9AC7H         LINE#         955
  C:9ACDH         LINE#         956
  C:9ACDH         LINE#         957
  C:9AD2H         LINE#         958
  -------         ENDPROC       INGRESO_VEHICULO
  -------         PROC          RESPONDE_ESTADO_SENSORES_TRANSPORTE
  -------         DO            
  X:0002H         SYMBOL        Estado_expedidor
  -------         ENDDO         
  C:AA83H         LINE#         965
  C:AA83H         LINE#         966
  C:AA83H         LINE#         969
  C:AA8CH         LINE#         971
  C:AA94H         LINE#         972
  C:AA94H         LINE#         974
  C:AA9FH         LINE#         975
  C:AA9FH         LINE#         976
  C:AAA3H         LINE#         977
  C:AAA3H         LINE#         978
  C:AAACH         LINE#         979
  C:AAB1H         LINE#         981
  C:AAB1H         LINE#         983
  C:AAB3H         LINE#         985
  C:AAB3H         LINE#         988
  C:AAB9H         LINE#         990
  C:AAB9H         LINE#         991
  C:AABBH         LINE#         993
  C:AABBH         LINE#         995
  C:AAC4H         LINE#         997
  C:AAC9H         LINE#         1000
  C:AACEH         LINE#         1001
  C:AACEH         LINE#         1002
  C:AAD0H         LINE#         1003
  C:AAD7H         LINE#         1004
  C:AAD7H         LINE#         1006
  C:AADDH         LINE#         1008
  C:AADDH         LINE#         1009
  C:AADFH         LINE#         1010
  C:AAE6H         LINE#         1012
  C:AAE6H         LINE#         1013
  C:AAEFH         LINE#         1014
BL51 BANKED LINKER/LOCATER V6.22.2.0                                                  09/07/2021  11:24:22  PAGE 115


  C:AAF5H         LINE#         1015
  C:AAF5H         LINE#         1020
  C:AAFAH         LINE#         1021
  -------         ENDPROC       RESPONDE_ESTADO_SENSORES_TRANSPORTE
  -------         PROC          RESPONDE_TIPO_TARJETA
  -------         DO            
  X:0002H         SYMBOL        Estado_expedidor
  -------         ENDDO         
  C:A702H         LINE#         1037
  C:A702H         LINE#         1038
  C:A702H         LINE#         1041
  C:A70BH         LINE#         1043
  C:A713H         LINE#         1044
  C:A713H         LINE#         1045
  C:A71EH         LINE#         1046
  C:A71EH         LINE#         1047
  C:A727H         LINE#         1048
  C:A72DH         LINE#         1049
  C:A72DH         LINE#         1050
  C:A72DH         LINE#         1051
  C:A72FH         LINE#         1053
  C:A72FH         LINE#         1054
  C:A732H         LINE#         1055
  C:A732H         LINE#         1056
  C:A734H         LINE#         1058
  C:A734H         LINE#         1059
  C:A73BH         LINE#         1060
  C:A73BH         LINE#         1062
  C:A744H         LINE#         1064
  C:A749H         LINE#         1065
  C:A74EH         LINE#         1067
  C:A751H         LINE#         1069
  C:A753H         LINE#         1071
  C:A753H         LINE#         1073
  C:A753H         LINE#         1074
  C:A753H         LINE#         1075
  C:A753H         LINE#         1076
  C:A753H         LINE#         1077
  C:A755H         LINE#         1079
  C:A755H         LINE#         1080
  C:A75CH         LINE#         1081
  C:A75CH         LINE#         1084
  C:A765H         LINE#         1086
  C:A76AH         LINE#         1087
  C:A76FH         LINE#         1089
  C:A775H         LINE#         1092
  C:A777H         LINE#         1094
  C:A777H         LINE#         1096
  C:A779H         LINE#         1097
  C:A77EH         LINE#         1098
  C:A77EH         LINE#         1099
  C:A77EH         LINE#         1101
  C:A783H         LINE#         1102
  -------         ENDPROC       RESPONDE_TIPO_TARJETA
  -------         PROC          _RESPONDE_LECTURA_TARJETA_SECTOR1_BLOQUE1
  X:0002H         SYMBOL        Atributos_Expedidor
  -------         DO            
BL51 BANKED LINKER/LOCATER V6.22.2.0                                                  09/07/2021  11:24:22  PAGE 116


  D:0007H         SYMBOL        temp
  X:0005H         SYMBOL        Estado_expedidor
  X:0006H         SYMBOL        buffer_S1_B1
  X:0017H         SYMBOL        ID_CLIENTE
  D:0007H         SYMBOL        COD_PARK
  X:00BAH         SYMBOL        falla
  -------         ENDDO         
  C:5F2FH         LINE#         1114
  C:5F3AH         LINE#         1115
  C:5F3AH         LINE#         1122
  C:5F43H         LINE#         1126
  C:5F53H         LINE#         1127
  C:5F53H         LINE#         1129
  C:5F5FH         LINE#         1130
  C:5F5FH         LINE#         1131
  C:5F77H         LINE#         1133
  C:5F7AH         LINE#         1136
  C:5F83H         LINE#         1137
  C:5F94H         LINE#         1138
  C:5FA1H         LINE#         1139
  C:5FAAH         LINE#         1142
  C:5FC9H         LINE#         1143
  C:5FC9H         LINE#         1145
  C:5FD2H         LINE#         1146
  C:5FDAH         LINE#         1147
  C:5FE3H         LINE#         1149
  C:5FECH         LINE#         1150
  C:5FF4H         LINE#         1151
  C:5FFDH         LINE#         1153
  C:6006H         LINE#         1154
  C:600EH         LINE#         1155
  C:6017H         LINE#         1157
  C:6020H         LINE#         1158
  C:6028H         LINE#         1159
  C:6031H         LINE#         1161
  C:603AH         LINE#         1162
  C:6042H         LINE#         1163
  C:604BH         LINE#         1165
  C:6062H         LINE#         1167
  C:606CH         LINE#         1168
  C:6076H         LINE#         1169
  C:6080H         LINE#         1171
  C:6085H         LINE#         1172
  C:6098H         LINE#         1173
  C:609DH         LINE#         1174
  C:60A3H         LINE#         1176
  C:60A5H         LINE#         1178
  C:60A5H         LINE#         1179
  C:60AAH         LINE#         1180
  C:60B3H         LINE#         1181
  C:60B8H         LINE#         1182
  C:60BAH         LINE#         1183
  C:60BAH         LINE#         1184
  C:60BAH         LINE#         1185
  C:60BCH         LINE#         1187
  C:60BCH         LINE#         1189
  C:60C4H         LINE#         1190
BL51 BANKED LINKER/LOCATER V6.22.2.0                                                  09/07/2021  11:24:22  PAGE 117


  C:60C4H         LINE#         1191
  C:60CAH         LINE#         1192
  C:60CAH         LINE#         1193
  C:60D7H         LINE#         1195
  C:60D7H         LINE#         1196
  C:60E0H         LINE#         1197
  C:60E6H         LINE#         1199
  C:60E8H         LINE#         1201
  C:60E8H         LINE#         1202
  C:60EDH         LINE#         1203
  C:60F6H         LINE#         1204
  C:60FBH         LINE#         1205
  C:6100H         LINE#         1206
  C:6106H         LINE#         1207
  C:6106H         LINE#         1208
  C:6106H         LINE#         1210
  C:610BH         LINE#         1211
  -------         ENDPROC       _RESPONDE_LECTURA_TARJETA_SECTOR1_BLOQUE1
  -------         PROC          _RESPONDE_LECTURA_TARJETA_SECTOR1_BLOQUE2
  X:0002H         SYMBOL        Atributos_Expedidor
  -------         DO            
  D:0007H         SYMBOL        temp
  X:0005H         SYMBOL        Estado_expedidor
  X:0006H         SYMBOL        buffer_S1_B2
  -------         ENDDO         
  C:700CH         LINE#         1216
  C:7017H         LINE#         1217
  C:7017H         LINE#         1223
  C:7020H         LINE#         1227
  C:7030H         LINE#         1228
  C:7030H         LINE#         1230
  C:703CH         LINE#         1231
  C:703CH         LINE#         1232
  C:7054H         LINE#         1233
  C:7057H         LINE#         1234
  C:7060H         LINE#         1235
  C:7071H         LINE#         1239
  C:707AH         LINE#         1240
  C:7087H         LINE#         1241
  C:70A3H         LINE#         1242
  C:70ACH         LINE#         1244
  C:70B5H         LINE#         1246
  C:70D1H         LINE#         1247
  C:70DBH         LINE#         1248
  C:70E4H         LINE#         1251
  C:70EDH         LINE#         1252
  C:70F5H         LINE#         1253
  C:70FEH         LINE#         1257
  C:7115H         LINE#         1260
  C:7121H         LINE#         1261
  C:7127H         LINE#         1264
  C:7129H         LINE#         1266
  C:7129H         LINE#         1267
  C:712FH         LINE#         1268
  C:712FH         LINE#         1269
  C:7134H         LINE#         1270
  -------         ENDPROC       _RESPONDE_LECTURA_TARJETA_SECTOR1_BLOQUE2
BL51 BANKED LINKER/LOCATER V6.22.2.0                                                  09/07/2021  11:24:22  PAGE 118


  -------         PROC          _RESPONDE_LECTURA_TARJETA_SECTOR1_BLOQUE0
  X:0002H         SYMBOL        Nombre_Mensual
  -------         DO            
  D:0007H         SYMBOL        temp
  X:0005H         SYMBOL        Estado_expedidor
  -------         ENDDO         
  C:9D3EH         LINE#         1272
  C:9D49H         LINE#         1273
  C:9D49H         LINE#         1279
  C:9D52H         LINE#         1283
  C:9D5FH         LINE#         1284
  C:9D5FH         LINE#         1286
  C:9D6BH         LINE#         1287
  C:9D6BH         LINE#         1288
  C:9D8BH         LINE#         1289
  C:9D8EH         LINE#         1290
  C:9DA2H         LINE#         1291
  C:9DABH         LINE#         1292
  C:9DB9H         LINE#         1293
  C:9DC2H         LINE#         1294
  C:9DC8H         LINE#         1297
  C:9DCAH         LINE#         1299
  C:9DCAH         LINE#         1300
  C:9DD0H         LINE#         1301
  C:9DD0H         LINE#         1302
  C:9DD5H         LINE#         1303
  -------         ENDPROC       _RESPONDE_LECTURA_TARJETA_SECTOR1_BLOQUE0
  -------         PROC          _RESPONDE_REELECTURA_TARJETA_SECTOR1_BLOQUE2
  X:0002H         SYMBOL        lectura_anterior
  X:0005H         SYMBOL        Atributos_Expedidor
  -------         DO            
  D:0007H         SYMBOL        temp
  X:0008H         SYMBOL        Estado_expedidor
  X:0009H         SYMBOL        reelectura
  X:00BBH         SYMBOL        error_lectura
  -------         ENDDO         
  C:675BH         LINE#         1304
  C:6766H         LINE#         1305
  C:6766H         LINE#         1311
  C:676FH         LINE#         1314
  C:677FH         LINE#         1315
  C:677FH         LINE#         1317
  C:678BH         LINE#         1318
  C:678BH         LINE#         1319
  C:67ABH         LINE#         1320
  C:67AEH         LINE#         1321
  C:67C2H         LINE#         1322
  C:67CBH         LINE#         1323
  C:67E1H         LINE#         1324
  C:67EAH         LINE#         1326
  C:680EH         LINE#         1327
  C:680EH         LINE#         1328
  C:6812H         LINE#         1329
  C:681BH         LINE#         1330
  C:6824H         LINE#         1331
  C:6834H         LINE#         1332
  C:6846H         LINE#         1333
BL51 BANKED LINKER/LOCATER V6.22.2.0                                                  09/07/2021  11:24:22  PAGE 119


  C:684CH         LINE#         1334
  C:684CH         LINE#         1335
  C:684EH         LINE#         1337
  C:684EH         LINE#         1338
  C:6854H         LINE#         1339
  C:6864H         LINE#         1340
  C:6864H         LINE#         1341
  C:6867H         LINE#         1342
  C:686DH         LINE#         1344
  C:686FH         LINE#         1346
  C:686FH         LINE#         1347
  C:6872H         LINE#         1348
  C:687BH         LINE#         1349
  C:688BH         LINE#         1350
  C:689EH         LINE#         1351
  C:68A4H         LINE#         1353
  C:68A4H         LINE#         1354
  C:68A4H         LINE#         1356
  C:68A4H         LINE#         1357
  C:68A9H         LINE#         1358
  -------         ENDPROC       _RESPONDE_REELECTURA_TARJETA_SECTOR1_BLOQUE2
  -------         PROC          _RESPONDE_WRITE_TARJETA_SECTOR1_BLOQUE1
  X:0002H         SYMBOL        Buffer_Write_MF
  -------         DO            
  D:0007H         SYMBOL        Estado_expedidor
  -------         ENDDO         
  C:B939H         LINE#         1359
  C:B944H         LINE#         1360
  C:B944H         LINE#         1362
  C:B94DH         LINE#         1363
  C:B956H         LINE#         1364
  C:B96CH         LINE#         1365
  C:B96EH         LINE#         1366
  C:B96EH         LINE#         1367
  -------         ENDPROC       _RESPONDE_WRITE_TARJETA_SECTOR1_BLOQUE1
  -------         PROC          _RESPONDE_WRITE_TARJETA_SECTOR1_BLOQUE2
  X:0002H         SYMBOL        Atributos_Expedidor
  X:0005H         SYMBOL        Buffer_Write_MF
  -------         DO            
  X:0008H         SYMBOL        Estado_expedidor
  -------         ENDDO         
  C:A3E6H         LINE#         1368
  C:A3F1H         LINE#         1369
  C:A3F1H         LINE#         1371
  C:A3FAH         LINE#         1372
  C:A403H         LINE#         1373
  C:A419H         LINE#         1374
  C:A429H         LINE#         1375
  C:A429H         LINE#         1378
  C:A42CH         LINE#         1379
  C:A43EH         LINE#         1380
  C:A444H         LINE#         1381
  C:A44AH         LINE#         1382
  C:A44CH         LINE#         1384
  C:A44CH         LINE#         1385
  C:A44FH         LINE#         1386
  C:A461H         LINE#         1387
BL51 BANKED LINKER/LOCATER V6.22.2.0                                                  09/07/2021  11:24:22  PAGE 120


  C:A467H         LINE#         1389
  C:A467H         LINE#         1390
  C:A46CH         LINE#         1391
  -------         ENDPROC       _RESPONDE_WRITE_TARJETA_SECTOR1_BLOQUE2
  -------         PROC          _RESPONDE_WRITE_TARJETA_SECTOR1_BLOQUE0
  X:0002H         SYMBOL        Buffer_Write_MF
  C:B96FH         LINE#         1394
  C:B97AH         LINE#         1395
  C:B97AH         LINE#         1397
  C:B983H         LINE#         1398
  C:B98CH         LINE#         1399
  C:B9A2H         LINE#         1401
  C:B9A4H         LINE#         1402
  -------         ENDPROC       _RESPONDE_WRITE_TARJETA_SECTOR1_BLOQUE0
  -------         PROC          _RESPONDE_WRITE_TARJETA_SECTOR2_BLOQUE0
  X:0002H         SYMBOL        Buffer_Write_MF
  C:B291H         LINE#         1405
  C:B29CH         LINE#         1406
  C:B29CH         LINE#         1408
  C:B2A5H         LINE#         1409
  C:B2AEH         LINE#         1410
  C:B2B7H         LINE#         1411
  C:B2C0H         LINE#         1412
  C:B2D5H         LINE#         1413
  C:B2D7H         LINE#         1414
  -------         ENDPROC       _RESPONDE_WRITE_TARJETA_SECTOR2_BLOQUE0
  -------         PROC          _PREGUNTA_LPR
  X:0002H         SYMBOL        Atributos_Expedidor
  -------         DO            
  D:0007H         SYMBOL        Estado_expedidor
  X:0005H         SYMBOL        contador
  X:0007H         SYMBOL        time_out
  -------         ENDDO         
  C:ADE4H         LINE#         1418
  C:ADEFH         LINE#         1419
  C:ADEFH         LINE#         1421
  C:ADF4H         LINE#         1422
  C:ADF8H         LINE#         1423
  C:AE01H         LINE#         1424
  C:AE0FH         LINE#         1425
  C:AE1DH         LINE#         1426
  C:AE1DH         LINE#         1428
  C:AE2EH         LINE#         1429
  C:AE3AH         LINE#         1430
  C:AE3AH         LINE#         1431
  C:AE3EH         LINE#         1433
  C:AE3EH         LINE#         1434
  C:AE3EH         LINE#         1437
  C:AE40H         LINE#         1439
  C:AE40H         LINE#         1440
  -------         ENDPROC       _PREGUNTA_LPR
  -------         PROC          PREGUNTA_PLACA_HABILITADA
  -------         DO            
  X:0002H         SYMBOL        Estado_expedidor
  -------         ENDDO         
  C:BA3EH         LINE#         1442
  C:BA3EH         LINE#         1443
BL51 BANKED LINKER/LOCATER V6.22.2.0                                                  09/07/2021  11:24:22  PAGE 121


  C:BA3EH         LINE#         1445
  C:BA47H         LINE#         1446
  C:BA56H         LINE#         1447
  C:BA56H         LINE#         1449
  C:BA59H         LINE#         1450
  C:BA5EH         LINE#         1451
  C:BA63H         LINE#         1452
  C:BA65H         LINE#         1454
  C:BA65H         LINE#         1455
  C:BA68H         LINE#         1456
  C:BA68H         LINE#         1457
  C:BA6DH         LINE#         1458
  -------         ENDPROC       PREGUNTA_PLACA_HABILITADA
  -------         PROC          _RESPUESTA_SEGUNDA_CLAVE
  X:0002H         SYMBOL        Atributos_Expedidor
  X:0005H         SYMBOL        Buffer_Write_MF
  C:AE41H         LINE#         1459
  C:AE4CH         LINE#         1460
  C:AE4CH         LINE#         1462
  C:AE55H         LINE#         1463
  C:AE6BH         LINE#         1466
  C:AE7BH         LINE#         1467
  C:AE8DH         LINE#         1468
  C:AE9BH         LINE#         1470
  C:AE9DH         LINE#         1471
  -------         ENDPROC       _RESPUESTA_SEGUNDA_CLAVE
  -------         PROC          RESPUESTA_PLACA_CANCEL
  -------         DO            
  X:0003H         SYMBOL        Estado_expedidor
  X:0004H         SYMBOL        Cancel
  -------         ENDDO         
  C:AAFBH         LINE#         1472
  C:AAFBH         LINE#         1473
  C:AAFBH         LINE#         1475
  C:AB09H         LINE#         1476
  C:AB12H         LINE#         1477
  C:AB1BH         LINE#         1478
  C:AB24H         LINE#         1487
  C:AB3AH         LINE#         1488
  C:AB3AH         LINE#         1489
  C:AB42H         LINE#         1490
  C:AB42H         LINE#         1491
  C:AB44H         LINE#         1492
  C:AB5AH         LINE#         1493
  C:AB5AH         LINE#         1494
  C:AB62H         LINE#         1495
  C:AB62H         LINE#         1496
  C:AB64H         LINE#         1498
  C:AB64H         LINE#         1506
  C:AB6AH         LINE#         1508
  C:AB6AH         LINE#         1509
  C:AB6FH         LINE#         1510
  -------         ENDPROC       RESPUESTA_PLACA_CANCEL
  -------         PROC          _ARMAR_TRAMA_TARJETA_SECTOR1_BLOQUE2
  X:000FH         SYMBOL        Atributos_Expedidor
  X:0012H         SYMBOL        Buffer_Write_MF
  C:5D44H         LINE#         1542
BL51 BANKED LINKER/LOCATER V6.22.2.0                                                  09/07/2021  11:24:22  PAGE 122


  C:5D4FH         LINE#         1543
  C:5D4FH         LINE#         1548
  C:5D73H         LINE#         1549
  C:5D9AH         LINE#         1550
  C:5DC1H         LINE#         1551
  C:5DE8H         LINE#         1552
  C:5E0FH         LINE#         1555
  C:5E16H         LINE#         1556
  C:5E1DH         LINE#         1557
  C:5E24H         LINE#         1559
  C:5E39H         LINE#         1560
  C:5E39H         LINE#         1561
  C:5E50H         LINE#         1562
  C:5E69H         LINE#         1563
  C:5E69H         LINE#         1564
  C:5E6CH         LINE#         1568
  C:5E6CH         LINE#         1570
  C:5E9BH         LINE#         1571
  C:5ECAH         LINE#         1573
  C:5EE2H         LINE#         1574
  C:5EE2H         LINE#         1575
  C:5EEFH         LINE#         1576
  C:5EF1H         LINE#         1578
  C:5EF1H         LINE#         1579
  C:5F01H         LINE#         1580
  C:5F01H         LINE#         1581
  C:5F01H         LINE#         1583
  C:5F13H         LINE#         1584
  C:5F1AH         LINE#         1585
  C:5F21H         LINE#         1586
  C:5F28H         LINE#         1587
  -------         ENDPROC       _ARMAR_TRAMA_TARJETA_SECTOR1_BLOQUE2
  -------         PROC          L?0349
  -------         ENDPROC       L?0349
  -------         PROC          _ARMAR_TRAMA_TARJETA_SECTOR1_BLOQUE0
  X:000CH         SYMBOL        Buffer_Write_MF
  C:BA76H         LINE#         1589
  C:BA81H         LINE#         1590
  C:BA81H         LINE#         1592
  -------         ENDPROC       _ARMAR_TRAMA_TARJETA_SECTOR1_BLOQUE0
  -------         PROC          _ARMAR_TRAMA_PTO_PARALELO_EXPEDIDOR
  X:0009H         SYMBOL        Atributos_Expedidor
  X:000CH         SYMBOL        longitud_trama_pto_paralelo
  -------         DO            
  X:00BCH         SYMBOL        buffer
  X:000FH         SYMBOL        ticket
  X:001AH         SYMBOL        j
  -------         ENDDO         
  C:50AEH         LINE#         1594
  C:50B9H         LINE#         1595
  C:50B9H         LINE#         1602
  C:50BFH         LINE#         1603
  C:50C3H         LINE#         1604
  C:50C6H         LINE#         1605
  C:50D2H         LINE#         1606
  C:50E9H         LINE#         1607
  C:50F7H         LINE#         1609
BL51 BANKED LINKER/LOCATER V6.22.2.0                                                  09/07/2021  11:24:22  PAGE 123


  C:5108H         LINE#         1611
  C:5134H         LINE#         1612
  C:5160H         LINE#         1613
  C:518CH         LINE#         1614
  C:51B8H         LINE#         1615
  C:51E4H         LINE#         1616
  C:51F8H         LINE#         1626
  C:5207H         LINE#         1627
  C:5207H         LINE#         1628
  C:520DH         LINE#         1629
  C:520DH         LINE#         1630
  C:5224H         LINE#         1631
  C:523AH         LINE#         1632
  C:5250H         LINE#         1633
  C:5266H         LINE#         1634
  C:527CH         LINE#         1635
  C:5291H         LINE#         1636
  C:5291H         LINE#         1637
  C:5293H         LINE#         1639
  C:5293H         LINE#         1640
  C:52A6H         LINE#         1641
  C:52A6H         LINE#         1642
  C:52A6H         LINE#         1643
  C:52A8H         LINE#         1645
  C:52A8H         LINE#         1646
  C:52BCH         LINE#         1647
  C:52CFH         LINE#         1648
  C:52CFH         LINE#         1649
  C:52DDH         LINE#         1650
  C:52EBH         LINE#         1651
  C:52FDH         LINE#         1653
  C:5303H         LINE#         1654
  -------         ENDPROC       _ARMAR_TRAMA_PTO_PARALELO_EXPEDIDOR
  -------         PROC          _ARMAR_TRAMA_PTO_PARALELO_EXPEDIDOR_MENSUAL
  X:0009H         SYMBOL        Atributos_Expedidor
  X:000CH         SYMBOL        longitud_trama_pto_paralelo
  -------         DO            
  X:00D8H         SYMBOL        buffer
  -------         ENDDO         
  C:6EDEH         LINE#         1655
  C:6EE9H         LINE#         1656
  C:6EE9H         LINE#         1662
  C:6EEFH         LINE#         1663
  C:6EF3H         LINE#         1664
  C:6F08H         LINE#         1665
  C:6F12H         LINE#         1666
  C:6F1CH         LINE#         1667
  C:6F26H         LINE#         1671
  C:6F37H         LINE#         1672
  C:6F53H         LINE#         1673
  C:6F6FH         LINE#         1674
  C:6F8BH         LINE#         1675
  C:6FA7H         LINE#         1685
  C:6FB3H         LINE#         1686
  C:6FB3H         LINE#         1688
  C:6FBAH         LINE#         1689
  C:6FBEH         LINE#         1690
BL51 BANKED LINKER/LOCATER V6.22.2.0                                                  09/07/2021  11:24:22  PAGE 124


  C:6FC2H         LINE#         1691
  C:6FC6H         LINE#         1692
  C:6FCAH         LINE#         1693
  C:6FCEH         LINE#         1695
  C:6FCEH         LINE#         1697
  C:6FE4H         LINE#         1698
  C:6FE4H         LINE#         1699
  C:6FE7H         LINE#         1700
  C:6FE9H         LINE#         1702
  C:6FE9H         LINE#         1703
  C:6FECH         LINE#         1704
  C:6FECH         LINE#         1706
  C:6FF2H         LINE#         1707
  C:6FF5H         LINE#         1708
  C:7005H         LINE#         1709
  C:700BH         LINE#         1710
  -------         ENDPROC       _ARMAR_TRAMA_PTO_PARALELO_EXPEDIDOR_MENSUAL
  -------         PROC          _ARMAR_TRAMA_MONITOR
  X:0009H         SYMBOL        Atributos_Expedidor
  -------         DO            
  X:00F4H         SYMBOL        buffer
  X:000CH         SYMBOL        ticket
  X:0017H         SYMBOL        j
  -------         ENDDO         
  C:4E0BH         LINE#         1711
  C:4E16H         LINE#         1712
  C:4E16H         LINE#         1718
  C:4E1BH         LINE#         1719
  C:4E21H         LINE#         1720
  C:4E29H         LINE#         1721
  C:4E2DH         LINE#         1722
  C:4E36H         LINE#         1723
  C:4E36H         LINE#         1724
  C:4E39H         LINE#         1725
  C:4E3BH         LINE#         1727
  C:4E3BH         LINE#         1728
  C:4E3EH         LINE#         1729
  C:4E3EH         LINE#         1732
  C:4E41H         LINE#         1733
  C:4E41H         LINE#         1734
  C:4E46H         LINE#         1735
  C:4E52H         LINE#         1736
  C:4E69H         LINE#         1737
  C:4E6CH         LINE#         1739
  C:4E6CH         LINE#         1740
  C:4E87H         LINE#         1741
  C:4E95H         LINE#         1742
  C:4EA3H         LINE#         1743
  C:4EAFH         LINE#         1744
  C:4EBDH         LINE#         1745
  C:4EF6H         LINE#         1747
  C:4EF6H         LINE#         1748
  C:4F04H         LINE#         1749
  C:4F15H         LINE#         1752
  C:4F41H         LINE#         1753
  C:4F5FH         LINE#         1756
  C:4F80H         LINE#         1757
BL51 BANKED LINKER/LOCATER V6.22.2.0                                                  09/07/2021  11:24:22  PAGE 125


  C:4F9EH         LINE#         1760
  C:4FBFH         LINE#         1761
  C:4FDDH         LINE#         1764
  C:4FFEH         LINE#         1765
  C:501CH         LINE#         1768
  C:503DH         LINE#         1769
  C:505BH         LINE#         1770
  C:506EH         LINE#         1773
  C:507CH         LINE#         1775
  C:508AH         LINE#         1776
  C:5097H         LINE#         1777
  C:50A3H         LINE#         1778
  C:50A8H         LINE#         1779
  C:50ADH         LINE#         1780
  -------         ENDPROC       _ARMAR_TRAMA_MONITOR
  -------         PROC          _ARMAR_TRAMA_PLACA
  X:0008H         SYMBOL        Buffer_Write_MF
  -------         DO            
  D:0007H         SYMBOL        j
  X:000BH         SYMBOL        len_placa
  -------         ENDDO         
  C:A577H         LINE#         1781
  C:A582H         LINE#         1782
  C:A582H         LINE#         1785
  C:A590H         LINE#         1786
  C:A592H         LINE#         1787
  C:A592H         LINE#         1788
  C:A5A0H         LINE#         1789
  C:A5A0H         LINE#         1790
  C:A5AEH         LINE#         1791
  C:A5BAH         LINE#         1792
  C:A5BAH         LINE#         1793
  C:A5D4H         LINE#         1794
  C:A5D7H         LINE#         1795
  C:A5E3H         LINE#         1796
  C:A5E3H         LINE#         1797
  C:A5F7H         LINE#         1798
  C:A5FAH         LINE#         1799
  -------         ENDPROC       _ARMAR_TRAMA_PLACA
  C:B767H         SYMBOL        L?0348
  -------         PROC          L?0347
  -------         ENDPROC       L?0347
  C:B767H         SYMBOL        L?0348
  -------         PROC          _LOAD_SECUENCIA_EXPEDIDOR
  D:0001H         SYMBOL        Secuencia_Expedidor
  D:0004H         SYMBOL        estadoactivo
  X:0007H         SYMBOL        estadoactual
  X:0009H         SYMBOL        estadofuturo
  C:B783H         LINE#         1800
  C:B783H         LINE#         1801
  C:B783H         LINE#         1802
  C:B78AH         LINE#         1803
  C:B792H         LINE#         1804
  C:B79DH         LINE#         1805
  C:B7A3H         LINE#         1806
  -------         ENDPROC       _LOAD_SECUENCIA_EXPEDIDOR
  -------         PROC          _DISPARO_LOCK_ENTRADA_VEHICULO
BL51 BANKED LINKER/LOCATER V6.22.2.0                                                  09/07/2021  11:24:22  PAGE 126


  X:0002H         SYMBOL        Nombre_Mensual
  -------         DO            
  X:0005H         SYMBOL        Estado_expedidor
  X:010CH         SYMBOL        take_card
  -------         ENDDO         
  C:A018H         LINE#         1807
  C:A023H         LINE#         1808
  C:A023H         LINE#         1813
  C:A02CH         LINE#         1817
  C:A033H         LINE#         1818
  C:A033H         LINE#         1820
  C:A03CH         LINE#         1822
  C:A042H         LINE#         1823
  C:A044H         LINE#         1824
  C:A049H         LINE#         1826
  C:A059H         LINE#         1827
  C:A05FH         LINE#         1830
  C:A061H         LINE#         1831
  C:A069H         LINE#         1832
  C:A069H         LINE#         1833
  C:A06FH         LINE#         1834
  C:A06FH         LINE#         1835
  C:A07CH         LINE#         1836
  C:A081H         LINE#         1837
  C:A086H         LINE#         1838
  C:A088H         LINE#         1840
  C:A088H         LINE#         1841
  C:A08EH         LINE#         1843
  C:A08EH         LINE#         1845
  C:A094H         LINE#         1846
  C:A09AH         LINE#         1848
  C:A09CH         LINE#         1850
  C:A09CH         LINE#         1851
  C:A0A2H         LINE#         1852
  C:A0A2H         LINE#         1854
  C:A0A2H         LINE#         1859
  C:A0A7H         LINE#         1860
  -------         ENDPROC       _DISPARO_LOCK_ENTRADA_VEHICULO
  -------         PROC          _SEND_PTO_PARALELO
  X:0002H         SYMBOL        Atributos_Expedidor
  -------         DO            
  X:0005H         SYMBOL        Trama_Expedidor
  X:0008H         SYMBOL        leng_trama_pto
  -------         ENDDO         
  C:984DH         LINE#         1861
  C:9858H         LINE#         1862
  C:9858H         LINE#         1865
  C:985BH         LINE#         1866
  C:985BH         LINE#         1867
  C:9882H         LINE#         1868
  C:9884H         LINE#         1870
  C:9884H         LINE#         1871
  C:98ABH         LINE#         1872
  C:98AEH         LINE#         1873
  C:98AEH         LINE#         1875
  C:98BFH         LINE#         1876
  C:98C8H         LINE#         1877
BL51 BANKED LINKER/LOCATER V6.22.2.0                                                  09/07/2021  11:24:22  PAGE 127


  C:98DFH         LINE#         1881
  C:98E2H         LINE#         1882
  C:98E8H         LINE#         1883
  C:98EDH         LINE#         1884
  C:98EFH         LINE#         1885
  C:98F1H         LINE#         1886
  -------         ENDPROC       _SEND_PTO_PARALELO
  -------         PROC          ENTREGA_CARD_CAPTURA
  -------         DO            
  X:0002H         SYMBOL        Estado_expedidor
  -------         ENDDO         
  C:9B70H         LINE#         1890
  C:9B70H         LINE#         1891
  C:9B70H         LINE#         1895
  C:9B79H         LINE#         1896
  C:9B7CH         LINE#         1897
  C:9B7FH         LINE#         1898
  C:9B7FH         LINE#         1899
  C:9B89H         LINE#         1900
  C:9B89H         LINE#         1901
  C:9B8BH         LINE#         1902
  C:9B8DH         LINE#         1903
  C:9B96H         LINE#         1904
  C:9B96H         LINE#         1905
  C:9B96H         LINE#         1907
  C:9B98H         LINE#         1909
  C:9B98H         LINE#         1910
  C:9B9EH         LINE#         1911
  C:9B9EH         LINE#         1913
  C:9BA4H         LINE#         1915
  C:9BB7H         LINE#         1916
  C:9BB7H         LINE#         1917
  C:9BC4H         LINE#         1918
  C:9BC4H         LINE#         1919
  C:9BC6H         LINE#         1920
  C:9BCFH         LINE#         1922
  C:9BD1H         LINE#         1923
  C:9BD6H         LINE#         1924
  C:9BDCH         LINE#         1926
  C:9BDEH         LINE#         1927
  C:9BEBH         LINE#         1928
  C:9BEBH         LINE#         1929
  C:9BF1H         LINE#         1930
  C:9BF1H         LINE#         1931
  C:9BF1H         LINE#         1933
  C:9BF3H         LINE#         1935
  C:9BF3H         LINE#         1936
  C:9BF5H         LINE#         1937
  C:9BFEH         LINE#         1938
  C:9C00H         LINE#         1939
  C:9C05H         LINE#         1940
  C:9C05H         LINE#         1941
  C:9C05H         LINE#         1943
  C:9C0AH         LINE#         1944
  -------         ENDPROC       ENTREGA_CARD_CAPTURA
  -------         PROC          WAIT_PLACA
  -------         DO            
BL51 BANKED LINKER/LOCATER V6.22.2.0                                                  09/07/2021  11:24:22  PAGE 128


  X:0002H         SYMBOL        Estado_expedidor
  -------         ENDDO         
  C:A135H         LINE#         1945
  C:A135H         LINE#         1946
  C:A135H         LINE#         1950
  C:A13EH         LINE#         1952
  C:A154H         LINE#         1953
  C:A154H         LINE#         1954
  C:A157H         LINE#         1955
  C:A157H         LINE#         1957
  C:A15AH         LINE#         1958
  C:A15AH         LINE#         1959
  C:A15CH         LINE#         1961
  C:A162H         LINE#         1962
  C:A162H         LINE#         1965
  C:A16AH         LINE#         1966
  C:A16CH         LINE#         1969
  C:A16CH         LINE#         1970
  C:A172H         LINE#         1971
  C:A185H         LINE#         1972
  C:A185H         LINE#         1973
  C:A192H         LINE#         1974
  C:A192H         LINE#         1976
  C:A1A1H         LINE#         1977
  C:A1A7H         LINE#         1978
  C:A1A9H         LINE#         1979
  C:A1B6H         LINE#         1980
  C:A1B6H         LINE#         1981
  C:A1BCH         LINE#         1982
  C:A1BCH         LINE#         1983
  C:A1BCH         LINE#         1984
  C:A1BCH         LINE#         1985
  C:A1C1H         LINE#         1986
  -------         ENDPROC       WAIT_PLACA
  -------         PROC          _TARJETA_ROTACION
  D:0001H         SYMBOL        Atributos_Expedidor
  X:000CH         SYMBOL        Buffer_Write_MF
  C:BA0DH         LINE#         2064
  C:BA0DH         LINE#         2065
  C:BA0DH         LINE#         2066
  C:BA12H         LINE#         2067
  C:BA1BH         LINE#         2068
  C:BA3BH         LINE#         2069
  C:BA3DH         LINE#         2072
  -------         ENDPROC       _TARJETA_ROTACION
  -------         PROC          _VALIDA_TIPO_TARJETA
  X:0002H         SYMBOL        Atributos_Expedidor
  X:0005H         SYMBOL        Buffer_Write_MF
  -------         DO            
  X:0008H         SYMBOL        Estado_expedidor
  -------         ENDDO         
  C:87D8H         LINE#         2073
  C:87E3H         LINE#         2074
  C:87E3H         LINE#         2115
  C:87F0H         LINE#         2116
  C:87F0H         LINE#         2118
  C:87F9H         LINE#         2119
BL51 BANKED LINKER/LOCATER V6.22.2.0                                                  09/07/2021  11:24:22  PAGE 129


  C:87FFH         LINE#         2120
  C:87FFH         LINE#         2121
  C:880BH         LINE#         2122
  C:880BH         LINE#         2123
  C:8828H         LINE#         2125
  C:8828H         LINE#         2126
  C:8845H         LINE#         2127
  C:8847H         LINE#         2129
  C:8847H         LINE#         2130
  C:8850H         LINE#         2131
  C:8855H         LINE#         2132
  C:8857H         LINE#         2133
  C:8857H         LINE#         2134
  C:8857H         LINE#         2135
  C:8859H         LINE#         2137
  C:8859H         LINE#         2138
  C:8862H         LINE#         2139
  C:888AH         LINE#         2140
  C:888AH         LINE#         2141
  C:888CH         LINE#         2143
  C:888CH         LINE#         2145
  C:8891H         LINE#         2146
  C:8896H         LINE#         2147
  C:8896H         LINE#         2148
  C:8896H         LINE#         2149
  C:8898H         LINE#         2151
  C:8898H         LINE#         2152
  C:88A1H         LINE#         2153
  C:88A6H         LINE#         2155
  C:88ACH         LINE#         2156
  C:88ACH         LINE#         2158
  C:88B1H         LINE#         2159
  -------         ENDPROC       _VALIDA_TIPO_TARJETA
  -------         PROC          SECUENCIA_INICIO_EXPEDIDOR
  -------         DO            
  X:0001H         SYMBOL        temp
  -------         ENDDO         
  C:6B2DH         LINE#         2413
  C:6B2DH         LINE#         2414
  C:6B2DH         LINE#         2416
  C:6B4DH         LINE#         2417
  C:6B4DH         LINE#         2418
  C:6B4DH         LINE#         2421
  C:6B52H         LINE#         2422
  C:6B58H         LINE#         2425
  C:6B5AH         LINE#         2426
  C:6B5AH         LINE#         2437
  C:6B5AH         LINE#         2439
  C:6B68H         LINE#         2440
  C:6B68H         LINE#         2441
  C:6B74H         LINE#         2442
  C:6B74H         LINE#         2443
  C:6B7AH         LINE#         2444
  C:6B7DH         LINE#         2445
  C:6B85H         LINE#         2446
  C:6B85H         LINE#         2447
  C:6B8CH         LINE#         2448
BL51 BANKED LINKER/LOCATER V6.22.2.0                                                  09/07/2021  11:24:22  PAGE 130


  C:6BA0H         LINE#         2449
  C:6BA0H         LINE#         2450
  C:6BA2H         LINE#         2452
  C:6BA2H         LINE#         2453
  C:6BA9H         LINE#         2454
  C:6BAFH         LINE#         2455
  C:6BAFH         LINE#         2456
  C:6BB2H         LINE#         2458
  C:6BB2H         LINE#         2459
  C:6BBBH         LINE#         2460
  C:6BCFH         LINE#         2461
  C:6BD5H         LINE#         2462
  C:6BD5H         LINE#         2463
  C:6BD8H         LINE#         2464
  C:6BD8H         LINE#         2470
  C:6BD8H         LINE#         2472
  C:6BDBH         LINE#         2473
  C:6BE1H         LINE#         2477
  C:6BE3H         LINE#         2478
  C:6BE3H         LINE#         2488
  C:6BE3H         LINE#         2490
  C:6BF1H         LINE#         2491
  C:6BF1H         LINE#         2492
  C:6BFDH         LINE#         2493
  C:6BFDH         LINE#         2494
  C:6C03H         LINE#         2495
  C:6C05H         LINE#         2496
  C:6C0DH         LINE#         2497
  C:6C0DH         LINE#         2498
  C:6C14H         LINE#         2499
  C:6C28H         LINE#         2500
  C:6C28H         LINE#         2501
  C:6C2AH         LINE#         2503
  C:6C2AH         LINE#         2504
  C:6C31H         LINE#         2505
  C:6C37H         LINE#         2506
  C:6C37H         LINE#         2507
  C:6C39H         LINE#         2509
  C:6C39H         LINE#         2510
  C:6C42H         LINE#         2511
  C:6C56H         LINE#         2512
  C:6C5BH         LINE#         2513
  C:6C5BH         LINE#         2515
  C:6C5DH         LINE#         2516
  C:6C5DH         LINE#         2522
  C:6C5DH         LINE#         2524
  C:6C63H         LINE#         2525
  C:6C63H         LINE#         2528
  C:6C63H         LINE#         2529
  C:6C6AH         LINE#         2530
  C:6C6AH         LINE#         2531
  C:6C6AH         LINE#         2532
  -------         ENDPROC       SECUENCIA_INICIO_EXPEDIDOR
  -------         PROC          _SECUENCIAEXPEDIDORMF
  X:0001H         SYMBOL        EstadoActivo
  -------         DO            
  X:010DH         SYMBOL        Buffer_Write_MF
BL51 BANKED LINKER/LOCATER V6.22.2.0                                                  09/07/2021  11:24:22  PAGE 131


  X:011EH         SYMBOL        Atributos_Expedidor
  X:0132H         SYMBOL        Secuencia_Expedidor
  X:0136H         SYMBOL        Nombre_Mensual
  -------         ENDDO         
  C:38BEH         LINE#         2542
  C:38C3H         LINE#         2543
  C:38C3H         LINE#         2551
  C:392FH         LINE#         2552
  C:392FH         LINE#         2555
  C:392FH         LINE#         2557
  C:3942H         LINE#         2558
  C:3942H         LINE#         2559
  C:3944H         LINE#         2560
  C:3946H         LINE#         2561
  C:394BH         LINE#         2562
  C:3953H         LINE#         2563
  C:3958H         LINE#         2564
  C:3958H         LINE#         2566
  C:395BH         LINE#         2567
  C:395BH         LINE#         2569
  C:3964H         LINE#         2570
  C:3967H         LINE#         2571
  C:3967H         LINE#         2572
  C:396CH         LINE#         2573
  C:398CH         LINE#         2574
  C:398FH         LINE#         2575
  C:398FH         LINE#         2576
  C:3992H         LINE#         2577
  C:399AH         LINE#         2578
  C:39A0H         LINE#         2579
  C:39A3H         LINE#         2581
  C:39A3H         LINE#         2582
  C:39A6H         LINE#         2583
  C:39CBH         LINE#         2584
  C:39D1H         LINE#         2585
  C:39D3H         LINE#         2586
  C:39D6H         LINE#         2587
  C:39D6H         LINE#         2588
  C:39E1H         LINE#         2589
  C:39E9H         LINE#         2590
  C:39EFH         LINE#         2591
  C:39F2H         LINE#         2592
  C:39F2H         LINE#         2593
  C:3A03H         LINE#         2594
  C:3A0BH         LINE#         2595
  C:3A11H         LINE#         2596
  C:3A14H         LINE#         2597
  C:3A14H         LINE#         2598
  C:3A19H         LINE#         2599
  C:3A3CH         LINE#         2600
  C:3A3EH         LINE#         2601
  C:3A41H         LINE#         2602
  C:3A41H         LINE#         2603
  C:3A46H         LINE#         2604
  C:3A66H         LINE#         2605
  C:3A69H         LINE#         2606
  C:3A69H         LINE#         2607
BL51 BANKED LINKER/LOCATER V6.22.2.0                                                  09/07/2021  11:24:22  PAGE 132


  C:3A6EH         LINE#         2608
  C:3A70H         LINE#         2609
  C:3A8EH         LINE#         2610
  C:3A91H         LINE#         2611
  C:3A91H         LINE#         2612
  C:3A96H         LINE#         2613
  C:3AB6H         LINE#         2614
  C:3AB9H         LINE#         2615
  C:3AB9H         LINE#         2616
  C:3ACCH         LINE#         2617
  C:3ACCH         LINE#         2618
  C:3AD1H         LINE#         2619
  C:3AD9H         LINE#         2620
  C:3ADCH         LINE#         2621
  C:3ADCH         LINE#         2622
  C:3ADFH         LINE#         2624
  C:3ADFH         LINE#         2625
  C:3AE2H         LINE#         2626
  C:3B02H         LINE#         2627
  C:3B05H         LINE#         2628
  C:3B05H         LINE#         2629
  C:3B07H         LINE#         2630
  C:3B0AH         LINE#         2631
  C:3B0DH         LINE#         2632
  C:3B0DH         LINE#         2633
  C:3B16H         LINE#         2634
  C:3B19H         LINE#         2635
  C:3B19H         LINE#         2637
  C:3B1FH         LINE#         2638
  C:3B22H         LINE#         2639
  C:3B25H         LINE#         2640
  C:3B25H         LINE#         2641
  C:3B28H         LINE#         2642
  C:3B30H         LINE#         2643
  C:3B36H         LINE#         2644
  C:3B39H         LINE#         2645
  C:3B39H         LINE#         2646
  C:3B42H         LINE#         2647
  C:3B45H         LINE#         2648
  C:3B45H         LINE#         2649
  C:3B47H         LINE#         2650
  C:3B4AH         LINE#         2651
  C:3B4DH         LINE#         2652
  C:3B4DH         LINE#         2653
  C:3B64H         LINE#         2654
  C:3B67H         LINE#         2655
  C:3B67H         LINE#         2658
  C:3B6CH         LINE#         2659
  C:3B74H         LINE#         2660
  C:3B7AH         LINE#         2662
  C:3B7DH         LINE#         2663
  C:3B7DH         LINE#         2664
  C:3B80H         LINE#         2665
  C:3BA0H         LINE#         2666
  C:3BA3H         LINE#         2667
  C:3BA3H         LINE#         2668
  C:3BA6H         LINE#         2669
BL51 BANKED LINKER/LOCATER V6.22.2.0                                                  09/07/2021  11:24:22  PAGE 133


  C:3BC6H         LINE#         2670
  C:3BC9H         LINE#         2671
  C:3BC9H         LINE#         2672
  C:3BCCH         LINE#         2673
  C:3BD4H         LINE#         2674
  C:3BDAH         LINE#         2675
  C:3BDDH         LINE#         2676
  C:3BDDH         LINE#         2678
  C:3BE8H         LINE#         2679
  C:3BF0H         LINE#         2680
  C:3C04H         LINE#         2681
  C:3C07H         LINE#         2682
  C:3C07H         LINE#         2683
  C:3C1AH         LINE#         2684
  C:3C1AH         LINE#         2685
  C:3C1DH         LINE#         2686
  C:3C1DH         LINE#         2687
  C:3C20H         LINE#         2688
  C:3C20H         LINE#         2689
  C:3C33H         LINE#         2690
  C:3C33H         LINE#         2691
  C:3C36H         LINE#         2692
  C:3C36H         LINE#         2693
  C:3C39H         LINE#         2694
  C:3C39H         LINE#         2695
  C:3C3CH         LINE#         2696
  C:3C3FH         LINE#         2698
  C:3C3FH         LINE#         2699
  C:3C45H         LINE#         2700
  C:3C45H         LINE#         2701
  C:3C48H         LINE#         2702
  C:3C48H         LINE#         2703
  C:3C48H         LINE#         2704
  C:3C4BH         LINE#         2708
  C:3C4BH         LINE#         2709
  C:3C51H         LINE#         2710
  C:3C57H         LINE#         2711
  C:3C57H         LINE#         2712
  C:3C5FH         LINE#         2713
  C:3C65H         LINE#         2715
  C:3C68H         LINE#         2716
  C:3C70H         LINE#         2717
  C:3C70H         LINE#         2719
  C:3C73H         LINE#         2720
  C:3C76H         LINE#         2721
  C:3C7EH         LINE#         2722
  C:3C7EH         LINE#         2723
  C:3C8CH         LINE#         2724
  C:3C8CH         LINE#         2725
  C:3C95H         LINE#         2726
  C:3C98H         LINE#         2727
  C:3CA4H         LINE#         2728
  C:3CA4H         LINE#         2729
  C:3CADH         LINE#         2730
  C:3CB0H         LINE#         2732
  C:3CB0H         LINE#         2733
  C:3CB9H         LINE#         2734
BL51 BANKED LINKER/LOCATER V6.22.2.0                                                  09/07/2021  11:24:22  PAGE 134


  C:3CB9H         LINE#         2735
  C:3CBCH         LINE#         2736
  C:3CC4H         LINE#         2737
  C:3CC4H         LINE#         2738
  C:3CD2H         LINE#         2739
  C:3CD2H         LINE#         2740
  C:3CE8H         LINE#         2741
  C:3CEBH         LINE#         2742
  C:3CF7H         LINE#         2743
  C:3CF7H         LINE#         2744
  C:3D00H         LINE#         2745
  C:3D02H         LINE#         2746
  C:3D10H         LINE#         2747
  C:3D10H         LINE#         2748
  C:3D19H         LINE#         2749
  C:3D1BH         LINE#         2751
  C:3D1BH         LINE#         2752
  C:3D24H         LINE#         2753
  C:3D24H         LINE#         2754
  C:3D26H         LINE#         2755
  C:3D2EH         LINE#         2756
  C:3D2EH         LINE#         2757
  C:3D37H         LINE#         2758
  C:3D39H         LINE#         2759
  C:3D41H         LINE#         2760
  C:3D41H         LINE#         2761
  C:3D57H         LINE#         2762
  C:3D59H         LINE#         2764
  C:3D61H         LINE#         2765
  C:3D61H         LINE#         2766
  C:3D6AH         LINE#         2767
  C:3D6CH         LINE#         2770
  C:3D74H         LINE#         2771
  C:3D74H         LINE#         2772
  C:3D7CH         LINE#         2773
  C:3D7EH         LINE#         2775
  C:3D7EH         LINE#         2776
  C:3D87H         LINE#         2777
  C:3D87H         LINE#         2778
  C:3D89H         LINE#         2779
  C:3D89H         LINE#         2780
  C:3D8EH         LINE#         2781
  C:3D8EH         LINE#         2783
  C:3D8EH         LINE#         2784
  C:3D93H         LINE#         2785
  -------         ENDPROC       _SECUENCIAEXPEDIDORMF
  -------         ENDMOD        VERIFICADOR

  -------         MODULE        MONITOR
  C:0000H         SYMBOL        _ICE_DUMMY_
  D:0080H         PUBLIC        P0
  D:0090H         PUBLIC        P1
  I:0011H         PUBLIC        placa
  B:0080H.2       PUBLIC        led_err_imp
  C:B890H         PUBLIC        Rx_Monitor
  B:0080H.0       PUBLIC        rx_ip
  B:0090H.7       PUBLIC        lock
BL51 BANKED LINKER/LOCATER V6.22.2.0                                                  09/07/2021  11:24:22  PAGE 135


  C:8A5FH         PUBLIC        _recibe_cmd_Monitor
  C:BC92H         PUBLIC        clear_placa
  C:920EH         PUBLIC        _Valida_Trama_Monitor
  -------         PROC          _RECIBE_CMD_MONITOR
  X:0011H         SYMBOL        buffer_cmd
  -------         DO            
  X:0014H         SYMBOL        j
  X:0015H         SYMBOL        NumDatos
  X:0016H         SYMBOL        time_out
  X:0017H         SYMBOL        MaxChrRx
  X:0018H         SYMBOL        contador
  -------         ENDDO         
  C:8A5FH         LINE#         51
  C:8A6AH         LINE#         52
  C:8A6AH         LINE#         56
  C:8A6FH         LINE#         57
  C:8A75H         LINE#         58
  C:8A79H         LINE#         61
  C:8A8DH         LINE#         62
  C:8A8DH         LINE#         63
  C:8A94H         LINE#         64
  C:8A98H         LINE#         65
  C:8AA1H         LINE#         66
  C:8AA1H         LINE#         67
  C:8AAFH         LINE#         68
  C:8AC6H         LINE#         69
  C:8AC6H         LINE#         70
  C:8ACCH         LINE#         71
  C:8AD2H         LINE#         72
  C:8AD2H         LINE#         73
  C:8AD4H         LINE#         74
  C:8ADCH         LINE#         75
  C:8AE2H         LINE#         77
  C:8AF4H         LINE#         78
  C:8B06H         LINE#         79
  C:8B06H         LINE#         80
  C:8B10H         LINE#         81
  C:8B10H         LINE#         82
  C:8B19H         LINE#         84
  C:8B28H         LINE#         88
  C:8B2DH         LINE#         89
  -------         ENDPROC       _RECIBE_CMD_MONITOR
  -------         PROC          _VALIDA_TRAMA_MONITOR
  X:0011H         SYMBOL        buffer
  D:0005H         SYMBOL        length_trama
  -------         DO            
  X:0014H         SYMBOL        j
  X:0015H         SYMBOL        p
  X:0016H         SYMBOL        cont
  -------         ENDDO         
  C:920EH         LINE#         94
  C:9219H         LINE#         95
  C:9219H         LINE#         96
  C:921CH         LINE#         97
  C:9220H         LINE#         98
  C:9223H         LINE#         99
  C:9225H         LINE#         102
BL51 BANKED LINKER/LOCATER V6.22.2.0                                                  09/07/2021  11:24:22  PAGE 136


  C:9239H         LINE#         103
  C:9239H         LINE#         105
  C:923BH         LINE#         107
  C:9242H         LINE#         108
  C:9247H         LINE#         110
  C:9247H         LINE#         112
  C:9262H         LINE#         113
  C:9262H         LINE#         116
  C:9262H         LINE#         117
  C:9283H         LINE#         118
  C:9287H         LINE#         119
  C:928DH         LINE#         120
  C:929FH         LINE#         121
  C:92B7H         LINE#         122
  C:92C0H         LINE#         123
  C:92C2H         LINE#         124
  C:92C8H         LINE#         125
  C:92CAH         LINE#         127
  C:92CAH         LINE#         130
  -------         ENDPROC       _VALIDA_TRAMA_MONITOR
  -------         PROC          CLEAR_PLACA
  -------         DO            
  D:0007H         SYMBOL        i
  -------         ENDDO         
  C:BC92H         LINE#         131
  C:BC92H         LINE#         132
  C:BC92H         LINE#         134
  C:BC9EH         LINE#         135
  C:BC9EH         LINE#         136
  C:BCA4H         LINE#         137
  C:BCA7H         LINE#         138
  C:BCA9H         LINE#         139
  C:BCABH         LINE#         140
  -------         ENDPROC       CLEAR_PLACA
  -------         PROC          RX_MONITOR
  -------         DO            
  X:0003H         SYMBOL        Length_trama
  X:0004H         SYMBOL        buffer1
  -------         ENDDO         
  C:B890H         LINE#         141
  C:B890H         LINE#         142
  C:B890H         LINE#         145
  C:B895H         LINE#         146
  C:B8A4H         LINE#         147
  C:B8ADH         LINE#         148
  C:B8BBH         LINE#         149
  -------         ENDPROC       RX_MONITOR
  -------         ENDMOD        MONITOR

  -------         MODULE        ?C?FPADD
  C:145DH         PUBLIC        ?C?FPADD
  C:1459H         PUBLIC        ?C?FPSUB
  -------         ENDMOD        ?C?FPADD

  -------         MODULE        ?C?FPMUL
  C:154EH         PUBLIC        ?C?FPMUL
  -------         ENDMOD        ?C?FPMUL
BL51 BANKED LINKER/LOCATER V6.22.2.0                                                  09/07/2021  11:24:22  PAGE 137



  -------         MODULE        ?C?FCAST
  C:165EH         PUBLIC        ?C?FCASTC
  C:1659H         PUBLIC        ?C?FCASTI
  C:1654H         PUBLIC        ?C?FCASTL
  -------         ENDMOD        ?C?FCAST

  -------         MODULE        ?C?CASTF
  C:1692H         PUBLIC        ?C?CASTF
  -------         ENDMOD        ?C?CASTF

  -------         MODULE        PRINTF
  X:0077H         PUBLIC        ?_PRINTF?BYTE
  X:0077H         PUBLIC        ?_SPRINTF?BYTE
  C:3DFFH         PUBLIC        _PRINTF
  C:3DF9H         PUBLIC        _SPRINTF
  -------         ENDMOD        PRINTF

  -------         MODULE        POW
  X:0024H         PUBLIC        ?_pow?BYTE
  C:65F5H         PUBLIC        _pow
  -------         ENDMOD        POW

  -------         MODULE        ?C?CHKFLOAT
  C:1713H         PUBLIC        ?C?CHKFLOAT
  -------         ENDMOD        ?C?CHKFLOAT

  -------         MODULE        ?C?FPCMP
  C:172FH         PUBLIC        ?C?FPCMP
  C:172DH         PUBLIC        ?C?FPCMP3
  -------         ENDMOD        ?C?FPCMP

  -------         MODULE        ?C?FPNEG
  C:17A6H         PUBLIC        ?C?FPNEG
  -------         ENDMOD        ?C?FPNEG

  -------         MODULE        ?C?FPROUND
  C:17B7H         PUBLIC        ?C?FPROUND
  -------         ENDMOD        ?C?FPROUND

  -------         MODULE        ?C?FPCONVERT
  C:17F4H         PUBLIC        ?C?FPCONVERT
  -------         ENDMOD        ?C?FPCONVERT

  -------         MODULE        EXP
  C:9C43H         PUBLIC        _EXP
  -------         ENDMOD        EXP

  -------         MODULE        LOG
  C:7169H         PUBLIC        _LOG
  C:7165H         PUBLIC        _LOG10
  -------         ENDMOD        LOG

  -------         MODULE        ?C?FPDIV
  C:18FCH         PUBLIC        ?C?FPDIV
  -------         ENDMOD        ?C?FPDIV

BL51 BANKED LINKER/LOCATER V6.22.2.0                                                  09/07/2021  11:24:22  PAGE 138


  -------         MODULE        ?C?FTNPWR
  C:19C9H         PUBLIC        ?C?FTNPWR
  -------         ENDMOD        ?C?FTNPWR

  -------         MODULE        ?C?COPY
  C:1B26H         PUBLIC        ?C?COPY
  -------         ENDMOD        ?C?COPY

  -------         MODULE        ?C?CLDPTR
  C:1B4CH         PUBLIC        ?C?CLDPTR
  -------         ENDMOD        ?C?CLDPTR

  -------         MODULE        ?C?CLDOPTR
  C:1B65H         PUBLIC        ?C?CLDOPTR
  -------         ENDMOD        ?C?CLDOPTR

  -------         MODULE        ?C?CSTPTR
  C:1B92H         PUBLIC        ?C?CSTPTR
  -------         ENDMOD        ?C?CSTPTR

  -------         MODULE        ?C?CSTOPTR
  C:1BA4H         PUBLIC        ?C?CSTOPTR
  -------         ENDMOD        ?C?CSTOPTR

  -------         MODULE        ?C?IMUL
  C:1BC6H         PUBLIC        ?C?IMUL
  -------         ENDMOD        ?C?IMUL

  -------         MODULE        ?C?IILDX
  C:1BD8H         PUBLIC        ?C?IILDX
  -------         ENDMOD        ?C?IILDX

  -------         MODULE        ?C?LNEG
  C:1BEEH         PUBLIC        ?C?LNEG
  -------         ENDMOD        ?C?LNEG

  -------         MODULE        ?C?SLCMP
  C:1BFCH         PUBLIC        ?C?SLCMP
  -------         ENDMOD        ?C?SLCMP

  -------         MODULE        ?C?ULCMP
  C:1C12H         PUBLIC        ?C?ULCMP
  -------         ENDMOD        ?C?ULCMP

  -------         MODULE        ?C?ULSHR
  C:1C23H         PUBLIC        ?C?ULSHR
  -------         ENDMOD        ?C?ULSHR

  -------         MODULE        ?C?LSHL
  C:1C36H         PUBLIC        ?C?LSHL
  -------         ENDMOD        ?C?LSHL

  -------         MODULE        ?C?LLDCODE
  C:1C49H         PUBLIC        ?C?LLDCODE
  -------         ENDMOD        ?C?LLDCODE

  -------         MODULE        ?C?LLDXDATA0
BL51 BANKED LINKER/LOCATER V6.22.2.0                                                  09/07/2021  11:24:22  PAGE 139


  C:1C59H         PUBLIC        ?C?LLDXDATA0
  -------         ENDMOD        ?C?LLDXDATA0

  -------         MODULE        ?C?LLDCODE0
  C:1C65H         PUBLIC        ?C?LLDCODE0
  -------         ENDMOD        ?C?LLDCODE0

  -------         MODULE        ?C?LSTXDATA
  C:1C75H         PUBLIC        ?C?LSTXDATA
  -------         ENDMOD        ?C?LSTXDATA

  -------         MODULE        ?C?LSTKXDATA
  C:1C81H         PUBLIC        ?C?LSTKXDATA
  -------         ENDMOD        ?C?LSTKXDATA

  -------         MODULE        ?C?PLDIXDATA
  C:1CB2H         PUBLIC        ?C?PLDIXDATA
  -------         ENDMOD        ?C?PLDIXDATA

  -------         MODULE        ?C?PSTXDATA
  C:1CC9H         PUBLIC        ?C?PSTXDATA
  -------         ENDMOD        ?C?PSTXDATA

  -------         MODULE        ?C?CCASE
  C:1CD2H         PUBLIC        ?C?CCASE
  -------         ENDMOD        ?C?CCASE

  -------         MODULE        STRCAT
  X:0046H         PUBLIC        ?_strcat?BYTE
  C:AC53H         PUBLIC        _strcat
  -------         ENDMOD        STRCAT

  -------         MODULE        ?C?STRCMP
  C:1E76H         PUBLIC        ?C?STRCMP
  -------         ENDMOD        ?C?STRCMP

  -------         MODULE        ?C?STRCPY
  C:1F5FH         PUBLIC        ?C?STRCPY
  -------         ENDMOD        ?C?STRCPY

  -------         MODULE        STRLEN
  C:000EH         PUBLIC        _STRLEN
  -------         ENDMOD        STRLEN

  -------         MODULE        STRTOK
  X:0064H         PUBLIC        ?_strtok?BYTE
  C:8385H         PUBLIC        _strtok
  -------         ENDMOD        STRTOK

  -------         MODULE        ATOL
  C:76CEH         PUBLIC        _atol
  -------         ENDMOD        ATOL

  -------         MODULE        ATOI
  C:8623H         PUBLIC        _atoi
  -------         ENDMOD        ATOI

BL51 BANKED LINKER/LOCATER V6.22.2.0                                                  09/07/2021  11:24:22  PAGE 140


  -------         MODULE        ?C?ILDIX
  C:1F7CH         PUBLIC        ?C?ILDIX
  -------         ENDMOD        ?C?ILDIX

  -------         MODULE        ?C?LMUL
  C:1F92H         PUBLIC        ?C?LMUL
  -------         ENDMOD        ?C?LMUL

  -------         MODULE        ISDIGIT
  C:BDB3H         PUBLIC        _isdigit
  -------         ENDMOD        ISDIGIT

  -------         MODULE        ISSPACE
  C:BD03H         PUBLIC        _isspace
  -------         ENDMOD        ISSPACE

  -------         MODULE        STRSPN
  X:006AH         PUBLIC        ?_strspn?BYTE
  C:A5FBH         PUBLIC        _strspn
  -------         ENDMOD        STRSPN

  -------         MODULE        STRPBRK
  X:006AH         PUBLIC        ?_strpbrk?BYTE
  C:A805H         PUBLIC        _strpbrk
  -------         ENDMOD        STRPBRK

Program Size: data=99.1 xdata=543 code=48697
LINK/LOCATE RUN COMPLETE.  0 WARNING(S),  0 ERROR(S)
