BL51 BANKED LINKER/LOCATER V6.22.2.0                                                    09/02/2021  16:32:27  PAGE 1


BL51 BANKED LINKER/LOCATER V6.22.2.0, INVOKED BY:
C:\KEIL_V5\C51\BIN\BL51.EXE .\Objects\main.obj, .\Objects\Accescan.obj, .\Objects\Clock.obj, .\Objects\delay.obj, .\Obje
>> cts\eeprom.obj, .\Objects\io_sensores.obj, .\Objects\pantallas.obj, .\Objects\prog.obj, .\Objects\pto_paralelo.obj, .
>> \Objects\tibbo.obj, .\Objects\uart.obj, .\Objects\lintech.obj, .\Objects\verificador.obj, .\Objects\Monitor.obj TO .\
>> Objects\expedidor_v_101 PRINT (.\Listings\expedidor_v_101.m51) RAMSIZE (256)


MEMORY MODEL: LARGE WITH FLOATING POINT ARITHMETIC


INPUT MODULES INCLUDED:
  .\Objects\main.obj (MAIN)
  .\Objects\Accescan.obj (ACCESCAN)
  .\Objects\Clock.obj (CLOCK)
  .\Objects\delay.obj (DELAY)
  .\Objects\eeprom.obj (EEPROM)
  .\Objects\io_sensores.obj (IO_SENSORES)
  .\Objects\pantallas.obj (PANTALLAS)
  .\Objects\prog.obj (PROG)
  .\Objects\pto_paralelo.obj (PTO_PARALELO)
  .\Objects\tibbo.obj (TIBBO)
  .\Objects\uart.obj (UART)
  .\Objects\lintech.obj (LINTECH)
  .\Objects\verificador.obj (VERIFICADOR)
  .\Objects\Monitor.obj (MONITOR)
  C:\KEIL_V5\C51\LIB\C51FPL.LIB (?C?FPADD)
  C:\KEIL_V5\C51\LIB\C51FPL.LIB (?C?FPMUL)
  C:\KEIL_V5\C51\LIB\C51FPL.LIB (?C?FCAST)
  C:\KEIL_V5\C51\LIB\C51FPL.LIB (?C?CASTF)
  C:\KEIL_V5\C51\LIB\C51FPL.LIB (PRINTF)
  C:\KEIL_V5\C51\LIB\C51FPL.LIB (POW)
  C:\KEIL_V5\C51\LIB\C51FPL.LIB (?C?FPGETOPN)
  C:\KEIL_V5\C51\LIB\C51FPL.LIB (?C?CHKFLOAT)
  C:\KEIL_V5\C51\LIB\C51FPL.LIB (?C?FPCMP)
  C:\KEIL_V5\C51\LIB\C51FPL.LIB (?C?FPNEG)
  C:\KEIL_V5\C51\LIB\C51FPL.LIB (?C?FPROUND)
  C:\KEIL_V5\C51\LIB\C51FPL.LIB (?C?FPCONVERT)
  C:\KEIL_V5\C51\LIB\C51FPL.LIB (EXP)
  C:\KEIL_V5\C51\LIB\C51FPL.LIB (LOG)
  C:\KEIL_V5\C51\LIB\C51FPL.LIB (?C?FPDIV)
  C:\KEIL_V5\C51\LIB\C51FPL.LIB (?C?FTNPWR)
  C:\KEIL_V5\C51\LIB\C51FPL.LIB (?C?FPSERIES)
  C:\KEIL_V5\C51\LIB\C51L.LIB (?C_STARTUP)
  C:\KEIL_V5\C51\LIB\C51L.LIB (?C?COPY)
  C:\KEIL_V5\C51\LIB\C51L.LIB (?C?CLDPTR)
  C:\KEIL_V5\C51\LIB\C51L.LIB (?C?CLDOPTR)
  C:\KEIL_V5\C51\LIB\C51L.LIB (?C?CSTPTR)
  C:\KEIL_V5\C51\LIB\C51L.LIB (?C?CSTOPTR)
  C:\KEIL_V5\C51\LIB\C51L.LIB (?C?IMUL)
  C:\KEIL_V5\C51\LIB\C51L.LIB (?C?IILDX)
  C:\KEIL_V5\C51\LIB\C51L.LIB (?C?LNEG)
  C:\KEIL_V5\C51\LIB\C51L.LIB (?C?SLCMP)
  C:\KEIL_V5\C51\LIB\C51L.LIB (?C?ULCMP)
  C:\KEIL_V5\C51\LIB\C51L.LIB (?C?ULSHR)
  C:\KEIL_V5\C51\LIB\C51L.LIB (?C?LSHL)
  C:\KEIL_V5\C51\LIB\C51L.LIB (?C?LLDCODE)
  C:\KEIL_V5\C51\LIB\C51L.LIB (?C?LLDXDATA0)
  C:\KEIL_V5\C51\LIB\C51L.LIB (?C?LLDCODE0)
BL51 BANKED LINKER/LOCATER V6.22.2.0                                                  09/02/2021  16:32:27  PAGE 2


  C:\KEIL_V5\C51\LIB\C51L.LIB (?C?LSTXDATA)
  C:\KEIL_V5\C51\LIB\C51L.LIB (?C?LSTKXDATA)
  C:\KEIL_V5\C51\LIB\C51L.LIB (?C?PLDIXDATA)
  C:\KEIL_V5\C51\LIB\C51L.LIB (?C?PSTXDATA)
  C:\KEIL_V5\C51\LIB\C51L.LIB (?C?CCASE)
  C:\KEIL_V5\C51\LIB\C51L.LIB (STRCAT)
  C:\KEIL_V5\C51\LIB\C51L.LIB (?C?STRCMP)
  C:\KEIL_V5\C51\LIB\C51L.LIB (?C?STRCPY)
  C:\KEIL_V5\C51\LIB\C51L.LIB (STRLEN)
  C:\KEIL_V5\C51\LIB\C51L.LIB (STRTOK)
  C:\KEIL_V5\C51\LIB\C51L.LIB (ATOL)
  C:\KEIL_V5\C51\LIB\C51L.LIB (ATOI)
  C:\KEIL_V5\C51\LIB\C51L.LIB (?C_INIT)
  C:\KEIL_V5\C51\LIB\C51L.LIB (?C?ILDIX)
  C:\KEIL_V5\C51\LIB\C51L.LIB (?C?LMUL)
  C:\KEIL_V5\C51\LIB\C51L.LIB (ISDIGIT)
  C:\KEIL_V5\C51\LIB\C51L.LIB (ISSPACE)
  C:\KEIL_V5\C51\LIB\C51L.LIB (STRSPN)
  C:\KEIL_V5\C51\LIB\C51L.LIB (STRPBRK)


LINK MAP OF MODULE:  .\Objects\expedidor_v_101 (MAIN)


            TYPE    BASE      LENGTH    RELOCATION   SEGMENT NAME
            -----------------------------------------------------

            * * * * * * *   D A T A   M E M O R Y   * * * * * * *
            REG     0000H     0008H     ABSOLUTE     "REG BANK 0"
            DATA    0008H     0005H     UNIT         _DATA_GROUP_
            DATA    000DH     0004H     UNIT         ?DT?UART
            IDATA   0011H     0009H     UNIT         ?ID?MONITOR
                    001AH     0006H                  *** GAP ***
            BIT     0020H.0   0001H.1   UNIT         _BIT_GROUP_
            BIT     0021H.1   0000H.3   UNIT         ?BI?MAIN
            BIT     0021H.4   0000H.2   UNIT         ?BI?UART
            BIT     0021H.6   0000H.1   UNIT         ?BI?EEPROM
            BIT     0021H.7   0000H.1   UNIT         ?BI?IO_SENSORES
            BIT     0022H.0   0000H.1   UNIT         ?BI?VERIFICADOR
                    0022H.1   0000H.7                *** GAP ***
            IDATA   0023H     0046H     UNIT         ?ID?MAIN
            IDATA   0069H     0001H     UNIT         ?STACK

            * * * * * * *  X D A T A   M E M O R Y  * * * * * * *
            XDATA   0000H     00B7H     UNIT         _XDATA_GROUP_
            XDATA   00B7H     0091H     UNIT         ?XD?VERIFICADOR
            XDATA   0148H     006EH     UNIT         ?XD?MAIN
            XDATA   01B6H     005CH     UNIT         ?XD?PROG
            XDATA   0212H     0003H     UNIT         ?XD?EEPROM
            XDATA   0215H     0003H     UNIT         ?XD?UART
            XDATA   0218H     0003H     UNIT         ?XD?STRTOK
            XDATA   021BH     0002H     UNIT         ?XD?IO_SENSORES
            XDATA   021DH     0001H     UNIT         ?XD?ACCESCAN
            XDATA   021EH     0001H     UNIT         ?XD?CLOCK

            * * * * * * *   C O D E   M E M O R Y   * * * * * * *
            CODE    0000H     0003H     ABSOLUTE     
BL51 BANKED LINKER/LOCATER V6.22.2.0                                                  09/02/2021  16:32:27  PAGE 3


            CODE    0003H     0008H     UNIT         ?PR?P_CK?CLOCK
            CODE    000BH     0003H     ABSOLUTE     
            CODE    000EH     0015H     UNIT         ?PR?_STRLEN?STRLEN
            CODE    0023H     0003H     ABSOLUTE     
            CODE    0026H     1430H     UNIT         ?CO?PROG
            CODE    1456H     0B8BH     UNIT         ?C?LIB_CODE
            CODE    1FE1H     0747H     UNIT         ?PR?_PANTALLALCD?PANTALLAS
            CODE    2728H     06EFH     UNIT         ?CO?PANTALLAS
            CODE    2E17H     0690H     UNIT         ?CO?VERIFICADOR
            CODE    34A7H     053DH     UNIT         ?PR?_VALIDA_TRAMA_PTO?ACCESCAN
            CODE    39E4H     04CFH     UNIT         ?PR?_SECUENCIAEXPEDIDORMF?VERIFICADOR
            CODE    3EB3H     0483H     UNIT         ?PR?PRINTF?PRINTF
            CODE    4336H     03C8H     UNIT         ?PR?VER_PROG?PROG
            CODE    46FEH     02D0H     UNIT         ?PR?_TWO_BYTEHEX_DECIMAL?CLOCK
            CODE    49CEH     02B7H     UNIT         ?PR?_PROG_HORARIO_DIAS?PROG
            CODE    4C85H     02A5H     UNIT         ?PR?_PANTALLALCD_LINEA_2?PANTALLAS
            CODE    4F2AH     02A3H     UNIT         ?PR?_ARMAR_TRAMA_MONITOR?VERIFICADOR
            CODE    51CDH     0256H     UNIT         ?PR?_ARMAR_TRAMA_PTO_PARALELO_EXPEDIDOR?VERIFICADOR
            CODE    5423H     0254H     UNIT         ?PR?MENU?PROG
            CODE    5677H     0208H     UNIT         ?PR?_HASH_ID?PROG
            CODE    587FH     01FAH     UNIT         ?PR?_PROG_HORARIO_DESDE_HASTA?PROG
            CODE    5A79H     01F5H     UNIT         ?PR?PROG_FECHA_VENCIMIENTO?PROG
            CODE    5C6EH     01F5H     UNIT         ?PR?COM_ISR?UART
            CODE    5E63H     01EBH     UNIT         ?PR?_ARMAR_TRAMA_TARJETA_SECTOR1_BLOQUE2?VERIFICADOR
            CODE    604EH     01DDH     UNIT         ?PR?_RESPONDE_LECTURA_TARJETA_SECTOR1_BLOQUE1?VERIFICADOR
            CODE    622BH     01D8H     UNIT         ?PR?_BLOCK_READ_CLOCK_ASCII_RASBERRY?CLOCK
            CODE    6403H     01A3H     UNIT         ?CO?LINTECH
            CODE    65A6H     016EH     UNIT         ?PR?_BLOCK_READ_CLOCK_ASCII?CLOCK
            CODE    6714H     0166H     UNIT         ?PR?_POW?POW
            CODE    687AH     014FH     UNIT         ?PR?_RESPONDE_REELECTURA_TARJETA_SECTOR1_BLOQUE2?VERIFICADOR
            CODE    69C9H     0145H     UNIT         ?PR?PROG_HORARIOS?PROG
            CODE    6B0EH     013EH     UNIT         ?PR?PROG_SIN_COBRO?PROG
            CODE    6C4CH     013EH     UNIT         ?PR?SECUENCIA_INICIO_EXPEDIDOR?VERIFICADOR
            CODE    6D8AH     013CH     UNIT         ?PR?LOAD_AND_SEND_ID_COD?PTO_PARALELO
            CODE    6EC6H     0137H     UNIT         ?PR?VER_HORARIO?PROG
            CODE    6FFDH     012EH     UNIT         ?PR?_ARMAR_TRAMA_PTO_PARALELO_EXPEDIDOR_MENSUAL?VERIFICADOR
            CODE    712BH     0129H     UNIT         ?PR?_RESPONDE_LECTURA_TARJETA_SECTOR1_BLOQUE2?VERIFICADOR
            CODE    7254H     0129H     UNIT         ?PR?LOG?LOG
            CODE    737DH     0128H     UNIT         ?PR?_VER_HORARIO_DIAS?PROG
            CODE    74A5H     011AH     UNIT         ?PR?_PROG_HORARIOS_ON_OFF?PROG
            CODE    75BFH     0119H     UNIT         ?PR?_VER_HORARIO_DESDE_HASTA?PROG
            CODE    76D8H     0115H     UNIT         ?PR?_VALIDAR_CLK?CLOCK
            CODE    77EDH     010CH     UNIT         ?PR?_ATOL?ATOL
            CODE    78F9H     0100H     UNIT         ?PR?_WR_MF?LINTECH
            CODE    79F9H     00FCH     UNIT         ?PR?PROG_DEBUG?PROG
            CODE    7AF5H     00FCH     UNIT         ?PR?PROG_USE_LPR?PROG
            CODE    7BF1H     00FCH     UNIT         ?PR?TIPO_PANTALLA?PROG
            CODE    7CEDH     00FCH     UNIT         ?PR?PROG_ANTIPASSBACK?PROG
            CODE    7DE9H     00FCH     UNIT         ?PR?PROG_PLACA?PROG
            CODE    7EE5H     00FCH     UNIT         ?PR?PROG_VALIDAR_TIPO_VEHICULO_MENSUAL?PROG
            CODE    7FE1H     00FCH     UNIT         ?PR?PROG_APB_MENSUAL?PROG
            CODE    80DDH     00FCH     UNIT         ?PR?PROG_MENSUALES?PROG
            CODE    81D9H     00F1H     UNIT         ?PR?_WRITE_EEPROM_TICKET?EEPROM
            CODE    82CAH     00F0H     UNIT         ?CO?IO_SENSORES
            CODE    83BAH     00EAH     UNIT         ?PR?_MOV_CARD?LINTECH
            CODE    84A4H     00E4H     UNIT         ?PR?_STRTOK?STRTOK
            CODE    8588H     00DEH     UNIT         ?PR?PROG_ADDRESS_HIGH_BOARD?PROG
BL51 BANKED LINKER/LOCATER V6.22.2.0                                                  09/02/2021  16:32:27  PAGE 4


            CODE    8666H     00DCH     UNIT         ?PR?_RTA_CMD_TRANSPORTE?VERIFICADOR
            CODE    8742H     00DBH     UNIT         ?PR?_ATOI?ATOI
            CODE    881DH     00DAH     UNIT         ?C_INITSEG
            CODE    88F7H     00DAH     UNIT         ?PR?_VALIDA_TIPO_TARJETA?VERIFICADOR
            CODE    89D1H     00D7H     UNIT         ?PR?_ANALIZA_UID_CARD?VERIFICADOR
            CODE    8AA8H     00D6H     UNIT         ?PR?_CMD_LPR_SALIDA_WIEGAND?ACCESCAN
            CODE    8B7EH     00CFH     UNIT         ?PR?_RECIBE_CMD_MONITOR?MONITOR
            CODE    8C4DH     00CCH     UNIT         ?PR?_GRABA_SERIE?EEPROM
            CODE    8D19H     00CAH     UNIT         ?PR?READ_EEPROM_TICKET?EEPROM
            CODE    8DE3H     00C9H     UNIT         ?PR?_CHECK_FECHAOUT?CLOCK
            CODE    8EACH     00C4H     UNIT         ?PR?_BLOCK_READ_CLOCK?CLOCK
            CODE    8F70H     00C3H     UNIT         ?PR?_RD_MF?LINTECH
            CODE    9033H     00C2H     UNIT         ?PR?PROG_TARJETA_AUTOMATICA_O_BOTON?PROG
            CODE    90F5H     00BEH     UNIT         ?PR?ERROR_RX_PTO?VERIFICADOR
            CODE    91B3H     00BDH     UNIT         ?PR?PROG_COD_PARK?PROG
            CODE    9270H     00BDH     UNIT         ?PR?PROG_TIEMPO_GRACIA?PROG
            CODE    932DH     00BDH     UNIT         ?PR?_VALIDA_TRAMA_MONITOR?MONITOR
            CODE    93EAH     00B9H     UNIT         ?CO?TIBBO
            CODE    94A3H     00B6H     UNIT         ?PR?PROG_ID_CLIENTE?PROG
            CODE    9559H     00B2H     UNIT         ?PR?_SEND_PORT?PTO_PARALELO
            CODE    960BH     00AFH     UNIT         ?PR?MSJ_LCD_INFORMATIVO?IO_SENSORES
            CODE    96BAH     00AAH     UNIT         ?PR?CLAVE_SEGURIDAD_S2?LINTECH
            CODE    9764H     00A9H     UNIT         ?PR?DWLOAD_EEPROM?LINTECH
            CODE    980DH     00A6H     UNIT         ?PR?_BLOCK_READ_CLOCK_HEX?CLOCK
            CODE    98B3H     00A5H     UNIT         ?PR?_SEND_PTO_PARALELO?VERIFICADOR
            CODE    9958H     00A2H     UNIT         ?PR?SHOW?PROG
            CODE    99FAH     00A1H     UNIT         ?PR?_BLOCK_WRITE_CLOCK_ASCII?CLOCK
            CODE    9A9BH     009EH     UNIT         ?PR?INGRESO_VEHICULO?VERIFICADOR
            CODE    9B39H     009DH     UNIT         ?PR?_INICIALIZA?LINTECH
            CODE    9BD6H     009BH     UNIT         ?PR?ENTREGA_CARD_CAPTURA?VERIFICADOR
            CODE    9C71H     009AH     UNIT         ?PR?EXP?EXP
            CODE    9D0BH     0099H     UNIT         ?PR?_RECIBE_PORT?PTO_PARALELO
            CODE    9DA4H     0098H     UNIT         ?PR?_RESPONDE_LECTURA_TARJETA_SECTOR1_BLOQUE0?VERIFICADOR
            CODE    9E3CH     0091H     UNIT         ?PR?_HEX_ASCII?CLOCK
            CODE    9ECDH     0091H     UNIT         ?PR?_CARD_INSERCION?LINTECH
            CODE    9F5EH     0090H     UNIT         ?PR?_LEE_CLK?CLOCK
            CODE    9FEEH     0090H     UNIT         ?PR?_GETOPTION?PROG
            CODE    A07EH     0090H     UNIT         ?PR?_DISPARO_LOCK_ENTRADA_VEHICULO?VERIFICADOR
            CODE    A10EH     008DH     UNIT         ?PR?LOADVERIFY_EEPROM?LINTECH
            CODE    A19BH     008DH     UNIT         ?PR?WAIT_PLACA?VERIFICADOR
            CODE    A228H     008CH     UNIT         ?C_C51STARTUP
            CODE    A2B4H     0088H     UNIT         ?PR?_SEND_PORTERR?PTO_PARALELO
            CODE    A33CH     0088H     UNIT         ?PR?RX_DATA?TIBBO
            CODE    A3C4H     0088H     UNIT         ?PR?UNIQUE_IDENTIFIER_UID?LINTECH
            CODE    A44CH     0087H     UNIT         ?PR?_RESPONDE_WRITE_TARJETA_SECTOR1_BLOQUE2?VERIFICADOR
            CODE    A4D3H     0086H     UNIT         ?PR?_CHECK_STATUS?LINTECH
            CODE    A559H     0084H     UNIT         ?PR?_DEBUGBUFFERMF?TIBBO
            CODE    A5DDH     0084H     UNIT         ?PR?_ARMAR_TRAMA_PLACA?VERIFICADOR
            CODE    A661H     0084H     UNIT         ?PR?_STRSPN?STRSPN
            CODE    A6E5H     0083H     UNIT         ?PR?_RASPBERRY_DATA?PANTALLAS
            CODE    A768H     0082H     UNIT         ?PR?RESPONDE_TIPO_TARJETA?VERIFICADOR
            CODE    A7EAH     0081H     UNIT         ?PR?MAIN?MAIN
            CODE    A86BH     0081H     UNIT         ?PR?_STRPBRK?STRPBRK
            CODE    A8ECH     0080H     UNIT         ?PR?_INGRESADATO?PROG
            CODE    A96CH     0080H     UNIT         ?PR?AUT_CARD_CHECK_STATUS?LINTECH
            CODE    A9ECH     0080H     UNIT         ?PR?POWER_OFF?LINTECH
            CODE    AA6CH     007DH     UNIT         ?PR?RELOJ_PANTALLA_LCD?PANTALLAS
BL51 BANKED LINKER/LOCATER V6.22.2.0                                                  09/02/2021  16:32:27  PAGE 5


            CODE    AAE9H     0078H     UNIT         ?PR?RESPONDE_ESTADO_SENSORES_TRANSPORTE?VERIFICADOR
            CODE    AB61H     0075H     UNIT         ?PR?RESPUESTA_PLACA_CANCEL?VERIFICADOR
            CODE    ABD6H     0074H     UNIT         ?PR?_HORA_ENTRADA_VEHICULO?CLOCK
            CODE    AC4AH     006FH     UNIT         ?PR?_ESCRIBIRMEMORIA?EEPROM
            CODE    ACB9H     006BH     UNIT         ?PR?_STRCAT?STRCAT
            CODE    AD24H     0066H     UNIT         ?PR?_LEERMEMORIA?EEPROM
            CODE    AD8AH     0062H     UNIT         ?PR?_LISTACOMANDOS?PROG
            CODE    ADECH     005EH     UNIT         ?PR?_BYTEHEX_DECIMAL?CLOCK
            CODE    AE4AH     005DH     UNIT         ?PR?_PREGUNTA_LPR?VERIFICADOR
            CODE    AEA7H     005DH     UNIT         ?PR?_RESPUESTA_SEGUNDA_CLAVE?VERIFICADOR
            CODE    AF04H     005BH     UNIT         ?PR?VALIDA_SENSOR1_AUTO?IO_SENSORES
            CODE    AF5FH     0056H     UNIT         ?PR?_WR_EEPROM?EEPROM
            CODE    AFB5H     004FH     UNIT         ?PR?_DEBUG_BUFFER_RS232_LCD?TIBBO
            CODE    B004H     004DH     UNIT         ?PR?VARIABLE_INICIO?MAIN
            CODE    B051H     004DH     UNIT         ?PR?L_D_M?EEPROM
            CODE    B09EH     004CH     UNIT         ?PR?LEE_NO_TICKET?EEPROM
            CODE    B0EAH     004CH     UNIT         ?PR?LOAD_AND_SEND_INFO_RELOJ?PTO_PARALELO
            CODE    B136H     004BH     UNIT         ?PR?_TX_AUX?TIBBO
            CODE    B181H     0049H     UNIT         ?PR?_DEBUG_TXT_TIBBO?TIBBO
            CODE    B1CAH     0048H     UNIT         ?PR?FIRST_CLAVE?PROG
            CODE    B212H     0047H     UNIT         ?PR?_DEBUG_CHR_TIBBO?TIBBO
            CODE    B259H     0047H     UNIT         ?PR?_DEBUG_CHR_RS232_LCD?TIBBO
            CODE    B2A0H     0047H     UNIT         ?PR?_RESPONDE_WRITE_TARJETA_SECTOR2_BLOQUE0?VERIFICADOR
            CODE    B2E7H     0046H     UNIT         ?PR?_ESCRIBIRCADENASOFT_BUFFER?MAIN
            CODE    B32DH     0046H     UNIT         ?PR?_LCD_TXT_NUM_CHAR?PANTALLAS
            CODE    B373H     0046H     UNIT         ?PR?_DEBUG_HEXDEC?TIBBO
            CODE    B3B9H     0044H     UNIT         ?PR?_LCD_TXT?PANTALLAS
            CODE    B3FDH     0043H     UNIT         ?PR?DIR_BOARD?IO_SENSORES
            CODE    B440H     0042H     UNIT         ?PR?_VALIDARCLAVE?PROG
            CODE    B482H     0041H     UNIT         ?PR?_MONITOR_CHR?ACCESCAN
            CODE    B4C3H     0041H     UNIT         ?PR?_TWO_ONE?CLOCK
            CODE    B504H     0041H     UNIT         ?PR?COM_BAUDRATE?UART
            CODE    B545H     0040H     UNIT         ?PR?_GETCMD?PROG
            CODE    B585H     0040H     UNIT         ?PR?_DEBUG_PTO_PARALELO?TIBBO
            CODE    B5C5H     003FH     UNIT         ?PR?_EB_CLK?CLOCK
            CODE    B604H     003EH     UNIT         ?PR?_PUTCHAR?MAIN
            CODE    B642H     003EH     UNIT         ?PR?TRAMA_VALIDACION_P_N?VERIFICADOR
            CODE    B680H     003DH     UNIT         ?PR?_HEX_BCD?CLOCK
            CODE    B6BDH     003DH     UNIT         ?PR?_RD_EEPROM?EEPROM
            CODE    B6FAH     003DH     UNIT         ?PR?_DEBUG_MONITOR?TIBBO
            CODE    B737H     003DH     UNIT         ?PR?_LOAD_SECUENCIA_EXPEDIDOR?VERIFICADOR
            CODE    B774H     003BH     UNIT         ?CO?ACCESCAN
            CODE    B7AFH     003BH     UNIT         ?CO?EEPROM
            CODE    B7EAH     003BH     UNIT         ?PR?_COM_PUTCHAR?UART
            CODE    B825H     003AH     UNIT         ?PR?_DELAY_10MS?DELAY
            CODE    B85FH     0039H     UNIT         ?PR?RX_MONITOR?MONITOR
            CODE    B898H     0038H     UNIT         ?PR?VALIDASENSORESPASO?IO_SENSORES
            CODE    B8D0H     0038H     UNIT         ?PR?_DEBUG_TXT_RS232?TIBBO
            CODE    B908H     0036H     UNIT         ?PR?_RESPONDE_WRITE_TARJETA_SECTOR1_BLOQUE1?VERIFICADOR
            CODE    B93EH     0036H     UNIT         ?PR?_RESPONDE_WRITE_TARJETA_SECTOR1_BLOQUE0?VERIFICADOR
            CODE    B974H     0034H     UNIT         ?PR?INCREMENTE_TICKET?EEPROM
            CODE    B9A8H     0034H     UNIT         ?PR?ADDR_HORARIOS?PROG
            CODE    B9DCH     0031H     UNIT         ?PR?_TARJETA_ROTACION?VERIFICADOR
            CODE    BA0DH     0030H     UNIT         ?PR?PREGUNTA_PLACA_HABILITADA?VERIFICADOR
            CODE    BA3DH     0030H     UNIT         ?PR?_ARMAR_TRAMA_TARJETA_SECTOR1_BLOQUE0?VERIFICADOR
            CODE    BA6DH     002EH     UNIT         ?PR?TIMER0_INT?MAIN
            CODE    BA9BH     002AH     UNIT         ?PR?COM_INITIALIZE?UART
BL51 BANKED LINKER/LOCATER V6.22.2.0                                                  09/02/2021  16:32:27  PAGE 6


            CODE    BAC5H     002AH     UNIT         ?PR?ANALIZA_PRESENCIA_ROTACION?VERIFICADOR
            CODE    BAEFH     0028H     UNIT         ?PR?_WR_CLK?CLOCK
            CODE    BB17H     0027H     UNIT         ?PR?_TX_CHRLCD?PANTALLAS
            CODE    BB3EH     0026H     UNIT         ?PR?COM_GETCHAR?UART
            CODE    BB64H     0022H     UNIT         ?PR?_E_D_M?EEPROM
            CODE    BB86H     0022H     UNIT         ?PR?VALIDASENSOR_CERO?IO_SENSORES
            CODE    BBA8H     0021H     UNIT         ?CO?PTO_PARALELO
            CODE    BBC9H     0020H     UNIT         ?PR?ACKD?EEPROM
            CODE    BBE9H     0020H     UNIT         ?PR?ACK_LECT?EEPROM
            CODE    BC09H     001FH     UNIT         ?PR?VALIDASENSOR?IO_SENSORES
            CODE    BC28H     001EH     UNIT         ?PR?_BCD_HEX?CLOCK
            CODE    BC46H     001BH     UNIT         ?PR?_DELAY_1MS?DELAY
            CODE    BC61H     001AH     UNIT         ?PR?CLEAR_PLACA?MONITOR
            CODE    BC7BH     0017H     UNIT         ?PR?DISPLAYCURSOR?PROG
            CODE    BC92H     0016H     UNIT         ?PR?DIR_BOARD_MONITOR?IO_SENSORES
            CODE    BCA8H     0016H     UNIT         ?PR?TIME_BIT?TIBBO
            CODE    BCBEH     0014H     UNIT         ?CO?CLOCK
            CODE    BCD2H     0014H     UNIT         ?PR?_ISSPACE?ISSPACE
            CODE    BCE6H     0012H     UNIT         ?PR?_DELAY_20US?DELAY
            CODE    BCF8H     0012H     UNIT         ?PR?START?EEPROM
            CODE    BD0AH     0012H     UNIT         ?PR?BOTTON?IO_SENSORES
            CODE    BD1CH     0012H     UNIT         ?PR?PULSO_BUS?PTO_PARALELO
            CODE    BD2EH     0012H     UNIT         ?PR?COM_RBUFLEN?UART
            CODE    BD40H     0012H     UNIT         ?PR?COM_TBUFLEN?UART
            CODE    BD52H     0010H     UNIT         ?PR?INI_TIMER?MAIN
            CODE    BD62H     0010H     UNIT         ?PR?INICIA_BOARD?MAIN
            CODE    BD72H     0010H     UNIT         ?PR?TIME_MBIT?TIBBO
            CODE    BD82H     000FH     UNIT         ?PR?_ISDIGIT?ISDIGIT
            CODE    BD91H     000CH     UNIT         ?PR?_GETKEY?MAIN
            CODE    BD9DH     000AH     UNIT         ?PR?STOP?EEPROM
            CODE    BDA7H     000AH     UNIT         ?PR?COND_INI_PTO?PTO_PARALELO
            CODE    BDB1H     0009H     UNIT         ?PR?DEBUG_DIVIDIR_TEXTO?TIBBO
            CODE    BDBAH     0007H     UNIT         ?PR?COND_INI_CLOCK?CLOCK
            CODE    BDC1H     0007H     UNIT         ?PR?SEL_FUNCION?IO_SENSORES
            CODE    BDC8H     0007H     UNIT         ?PR?SEL_AUTO?IO_SENSORES
            CODE    BDCFH     0007H     UNIT         ?PR?SEL_PULSA?IO_SENSORES
            CODE    BDD6H     0007H     UNIT         ?PR?SEL_SENSOR2?IO_SENSORES
            CODE    BDDDH     0007H     UNIT         ?PR?SEL_SENSOR1?IO_SENSORES
            CODE    BDE4H     0007H     UNIT         ?PR?SEL_DIR1?IO_SENSORES
            CODE    BDEBH     0007H     UNIT         ?PR?SEL_DIR2?IO_SENSORES
            CODE    BDF2H     0006H     UNIT         ?PR?P_ME?EEPROM
            CODE    BDF8H     0005H     UNIT         ?PR?ON_TIMER0_INTERRUP?MAIN
            CODE    BDFDH     0005H     UNIT         ?PR?COND_INI_TIBBO?TIBBO
            CODE    BE02H     0003H     UNIT         ?PR?OFF_TIMER0_INTERRUP?MAIN
            CODE    BE05H     0001H     UNIT         ?PR?DELAY?DELAY



OVERLAY MAP OF MODULE:   .\Objects\expedidor_v_101 (MAIN)


SEGMENT                                             BIT_GROUP          DATA_GROUP          XDATA_GROUP
  +--> CALLED SEGMENT                            START    LENGTH     START    LENGTH     START    LENGTH
--------------------------------------------------------------------------------------------------------
?C_C51STARTUP                                    -----    -----      -----    -----      -----    -----
  +--> ?PR?MAIN?MAIN
  +--> ?C_INITSEG
BL51 BANKED LINKER/LOCATER V6.22.2.0                                                  09/02/2021  16:32:27  PAGE 7



?PR?MAIN?MAIN                                    -----    -----      -----    -----      0000H    0001H
  +--> ?PR?INI_TIMER?MAIN
  +--> ?PR?ON_TIMER0_INTERRUP?MAIN
  +--> ?PR?COM_INITIALIZE?UART
  +--> ?PR?COM_BAUDRATE?UART
  +--> ?PR?INICIA_BOARD?MAIN
  +--> ?PR?TIME_BIT?TIBBO
  +--> ?PR?_DELAY_20US?DELAY
  +--> ?PR?TIME_MBIT?TIBBO
  +--> ?PR?_TX_AUX?TIBBO
  +--> ?PR?SEL_FUNCION?IO_SENSORES
  +--> ?PR?MENU?PROG
  +--> ?PR?VARIABLE_INICIO?MAIN
  +--> ?PR?SECUENCIA_INICIO_EXPEDIDOR?VERIFI...
  +--> ?PR?RX_MONITOR?MONITOR
  +--> ?PR?_SECUENCIAEXPEDIDORMF?VERIFICADOR
  +--> ?PR?_RECIBE_PORT?PTO_PARALELO
  +--> ?PR?_DEBUG_PTO_PARALELO?TIBBO
  +--> ?PR?_VALIDA_TRAMA_PTO?ACCESCAN
  +--> ?PR?MSJ_LCD_INFORMATIVO?IO_SENSORES

?PR?COM_INITIALIZE?UART                          -----    -----      -----    -----      -----    -----
  +--> ?PR?COM_BAUDRATE?UART

?PR?COM_BAUDRATE?UART                            -----    -----      -----    -----      -----    -----
  +--> ?PR?_RD_EEPROM?EEPROM
  +--> ?PR?_WR_EEPROM?EEPROM

?PR?_RD_EEPROM?EEPROM                            -----    -----      -----    -----      -----    -----
  +--> ?PR?START?EEPROM
  +--> ?PR?ACK_LECT?EEPROM
  +--> ?PR?_E_D_M?EEPROM
  +--> ?PR?ACKD?EEPROM
  +--> ?PR?L_D_M?EEPROM
  +--> ?PR?STOP?EEPROM

?PR?ACK_LECT?EEPROM                              -----    -----      -----    -----      -----    -----
  +--> ?PR?_E_D_M?EEPROM

?PR?_E_D_M?EEPROM                                -----    -----      -----    -----      -----    -----
  +--> ?PR?P_ME?EEPROM

?PR?ACKD?EEPROM                                  -----    -----      -----    -----      -----    -----
  +--> ?PR?_E_D_M?EEPROM

?PR?_WR_EEPROM?EEPROM                            -----    -----      -----    -----      -----    -----
  +--> ?PR?START?EEPROM
  +--> ?PR?ACKD?EEPROM
  +--> ?PR?_E_D_M?EEPROM
  +--> ?PR?STOP?EEPROM
  +--> ?PR?_DELAY_1MS?DELAY
  +--> ?PR?_DELAY_20US?DELAY

?PR?_DELAY_1MS?DELAY                             -----    -----      -----    -----      -----    -----
  +--> ?PR?_DELAY_20US?DELAY

BL51 BANKED LINKER/LOCATER V6.22.2.0                                                  09/02/2021  16:32:27  PAGE 8


?PR?INICIA_BOARD?MAIN                            -----    -----      -----    -----      -----    -----
  +--> ?PR?COND_INI_TIBBO?TIBBO
  +--> ?PR?COND_INI_CLOCK?CLOCK
  +--> ?PR?COND_INI_PTO?PTO_PARALELO

?PR?_TX_AUX?TIBBO                                -----    -----      -----    -----      -----    -----
  +--> ?PR?TIME_BIT?TIBBO

?PR?MENU?PROG                                    -----    -----      -----    -----      0001H    0045H
  +--> ?CO?PROG
  +--> ?PR?PRINTF?PRINTF
  +--> ?PR?_RD_EEPROM?EEPROM
  +--> ?PR?FIRST_CLAVE?PROG
  +--> ?PR?_WR_EEPROM?EEPROM
  +--> ?PR?_LEERMEMORIA?EEPROM
  +--> ?PR?_HASH_ID?PROG
  +--> ?PR?_INGRESADATO?PROG
  +--> ?PR?_GETCMD?PROG
  +--> ?PR?_ESCRIBIRMEMORIA?EEPROM
  +--> ?PR?_VALIDARCLAVE?PROG
  +--> ?PR?DISPLAYCURSOR?PROG
  +--> ?PR?_STRLEN?STRLEN
  +--> ?PR?_GETOPTION?PROG
  +--> ?PR?_STRCAT?STRCAT
  +--> ?PR?_LISTACOMANDOS?PROG
  +--> ?PR?PROG_ID_CLIENTE?PROG
  +--> ?PR?PROG_COD_PARK?PROG
  +--> ?PR?PROG_TIEMPO_GRACIA?PROG
  +--> ?PR?PROG_SIN_COBRO?PROG
  +--> ?PR?PROG_DEBUG?PROG
  +--> ?PR?PROG_USE_LPR?PROG
  +--> ?PR?TIPO_PANTALLA?PROG
  +--> ?PR?PROG_TARJETA_AUTOMATICA_O_BOTON?PROG
  +--> ?PR?PROG_ANTIPASSBACK?PROG
  +--> ?PR?PROG_PLACA?PROG
  +--> ?PR?PROG_ADDRESS_HIGH_BOARD?PROG
  +--> ?PR?PROG_HORARIOS?PROG
  +--> ?PR?PROG_VALIDAR_TIPO_VEHICULO_MENSUA...
  +--> ?PR?PROG_APB_MENSUAL?PROG
  +--> ?PR?PROG_MENSUALES?PROG
  +--> ?PR?VER_PROG?PROG
  +--> ?PR?SHOW?PROG
  +--> ?PR?PROG_FECHA_VENCIMIENTO?PROG

?PR?PRINTF?PRINTF                                0020H.0  0001H.1    0008H    0005H      0077H    0030H
  +--> ?PR?_PUTCHAR?MAIN

?PR?_PUTCHAR?MAIN                                -----    -----      -----    -----      00A7H    0003H
  +--> ?PR?_COM_PUTCHAR?UART

?PR?_COM_PUTCHAR?UART                            -----    -----      -----    -----      00AAH    0001H
  +--> ?PR?COM_TBUFLEN?UART

?PR?FIRST_CLAVE?PROG                             -----    -----      -----    -----      0046H    000BH
  +--> ?PR?_BLOCK_READ_CLOCK_ASCII?CLOCK
  +--> ?PR?_HASH_ID?PROG
  +--> ?PR?_ESCRIBIRMEMORIA?EEPROM
BL51 BANKED LINKER/LOCATER V6.22.2.0                                                  09/02/2021  16:32:27  PAGE 9



?PR?_BLOCK_READ_CLOCK_ASCII?CLOCK                -----    -----      -----    -----      0051H    0003H
  +--> ?PR?_LEE_CLK?CLOCK

?PR?_LEE_CLK?CLOCK                               -----    -----      -----    -----      00B1H    0003H
  +--> ?PR?_DELAY_20US?DELAY
  +--> ?PR?_EB_CLK?CLOCK
  +--> ?PR?P_CK?CLOCK

?PR?_EB_CLK?CLOCK                                -----    -----      -----    -----      00B4H    0003H
  +--> ?PR?P_CK?CLOCK

?PR?P_CK?CLOCK                                   -----    -----      -----    -----      -----    -----
  +--> ?PR?DELAY?DELAY

?PR?_HASH_ID?PROG                                -----    -----      -----    -----      005DH    003FH
  +--> ?CO?PROG
  +--> ?PR?_LEERMEMORIA?EEPROM
  +--> ?PR?_CHECK_FECHAOUT?CLOCK
  +--> ?PR?_STRLEN?STRLEN

?PR?_LEERMEMORIA?EEPROM                          -----    -----      -----    -----      009CH    0005H
  +--> ?PR?_RD_EEPROM?EEPROM

?PR?_CHECK_FECHAOUT?CLOCK                        -----    -----      -----    -----      009CH    0012H
  +--> ?PR?_BLOCK_READ_CLOCK_HEX?CLOCK

?PR?_BLOCK_READ_CLOCK_HEX?CLOCK                  -----    -----      -----    -----      00AEH    0003H
  +--> ?PR?_LEE_CLK?CLOCK
  +--> ?PR?_BCD_HEX?CLOCK

?PR?_ESCRIBIRMEMORIA?EEPROM                      -----    -----      -----    -----      005DH    0005H
  +--> ?PR?_WR_EEPROM?EEPROM

?PR?_INGRESADATO?PROG                            -----    -----      -----    -----      0071H    0004H
  +--> ?PR?_GETKEY?MAIN
  +--> ?CO?PROG
  +--> ?PR?PRINTF?PRINTF
  +--> ?PR?_PUTCHAR?MAIN

?PR?_GETKEY?MAIN                                 -----    -----      -----    -----      -----    -----
  +--> ?PR?COM_GETCHAR?UART

?PR?COM_GETCHAR?UART                             -----    -----      -----    -----      -----    -----
  +--> ?PR?COM_RBUFLEN?UART

?PR?_GETCMD?PROG                                 -----    -----      -----    -----      005DH    0007H
  +--> ?CO?PROG
  +--> ?PR?_STRTOK?STRTOK

?PR?_STRTOK?STRTOK                               -----    -----      -----    -----      0064H    0006H
  +--> ?PR?_STRSPN?STRSPN
  +--> ?PR?_STRPBRK?STRPBRK

?PR?_STRSPN?STRSPN                               -----    -----      -----    -----      006AH    0008H

?PR?_STRPBRK?STRPBRK                             -----    -----      -----    -----      006AH    0009H
BL51 BANKED LINKER/LOCATER V6.22.2.0                                                  09/02/2021  16:32:27  PAGE 10



?PR?_VALIDARCLAVE?PROG                           -----    -----      -----    -----      005DH    000EH

?PR?DISPLAYCURSOR?PROG                           -----    -----      -----    -----      -----    -----
  +--> ?CO?PROG
  +--> ?PR?PRINTF?PRINTF

?PR?_GETOPTION?PROG                              -----    -----      -----    -----      0046H    000BH
  +--> ?CO?PROG
  +--> ?PR?_STRTOK?STRTOK

?PR?_STRCAT?STRCAT                               -----    -----      -----    -----      0046H    0009H

?PR?_LISTACOMANDOS?PROG                          -----    -----      -----    -----      0046H    0007H

?PR?PROG_ID_CLIENTE?PROG                         -----    -----      -----    -----      0046H    000CH
  +--> ?PR?_RD_EEPROM?EEPROM
  +--> ?CO?PROG
  +--> ?PR?PRINTF?PRINTF
  +--> ?PR?_INGRESADATO?PROG
  +--> ?PR?_ATOI?ATOI
  +--> ?PR?_WR_EEPROM?EEPROM

?PR?_ATOI?ATOI                                   0020H.0  0000H.1    -----    -----      0071H    0005H
  +--> ?PR?_ISSPACE?ISSPACE
  +--> ?PR?_ISDIGIT?ISDIGIT

?PR?PROG_COD_PARK?PROG                           -----    -----      -----    -----      0046H    000CH
  +--> ?PR?_RD_EEPROM?EEPROM
  +--> ?CO?PROG
  +--> ?PR?PRINTF?PRINTF
  +--> ?PR?_INGRESADATO?PROG
  +--> ?PR?_ATOI?ATOI
  +--> ?PR?_WR_EEPROM?EEPROM

?PR?PROG_TIEMPO_GRACIA?PROG                      -----    -----      -----    -----      0046H    000CH
  +--> ?PR?_RD_EEPROM?EEPROM
  +--> ?CO?PROG
  +--> ?PR?PRINTF?PRINTF
  +--> ?PR?_INGRESADATO?PROG
  +--> ?PR?_ATOI?ATOI
  +--> ?PR?_WR_EEPROM?EEPROM

?PR?PROG_SIN_COBRO?PROG                          -----    -----      -----    -----      0046H    000CH
  +--> ?PR?_RD_EEPROM?EEPROM
  +--> ?CO?PROG
  +--> ?PR?PRINTF?PRINTF
  +--> ?PR?_INGRESADATO?PROG
  +--> ?PR?_ATOI?ATOI
  +--> ?PR?_WR_EEPROM?EEPROM

?PR?PROG_DEBUG?PROG                              -----    -----      -----    -----      0046H    000CH
  +--> ?PR?_RD_EEPROM?EEPROM
  +--> ?CO?PROG
  +--> ?PR?PRINTF?PRINTF
  +--> ?PR?_INGRESADATO?PROG
  +--> ?PR?_ATOI?ATOI
BL51 BANKED LINKER/LOCATER V6.22.2.0                                                  09/02/2021  16:32:27  PAGE 11


  +--> ?PR?_WR_EEPROM?EEPROM

?PR?PROG_USE_LPR?PROG                            -----    -----      -----    -----      0046H    000CH
  +--> ?PR?_RD_EEPROM?EEPROM
  +--> ?CO?PROG
  +--> ?PR?PRINTF?PRINTF
  +--> ?PR?_INGRESADATO?PROG
  +--> ?PR?_ATOI?ATOI
  +--> ?PR?_WR_EEPROM?EEPROM

?PR?TIPO_PANTALLA?PROG                           -----    -----      -----    -----      0046H    000CH
  +--> ?PR?_RD_EEPROM?EEPROM
  +--> ?CO?PROG
  +--> ?PR?PRINTF?PRINTF
  +--> ?PR?_INGRESADATO?PROG
  +--> ?PR?_ATOI?ATOI
  +--> ?PR?_WR_EEPROM?EEPROM

?PR?PROG_TARJETA_AUTOMATICA_O_BOTON?PROG         -----    -----      -----    -----      0046H    000CH
  +--> ?PR?_RD_EEPROM?EEPROM
  +--> ?CO?PROG
  +--> ?PR?PRINTF?PRINTF
  +--> ?PR?_INGRESADATO?PROG
  +--> ?PR?_ATOI?ATOI
  +--> ?PR?_WR_EEPROM?EEPROM

?PR?PROG_ANTIPASSBACK?PROG                       -----    -----      -----    -----      0046H    000CH
  +--> ?PR?_RD_EEPROM?EEPROM
  +--> ?CO?PROG
  +--> ?PR?PRINTF?PRINTF
  +--> ?PR?_INGRESADATO?PROG
  +--> ?PR?_ATOI?ATOI
  +--> ?PR?_WR_EEPROM?EEPROM

?PR?PROG_PLACA?PROG                              -----    -----      -----    -----      0046H    000CH
  +--> ?PR?_RD_EEPROM?EEPROM
  +--> ?CO?PROG
  +--> ?PR?PRINTF?PRINTF
  +--> ?PR?_INGRESADATO?PROG
  +--> ?PR?_ATOI?ATOI
  +--> ?PR?_WR_EEPROM?EEPROM

?PR?PROG_ADDRESS_HIGH_BOARD?PROG                 -----    -----      -----    -----      0046H    000CH
  +--> ?PR?_RD_EEPROM?EEPROM
  +--> ?CO?PROG
  +--> ?PR?PRINTF?PRINTF
  +--> ?PR?_INGRESADATO?PROG
  +--> ?PR?_ATOI?ATOI
  +--> ?PR?_WR_EEPROM?EEPROM

?PR?PROG_HORARIOS?PROG                           -----    -----      -----    -----      0046H    001BH
  +--> ?PR?ADDR_HORARIOS?PROG
  +--> ?CO?PROG
  +--> ?PR?PRINTF?PRINTF
  +--> ?PR?_INGRESADATO?PROG
  +--> ?PR?_ATOI?ATOI
  +--> ?PR?_PROG_HORARIOS_ON_OFF?PROG
BL51 BANKED LINKER/LOCATER V6.22.2.0                                                  09/02/2021  16:32:27  PAGE 12


  +--> ?PR?_WR_EEPROM?EEPROM
  +--> ?PR?_PROG_HORARIO_DIAS?PROG
  +--> ?PR?_PROG_HORARIO_DESDE_HASTA?PROG
  +--> ?PR?_RD_EEPROM?EEPROM

?PR?ADDR_HORARIOS?PROG                           -----    -----      -----    -----      0074H    000BH

?PR?_PROG_HORARIOS_ON_OFF?PROG                   -----    -----      -----    -----      0061H    0010H
  +--> ?PR?_RD_EEPROM?EEPROM
  +--> ?CO?PROG
  +--> ?PR?PRINTF?PRINTF
  +--> ?PR?_INGRESADATO?PROG
  +--> ?PR?_ATOI?ATOI
  +--> ?PR?_WR_EEPROM?EEPROM

?PR?_PROG_HORARIO_DIAS?PROG                      -----    -----      -----    -----      0061H    000FH
  +--> ?CO?PROG
  +--> ?PR?PRINTF?PRINTF
  +--> ?PR?_INGRESADATO?PROG
  +--> ?PR?_WR_EEPROM?EEPROM
  +--> ?PR?_RD_EEPROM?EEPROM

?PR?_PROG_HORARIO_DESDE_HASTA?PROG               -----    -----      -----    -----      0061H    000CH
  +--> ?CO?PROG
  +--> ?PR?PRINTF?PRINTF
  +--> ?PR?_INGRESADATO?PROG
  +--> ?PR?_WR_EEPROM?EEPROM
  +--> ?PR?_RD_EEPROM?EEPROM

?PR?PROG_VALIDAR_TIPO_VEHICULO_MENSUA...         -----    -----      -----    -----      0046H    000CH
  +--> ?PR?_RD_EEPROM?EEPROM
  +--> ?CO?PROG
  +--> ?PR?PRINTF?PRINTF
  +--> ?PR?_INGRESADATO?PROG
  +--> ?PR?_ATOI?ATOI
  +--> ?PR?_WR_EEPROM?EEPROM

?PR?PROG_APB_MENSUAL?PROG                        -----    -----      -----    -----      0046H    000CH
  +--> ?PR?_RD_EEPROM?EEPROM
  +--> ?CO?PROG
  +--> ?PR?PRINTF?PRINTF
  +--> ?PR?_INGRESADATO?PROG
  +--> ?PR?_ATOI?ATOI
  +--> ?PR?_WR_EEPROM?EEPROM

?PR?PROG_MENSUALES?PROG                          -----    -----      -----    -----      0046H    000CH
  +--> ?PR?_RD_EEPROM?EEPROM
  +--> ?CO?PROG
  +--> ?PR?PRINTF?PRINTF
  +--> ?PR?_INGRESADATO?PROG
  +--> ?PR?_ATOI?ATOI
  +--> ?PR?_WR_EEPROM?EEPROM

?PR?VER_PROG?PROG                                -----    -----      -----    -----      0046H    0013H
  +--> ?PR?_RD_EEPROM?EEPROM
  +--> ?CO?PROG
  +--> ?PR?PRINTF?PRINTF
BL51 BANKED LINKER/LOCATER V6.22.2.0                                                  09/02/2021  16:32:27  PAGE 13


  +--> ?PR?VER_HORARIO?PROG
  +--> ?PR?_LEERMEMORIA?EEPROM
  +--> ?PR?_HEX_ASCII?CLOCK
  +--> ?PR?LEE_NO_TICKET?EEPROM

?PR?VER_HORARIO?PROG                             -----    -----      -----    -----      0059H    001BH
  +--> ?PR?ADDR_HORARIOS?PROG
  +--> ?CO?PROG
  +--> ?PR?PRINTF?PRINTF
  +--> ?PR?_RD_EEPROM?EEPROM
  +--> ?PR?_VER_HORARIO_DIAS?PROG
  +--> ?PR?_VER_HORARIO_DESDE_HASTA?PROG

?PR?_VER_HORARIO_DIAS?PROG                       -----    -----      -----    -----      0074H    0003H
  +--> ?PR?_RD_EEPROM?EEPROM
  +--> ?CO?PROG
  +--> ?PR?PRINTF?PRINTF

?PR?_VER_HORARIO_DESDE_HASTA?PROG                -----    -----      -----    -----      0074H    0002H
  +--> ?CO?PROG
  +--> ?PR?PRINTF?PRINTF
  +--> ?PR?_RD_EEPROM?EEPROM

?PR?_HEX_ASCII?CLOCK                             -----    -----      -----    -----      005DH    0006H
  +--> ?PR?_HEX_BCD?CLOCK

?PR?LEE_NO_TICKET?EEPROM                         -----    -----      -----    -----      0059H    000BH
  +--> ?PR?READ_EEPROM_TICKET?EEPROM
  +--> ?CO?EEPROM
  +--> ?PR?PRINTF?PRINTF
  +--> ?PR?_STRLEN?STRLEN
  +--> ?PR?_DEBUG_TXT_TIBBO?TIBBO

?PR?READ_EEPROM_TICKET?EEPROM                    -----    -----      -----    -----      0064H    0007H
  +--> ?PR?_RD_EEPROM?EEPROM

?PR?_DEBUG_TXT_TIBBO?TIBBO                       -----    -----      -----    -----      0064H    0004H
  +--> ?PR?_DEBUG_CHR_TIBBO?TIBBO
  +--> ?CO?TIBBO
  +--> ?PR?_TX_AUX?TIBBO

?PR?_DEBUG_CHR_TIBBO?TIBBO                       -----    -----      -----    -----      -----    -----
  +--> ?PR?_TX_AUX?TIBBO

?PR?SHOW?PROG                                    -----    -----      -----    -----      -----    -----
  +--> ?CO?PROG
  +--> ?PR?PRINTF?PRINTF

?PR?PROG_FECHA_VENCIMIENTO?PROG                  -----    -----      -----    -----      0046H    0017H
  +--> ?PR?_LEERMEMORIA?EEPROM
  +--> ?PR?_HEX_ASCII?CLOCK
  +--> ?CO?PROG
  +--> ?PR?PRINTF?PRINTF
  +--> ?PR?_HASH_ID?PROG
  +--> ?PR?_INGRESADATO?PROG
  +--> ?PR?_GETCMD?PROG
  +--> ?PR?_ESCRIBIRMEMORIA?EEPROM
BL51 BANKED LINKER/LOCATER V6.22.2.0                                                  09/02/2021  16:32:27  PAGE 14


  +--> ?PR?_VALIDARCLAVE?PROG
  +--> ?PR?_ATOI?ATOI
  +--> ?PR?_WR_EEPROM?EEPROM

?PR?VARIABLE_INICIO?MAIN                         -----    -----      -----    -----      -----    -----
  +--> ?PR?_RD_EEPROM?EEPROM

?PR?SECUENCIA_INICIO_EXPEDIDOR?VERIFI...         -----    -----      -----    -----      0001H    0001H
  +--> ?PR?_INICIALIZA?LINTECH
  +--> ?PR?TRAMA_VALIDACION_P_N?VERIFICADOR
  +--> ?CO?VERIFICADOR
  +--> ?PR?_DEBUG_TXT_TIBBO?TIBBO
  +--> ?PR?_DEBUGBUFFERMF?TIBBO
  +--> ?PR?DWLOAD_EEPROM?LINTECH

?PR?_INICIALIZA?LINTECH                          -----    -----      -----    -----      0002H    000CH
  +--> ?CO?LINTECH
  +--> ?PR?_DEBUG_TXT_TIBBO?TIBBO
  +--> ?PR?_DEBUGBUFFERMF?TIBBO
  +--> ?PR?_ESCRIBIRCADENASOFT_BUFFER?MAIN

?PR?_DEBUGBUFFERMF?TIBBO                         -----    -----      -----    -----      0027H    0006H
  +--> ?CO?TIBBO
  +--> ?PR?_DEBUG_TXT_TIBBO?TIBBO
  +--> ?PR?_DEBUG_CHR_TIBBO?TIBBO
  +--> ?PR?_TX_AUX?TIBBO

?PR?_ESCRIBIRCADENASOFT_BUFFER?MAIN              -----    -----      -----    -----      0027H    0006H
  +--> ?PR?_PUTCHAR?MAIN

?PR?TRAMA_VALIDACION_P_N?VERIFICADOR             -----    -----      -----    -----      -----    -----
  +--> ?CO?VERIFICADOR
  +--> ?PR?_DEBUG_TXT_TIBBO?TIBBO

?PR?DWLOAD_EEPROM?LINTECH                        -----    -----      -----    -----      0002H    0016H
  +--> ?CO?LINTECH
  +--> ?PR?_DEBUG_TXT_TIBBO?TIBBO
  +--> ?PR?_DEBUGBUFFERMF?TIBBO
  +--> ?PR?_ESCRIBIRCADENASOFT_BUFFER?MAIN

?PR?RX_MONITOR?MONITOR                           -----    -----      -----    -----      0003H    000EH
  +--> ?PR?_RECIBE_CMD_MONITOR?MONITOR
  +--> ?PR?_DEBUG_BUFFER_RS232_LCD?TIBBO
  +--> ?PR?_DEBUG_MONITOR?TIBBO
  +--> ?PR?_VALIDA_TRAMA_MONITOR?MONITOR

?PR?_RECIBE_CMD_MONITOR?MONITOR                  -----    -----      -----    -----      0011H    0009H
  +--> ?PR?RX_DATA?TIBBO

?PR?RX_DATA?TIBBO                                -----    -----      -----    -----      -----    -----
  +--> ?PR?TIME_MBIT?TIBBO
  +--> ?PR?TIME_BIT?TIBBO

?PR?_DEBUG_BUFFER_RS232_LCD?TIBBO                -----    -----      -----    -----      0011H    0006H
  +--> ?PR?_DEBUG_CHR_RS232_LCD?TIBBO
  +--> ?PR?_PUTCHAR?MAIN

BL51 BANKED LINKER/LOCATER V6.22.2.0                                                  09/02/2021  16:32:27  PAGE 15


?PR?_DEBUG_CHR_RS232_LCD?TIBBO                   -----    -----      -----    -----      0017H    0001H
  +--> ?PR?_PUTCHAR?MAIN

?PR?_DEBUG_MONITOR?TIBBO                         -----    -----      -----    -----      0011H    0004H
  +--> ?PR?DEBUG_DIVIDIR_TEXTO?TIBBO
  +--> ?CO?TIBBO
  +--> ?PR?_DEBUG_TXT_TIBBO?TIBBO

?PR?DEBUG_DIVIDIR_TEXTO?TIBBO                    -----    -----      -----    -----      -----    -----
  +--> ?CO?TIBBO
  +--> ?PR?_DEBUG_TXT_TIBBO?TIBBO

?PR?_VALIDA_TRAMA_MONITOR?MONITOR                -----    -----      -----    -----      0011H    0006H
  +--> ?PR?_DELAY_10MS?DELAY
  +--> ?PR?_TX_AUX?TIBBO

?PR?_DELAY_10MS?DELAY                            -----    -----      -----    -----      0017H    0004H
  +--> ?PR?_DELAY_1MS?DELAY

?PR?_SECUENCIAEXPEDIDORMF?VERIFICADOR            -----    -----      -----    -----      0001H    0001H
  +--> ?PR?_CHECK_STATUS?LINTECH
  +--> ?PR?_LOAD_SECUENCIA_EXPEDIDOR?VERIFIC...
  +--> ?PR?_RTA_CMD_TRANSPORTE?VERIFICADOR
  +--> ?PR?_MOV_CARD?LINTECH
  +--> ?PR?AUT_CARD_CHECK_STATUS?LINTECH
  +--> ?PR?LOADVERIFY_EEPROM?LINTECH
  +--> ?PR?_RD_MF?LINTECH
  +--> ?PR?_WR_MF?LINTECH
  +--> ?PR?_CARD_INSERCION?LINTECH
  +--> ?PR?DWLOAD_EEPROM?LINTECH
  +--> ?PR?ENTREGA_CARD_CAPTURA?VERIFICADOR
  +--> ?PR?_SEND_PTO_PARALELO?VERIFICADOR
  +--> ?PR?WAIT_PLACA?VERIFICADOR
  +--> ?PR?UNIQUE_IDENTIFIER_UID?LINTECH
  +--> ?PR?_PREGUNTA_LPR?VERIFICADOR
  +--> ?PR?PREGUNTA_PLACA_HABILITADA?VERIFIC...
  +--> ?PR?_VALIDA_TIPO_TARJETA?VERIFICADOR
  +--> ?PR?POWER_OFF?LINTECH
  +--> ?PR?CLAVE_SEGURIDAD_S2?LINTECH
  +--> ?PR?_RESPONDE_REELECTURA_TARJETA_SECT...
  +--> ?PR?ANALIZA_PRESENCIA_ROTACION?VERIFI...
  +--> ?PR?RX_MONITOR?MONITOR
  +--> ?PR?INGRESO_VEHICULO?VERIFICADOR
  +--> ?PR?RESPONDE_ESTADO_SENSORES_TRANSPOR...
  +--> ?PR?RESPONDE_TIPO_TARJETA?VERIFICADOR
  +--> ?PR?_RESPONDE_LECTURA_TARJETA_SECTOR1...
  +--> ?PR?_RESPONDE_LECTURA_TARJETA_SECTOR1...
  +--> ?PR?_RESPONDE_LECTURA_TARJETA_SECTOR1...
  +--> ?PR?_RESPONDE_WRITE_TARJETA_SECTOR1_B...
  +--> ?PR?_RESPONDE_WRITE_TARJETA_SECTOR2_B...
  +--> ?PR?_RESPONDE_WRITE_TARJETA_SECTOR1_B...
  +--> ?PR?_RESPONDE_WRITE_TARJETA_SECTOR1_B...
  +--> ?PR?_DISPARO_LOCK_ENTRADA_VEHICULO?VE...
  +--> ?PR?_RESPUESTA_SEGUNDA_CLAVE?VERIFICADOR
  +--> ?PR?_ANALIZA_UID_CARD?VERIFICADOR
  +--> ?CO?VERIFICADOR
  +--> ?PR?_DEBUG_TXT_TIBBO?TIBBO
BL51 BANKED LINKER/LOCATER V6.22.2.0                                                  09/02/2021  16:32:27  PAGE 16



?PR?_CHECK_STATUS?LINTECH                        -----    -----      -----    -----      0002H    000BH
  +--> ?CO?LINTECH
  +--> ?PR?_DEBUG_TXT_TIBBO?TIBBO
  +--> ?PR?_DEBUGBUFFERMF?TIBBO
  +--> ?PR?_ESCRIBIRCADENASOFT_BUFFER?MAIN

?PR?_LOAD_SECUENCIA_EXPEDIDOR?VERIFIC...         -----    -----      -----    -----      0002H    0009H

?PR?_RTA_CMD_TRANSPORTE?VERIFICADOR              -----    -----      -----    -----      0002H    0005H
  +--> ?PR?TRAMA_VALIDACION_P_N?VERIFICADOR
  +--> ?CO?VERIFICADOR
  +--> ?PR?_DEBUG_TXT_TIBBO?TIBBO
  +--> ?PR?_DEBUGBUFFERMF?TIBBO
  +--> ?PR?ERROR_RX_PTO?VERIFICADOR

?PR?ERROR_RX_PTO?VERIFICADOR                     -----    -----      -----    -----      0007H    0001H
  +--> ?CO?VERIFICADOR
  +--> ?PR?_DEBUG_TXT_TIBBO?TIBBO
  +--> ?PR?_DEBUG_CHR_TIBBO?TIBBO
  +--> ?PR?_DELAY_10MS?DELAY

?PR?_MOV_CARD?LINTECH                            -----    -----      -----    -----      0002H    000CH
  +--> ?CO?LINTECH
  +--> ?PR?_DEBUG_TXT_TIBBO?TIBBO
  +--> ?PR?_DEBUGBUFFERMF?TIBBO
  +--> ?PR?_ESCRIBIRCADENASOFT_BUFFER?MAIN

?PR?AUT_CARD_CHECK_STATUS?LINTECH                -----    -----      -----    -----      0002H    000BH
  +--> ?CO?LINTECH
  +--> ?PR?_DEBUG_TXT_TIBBO?TIBBO
  +--> ?PR?_DEBUGBUFFERMF?TIBBO
  +--> ?PR?_ESCRIBIRCADENASOFT_BUFFER?MAIN

?PR?LOADVERIFY_EEPROM?LINTECH                    -----    -----      -----    -----      0002H    0010H
  +--> ?CO?LINTECH
  +--> ?PR?_DEBUG_TXT_TIBBO?TIBBO
  +--> ?PR?_DEBUGBUFFERMF?TIBBO
  +--> ?PR?_ESCRIBIRCADENASOFT_BUFFER?MAIN

?PR?_RD_MF?LINTECH                               -----    -----      -----    -----      0002H    0012H
  +--> ?CO?LINTECH
  +--> ?PR?_DEBUG_TXT_TIBBO?TIBBO
  +--> ?PR?_DEBUG_CHR_TIBBO?TIBBO
  +--> ?PR?_DEBUGBUFFERMF?TIBBO
  +--> ?PR?_ESCRIBIRCADENASOFT_BUFFER?MAIN

?PR?_WR_MF?LINTECH                               -----    -----      -----    -----      0002H    0025H
  +--> ?CO?LINTECH
  +--> ?PR?_DEBUG_TXT_TIBBO?TIBBO
  +--> ?PR?_DEBUG_CHR_TIBBO?TIBBO
  +--> ?PR?_DEBUGBUFFERMF?TIBBO
  +--> ?PR?_ESCRIBIRCADENASOFT_BUFFER?MAIN

?PR?_CARD_INSERCION?LINTECH                      -----    -----      -----    -----      0002H    000AH
  +--> ?CO?LINTECH
  +--> ?PR?_DEBUG_TXT_TIBBO?TIBBO
BL51 BANKED LINKER/LOCATER V6.22.2.0                                                  09/02/2021  16:32:27  PAGE 17


  +--> ?PR?_DEBUGBUFFERMF?TIBBO
  +--> ?PR?_ESCRIBIRCADENASOFT_BUFFER?MAIN

?PR?ENTREGA_CARD_CAPTURA?VERIFICADOR             -----    -----      -----    -----      0002H    0001H
  +--> ?CO?VERIFICADOR
  +--> ?PR?_DEBUG_TXT_TIBBO?TIBBO
  +--> ?PR?SEL_SENSOR2?IO_SENSORES
  +--> ?PR?VALIDASENSOR?IO_SENSORES
  +--> ?PR?VALIDA_SENSOR1_AUTO?IO_SENSORES

?PR?VALIDA_SENSOR1_AUTO?IO_SENSORES              -----    -----      -----    -----      0012H    0001H
  +--> ?PR?SEL_SENSOR1?IO_SENSORES
  +--> ?PR?SEL_AUTO?IO_SENSORES
  +--> ?CO?IO_SENSORES
  +--> ?PR?_DEBUG_TXT_TIBBO?TIBBO
  +--> ?PR?BOTTON?IO_SENSORES

?PR?BOTTON?IO_SENSORES                           -----    -----      -----    -----      -----    -----
  +--> ?PR?SEL_PULSA?IO_SENSORES
  +--> ?CO?IO_SENSORES
  +--> ?PR?_DEBUG_TXT_TIBBO?TIBBO

?PR?_SEND_PTO_PARALELO?VERIFICADOR               -----    -----      -----    -----      0002H    0007H
  +--> ?PR?_ARMAR_TRAMA_PTO_PARALELO_EXPEDID...
  +--> ?PR?_ARMAR_TRAMA_PTO_PARALELO_EXPEDID...
  +--> ?PR?INCREMENTE_TICKET?EEPROM
  +--> ?PR?_SEND_PORT?PTO_PARALELO
  +--> ?CO?VERIFICADOR
  +--> ?PR?_DEBUG_TXT_TIBBO?TIBBO
  +--> ?PR?_DEBUGBUFFERMF?TIBBO
  +--> ?PR?CLEAR_PLACA?MONITOR

?PR?_ARMAR_TRAMA_PTO_PARALELO_EXPEDID...         -----    -----      -----    -----      0009H    0006H
  +--> ?PR?_BCD_HEX?CLOCK
  +--> ?PR?_RD_EEPROM?EEPROM

?PR?_ARMAR_TRAMA_PTO_PARALELO_EXPEDID...         -----    -----      -----    -----      0009H    0012H
  +--> ?PR?LEE_NO_TICKET?EEPROM
  +--> ?PR?_STRCAT?STRCAT
  +--> ?PR?_STRLEN?STRLEN
  +--> ?PR?_BCD_HEX?CLOCK
  +--> ?PR?_RD_EEPROM?EEPROM

?PR?INCREMENTE_TICKET?EEPROM                     -----    -----      -----    -----      0009H    000BH
  +--> ?PR?READ_EEPROM_TICKET?EEPROM
  +--> ?CO?EEPROM
  +--> ?PR?PRINTF?PRINTF
  +--> ?PR?_WRITE_EEPROM_TICKET?EEPROM

?PR?_WRITE_EEPROM_TICKET?EEPROM                  -----    -----      -----    -----      0016H    000BH
  +--> ?CO?EEPROM
  +--> ?PR?_DEBUG_TXT_TIBBO?TIBBO
  +--> ?PR?_ATOL?ATOL
  +--> ?PR?_DEBUG_CHR_TIBBO?TIBBO
  +--> ?PR?_WR_EEPROM?EEPROM

?PR?_ATOL?ATOL                                   0020H.0  0000H.1    -----    -----      0021H    0007H
BL51 BANKED LINKER/LOCATER V6.22.2.0                                                  09/02/2021  16:32:27  PAGE 18


  +--> ?PR?_ISSPACE?ISSPACE
  +--> ?PR?_ISDIGIT?ISDIGIT

?PR?_SEND_PORT?PTO_PARALELO                      -----    -----      -----    -----      0016H    000AH
  +--> ?PR?PULSO_BUS?PTO_PARALELO
  +--> ?PR?_DELAY_20US?DELAY

?PR?PULSO_BUS?PTO_PARALELO                       -----    -----      -----    -----      -----    -----
  +--> ?PR?_DELAY_20US?DELAY

?PR?WAIT_PLACA?VERIFICADOR                       -----    -----      -----    -----      0002H    0001H
  +--> ?CO?VERIFICADOR
  +--> ?PR?_DEBUG_TXT_TIBBO?TIBBO
  +--> ?PR?RX_MONITOR?MONITOR
  +--> ?PR?RESPUESTA_PLACA_CANCEL?VERIFICADOR

?PR?RESPUESTA_PLACA_CANCEL?VERIFICADOR           -----    -----      -----    -----      0003H    0004H
  +--> ?CO?VERIFICADOR
  +--> ?PR?_DEBUG_TXT_TIBBO?TIBBO
  +--> ?PR?_DEBUG_TXT_RS232?TIBBO

?PR?_DEBUG_TXT_RS232?TIBBO                       -----    -----      -----    -----      0007H    0005H
  +--> ?PR?_PUTCHAR?MAIN

?PR?UNIQUE_IDENTIFIER_UID?LINTECH                -----    -----      -----    -----      0002H    000BH
  +--> ?CO?LINTECH
  +--> ?PR?_DEBUG_TXT_TIBBO?TIBBO
  +--> ?PR?_DEBUGBUFFERMF?TIBBO
  +--> ?PR?_ESCRIBIRCADENASOFT_BUFFER?MAIN

?PR?_PREGUNTA_LPR?VERIFICADOR                    -----    -----      -----    -----      0002H    0007H
  +--> ?CO?VERIFICADOR
  +--> ?PR?_DEBUG_TXT_TIBBO?TIBBO
  +--> ?PR?_HORA_ENTRADA_VEHICULO?CLOCK
  +--> ?PR?_RD_EEPROM?EEPROM
  +--> ?PR?_ARMAR_TRAMA_MONITOR?VERIFICADOR

?PR?_HORA_ENTRADA_VEHICULO?CLOCK                 -----    -----      -----    -----      0009H    0003H
  +--> ?PR?_LEE_CLK?CLOCK

?PR?_ARMAR_TRAMA_MONITOR?VERIFICADOR             -----    -----      -----    -----      0009H    000FH
  +--> ?PR?DIR_BOARD_MONITOR?IO_SENSORES
  +--> ?PR?LEE_NO_TICKET?EEPROM
  +--> ?PR?_STRCAT?STRCAT
  +--> ?PR?_BYTEHEX_DECIMAL?CLOCK
  +--> ?PR?_STRLEN?STRLEN
  +--> ?PR?_TWO_BYTEHEX_DECIMAL?CLOCK

?PR?DIR_BOARD_MONITOR?IO_SENSORES                -----    -----      -----    -----      -----    -----
  +--> ?PR?_RD_EEPROM?EEPROM

?PR?_BYTEHEX_DECIMAL?CLOCK                       -----    -----      -----    -----      0018H    0001H

?PR?_TWO_BYTEHEX_DECIMAL?CLOCK                   -----    -----      -----    -----      0018H    000CH
  +--> ?PR?_POW?POW

?PR?_POW?POW                                     -----    -----      -----    -----      0024H    000AH
BL51 BANKED LINKER/LOCATER V6.22.2.0                                                  09/02/2021  16:32:27  PAGE 19


  +--> ?PR?LOG?LOG
  +--> ?PR?EXP?EXP

?PR?LOG?LOG                                      0020H.0  0000H.1    -----    -----      002EH    0004H

?PR?PREGUNTA_PLACA_HABILITADA?VERIFIC...         -----    -----      -----    -----      0002H    0001H
  +--> ?CO?VERIFICADOR
  +--> ?PR?_DEBUG_TXT_TIBBO?TIBBO
  +--> ?PR?_RD_EEPROM?EEPROM

?PR?_VALIDA_TIPO_TARJETA?VERIFICADOR             -----    -----      -----    -----      0002H    0007H
  +--> ?CO?VERIFICADOR
  +--> ?PR?_DEBUG_TXT_TIBBO?TIBBO
  +--> ?PR?_RD_EEPROM?EEPROM
  +--> ?PR?_SEND_PORTERR?PTO_PARALELO
  +--> ?PR?_TARJETA_ROTACION?VERIFICADOR
  +--> ?PR?_PANTALLALCD?PANTALLAS

?PR?_SEND_PORTERR?PTO_PARALELO                   -----    -----      -----    -----      0018H    0006H
  +--> ?PR?PULSO_BUS?PTO_PARALELO
  +--> ?PR?_DELAY_20US?DELAY

?PR?_TARJETA_ROTACION?VERIFICADOR                -----    -----      -----    -----      0009H    0006H
  +--> ?PR?_ARMAR_TRAMA_TARJETA_SECTOR1_BLOQ...

?PR?_ARMAR_TRAMA_TARJETA_SECTOR1_BLOQ...         -----    -----      -----    -----      000FH    0006H
  +--> ?PR?_BCD_HEX?CLOCK
  +--> ?PR?DIR_BOARD?IO_SENSORES

?PR?DIR_BOARD?IO_SENSORES                        -----    -----      -----    -----      0033H    0001H
  +--> ?PR?SEL_DIR1?IO_SENSORES
  +--> ?PR?SEL_DIR2?IO_SENSORES
  +--> ?PR?_RD_EEPROM?EEPROM

?PR?_PANTALLALCD?PANTALLAS                       -----    -----      -----    -----      0018H    000AH
  +--> ?CO?PANTALLAS
  +--> ?PR?_LCD_TXT?PANTALLAS
  +--> ?PR?_STRLEN?STRLEN
  +--> ?PR?_TX_CHRLCD?PANTALLAS
  +--> ?PR?_RASPBERRY_DATA?PANTALLAS

?PR?_LCD_TXT?PANTALLAS                           -----    -----      -----    -----      0044H    0005H
  +--> ?PR?_TX_CHRLCD?PANTALLAS

?PR?_TX_CHRLCD?PANTALLAS                         -----    -----      -----    -----      0049H    0002H
  +--> ?PR?_PUTCHAR?MAIN

?PR?_RASPBERRY_DATA?PANTALLAS                    -----    -----      -----    -----      0044H    0006H
  +--> ?PR?_STRLEN?STRLEN
  +--> ?PR?_PUTCHAR?MAIN

?PR?POWER_OFF?LINTECH                            -----    -----      -----    -----      0002H    000BH
  +--> ?CO?LINTECH
  +--> ?PR?_DEBUG_TXT_TIBBO?TIBBO
  +--> ?PR?_DEBUGBUFFERMF?TIBBO
  +--> ?PR?_ESCRIBIRCADENASOFT_BUFFER?MAIN

BL51 BANKED LINKER/LOCATER V6.22.2.0                                                  09/02/2021  16:32:27  PAGE 20


?PR?CLAVE_SEGURIDAD_S2?LINTECH                   -----    -----      -----    -----      0002H    0016H
  +--> ?CO?LINTECH
  +--> ?PR?_DEBUG_TXT_TIBBO?TIBBO
  +--> ?PR?_DEBUGBUFFERMF?TIBBO
  +--> ?PR?_ESCRIBIRCADENASOFT_BUFFER?MAIN

?PR?_RESPONDE_REELECTURA_TARJETA_SECT...         -----    -----      -----    -----      0002H    000AH
  +--> ?CO?VERIFICADOR
  +--> ?PR?_DEBUG_TXT_TIBBO?TIBBO
  +--> ?PR?_DEBUGBUFFERMF?TIBBO
  +--> ?PR?_ARMAR_TRAMA_TARJETA_SECTOR1_BLOQ...

?PR?_ARMAR_TRAMA_TARJETA_SECTOR1_BLOQ...         -----    -----      -----    -----      000CH    0003H
  +--> ?PR?LEE_NO_TICKET?EEPROM

?PR?ANALIZA_PRESENCIA_ROTACION?VERIFI...         -----    -----      -----    -----      0002H    0001H
  +--> ?PR?VALIDASENSORESPASO?IO_SENSORES
  +--> ?PR?_SEND_PORTERR?PTO_PARALELO
  +--> ?PR?_PANTALLALCD?PANTALLAS

?PR?VALIDASENSORESPASO?IO_SENSORES               -----    -----      -----    -----      0011H    0001H
  +--> ?PR?SEL_SENSOR2?IO_SENSORES
  +--> ?PR?VALIDASENSOR?IO_SENSORES
  +--> ?PR?VALIDA_SENSOR1_AUTO?IO_SENSORES
  +--> ?CO?IO_SENSORES
  +--> ?PR?_DEBUG_TXT_TIBBO?TIBBO

?PR?INGRESO_VEHICULO?VERIFICADOR                 -----    -----      -----    -----      0002H    0001H
  +--> ?CO?VERIFICADOR
  +--> ?PR?_DEBUG_TXT_TIBBO?TIBBO
  +--> ?PR?VALIDASENSORESPASO?IO_SENSORES
  +--> ?PR?_RD_EEPROM?EEPROM
  +--> ?PR?RX_MONITOR?MONITOR
  +--> ?PR?_SEND_PORTERR?PTO_PARALELO
  +--> ?PR?_PANTALLALCD?PANTALLAS
  +--> ?PR?BOTTON?IO_SENSORES

?PR?RESPONDE_ESTADO_SENSORES_TRANSPOR...         -----    -----      -----    -----      0002H    0001H
  +--> ?CO?VERIFICADOR
  +--> ?PR?_DEBUG_TXT_TIBBO?TIBBO
  +--> ?PR?_SEND_PORTERR?PTO_PARALELO

?PR?RESPONDE_TIPO_TARJETA?VERIFICADOR            -----    -----      -----    -----      0002H    0001H
  +--> ?CO?VERIFICADOR
  +--> ?PR?_DEBUG_TXT_TIBBO?TIBBO
  +--> ?PR?_SEND_PORTERR?PTO_PARALELO
  +--> ?PR?_PANTALLALCD?PANTALLAS

?PR?_RESPONDE_LECTURA_TARJETA_SECTOR1...         -----    -----      -----    -----      0002H    0016H
  +--> ?CO?VERIFICADOR
  +--> ?PR?_DEBUG_TXT_TIBBO?TIBBO
  +--> ?PR?_DEBUGBUFFERMF?TIBBO
  +--> ?PR?_RD_EEPROM?EEPROM
  +--> ?PR?_DEBUG_HEXDEC?TIBBO
  +--> ?PR?_DEBUG_CHR_TIBBO?TIBBO
  +--> ?PR?_SEND_PORTERR?PTO_PARALELO
  +--> ?PR?_PANTALLALCD?PANTALLAS
BL51 BANKED LINKER/LOCATER V6.22.2.0                                                  09/02/2021  16:32:27  PAGE 21



?PR?_DEBUG_HEXDEC?TIBBO                          -----    -----      -----    -----      0018H    0002H
  +--> ?PR?_TX_AUX?TIBBO

?PR?_RESPONDE_LECTURA_TARJETA_SECTOR1...         -----    -----      -----    -----      0002H    0004H
  +--> ?CO?VERIFICADOR
  +--> ?PR?_DEBUG_TXT_TIBBO?TIBBO

?PR?_RESPONDE_LECTURA_TARJETA_SECTOR1...         -----    -----      -----    -----      0002H    0015H
  +--> ?CO?VERIFICADOR
  +--> ?PR?_DEBUG_TXT_TIBBO?TIBBO
  +--> ?PR?_DEBUGBUFFERMF?TIBBO
  +--> ?PR?_DEBUG_CHR_TIBBO?TIBBO

?PR?_RESPONDE_WRITE_TARJETA_SECTOR1_B...         -----    -----      -----    -----      0002H    0007H
  +--> ?CO?VERIFICADOR
  +--> ?PR?_DEBUG_TXT_TIBBO?TIBBO
  +--> ?PR?_DEBUGBUFFERMF?TIBBO
  +--> ?PR?_ARMAR_TRAMA_TARJETA_SECTOR1_BLOQ...

?PR?_RESPONDE_WRITE_TARJETA_SECTOR2_B...         -----    -----      -----    -----      0002H    0003H
  +--> ?CO?VERIFICADOR
  +--> ?PR?_DEBUG_TXT_TIBBO?TIBBO
  +--> ?PR?_DEBUGBUFFERMF?TIBBO

?PR?_RESPONDE_WRITE_TARJETA_SECTOR1_B...         -----    -----      -----    -----      0002H    0003H
  +--> ?CO?VERIFICADOR
  +--> ?PR?_DEBUG_TXT_TIBBO?TIBBO
  +--> ?PR?_DEBUGBUFFERMF?TIBBO

?PR?_RESPONDE_WRITE_TARJETA_SECTOR1_B...         -----    -----      -----    -----      0002H    0003H
  +--> ?CO?VERIFICADOR
  +--> ?PR?_DEBUG_TXT_TIBBO?TIBBO
  +--> ?PR?_DEBUGBUFFERMF?TIBBO

?PR?_DISPARO_LOCK_ENTRADA_VEHICULO?VE...         -----    -----      -----    -----      0002H    0004H
  +--> ?CO?VERIFICADOR
  +--> ?PR?_DEBUG_TXT_TIBBO?TIBBO
  +--> ?PR?_SEND_PORTERR?PTO_PARALELO
  +--> ?PR?_PANTALLALCD_LINEA_2?PANTALLAS
  +--> ?PR?VALIDA_SENSOR1_AUTO?IO_SENSORES
  +--> ?PR?_PANTALLALCD?PANTALLAS

?PR?_PANTALLALCD_LINEA_2?PANTALLAS               -----    -----      -----    -----      0011H    0033H
  +--> ?CO?PANTALLAS
  +--> ?PR?_LCD_TXT?PANTALLAS
  +--> ?PR?_STRLEN?STRLEN
  +--> ?PR?_TX_CHRLCD?PANTALLAS
  +--> ?PR?_RASPBERRY_DATA?PANTALLAS
  +--> ?PR?LEE_NO_TICKET?EEPROM
  +--> ?PR?_STRCAT?STRCAT

?PR?_RESPUESTA_SEGUNDA_CLAVE?VERIFICADOR         -----    -----      -----    -----      0002H    0006H
  +--> ?CO?VERIFICADOR
  +--> ?PR?_DEBUG_TXT_TIBBO?TIBBO
  +--> ?PR?_DEBUGBUFFERMF?TIBBO
  +--> ?PR?_ARMAR_TRAMA_PLACA?VERIFICADOR
BL51 BANKED LINKER/LOCATER V6.22.2.0                                                  09/02/2021  16:32:27  PAGE 22



?PR?_ARMAR_TRAMA_PLACA?VERIFICADOR               -----    -----      -----    -----      0008H    0004H
  +--> ?PR?_STRLEN?STRLEN
  +--> ?CO?VERIFICADOR

?PR?_ANALIZA_UID_CARD?VERIFICADOR                -----    -----      -----    -----      0002H    0015H
  +--> ?CO?VERIFICADOR
  +--> ?PR?_DEBUG_TXT_TIBBO?TIBBO
  +--> ?PR?_DEBUGBUFFERMF?TIBBO
  +--> ?PR?_DEBUG_CHR_TIBBO?TIBBO

?PR?_RECIBE_PORT?PTO_PARALELO                    -----    -----      -----    -----      0001H    0008H
  +--> ?PR?OFF_TIMER0_INTERRUP?MAIN
  +--> ?PR?ON_TIMER0_INTERRUP?MAIN

?PR?_DEBUG_PTO_PARALELO?TIBBO                    -----    -----      -----    -----      0001H    0004H
  +--> ?CO?TIBBO
  +--> ?PR?_DEBUG_TXT_TIBBO?TIBBO
  +--> ?PR?_DEBUGBUFFERMF?TIBBO
  +--> ?PR?DEBUG_DIVIDIR_TEXTO?TIBBO

?PR?_VALIDA_TRAMA_PTO?ACCESCAN                   -----    -----      -----    -----      0001H    0010H
  +--> ?CO?ACCESCAN
  +--> ?PR?_DEBUG_TXT_TIBBO?TIBBO
  +--> ?PR?_DEBUG_CHR_TIBBO?TIBBO
  +--> ?PR?_VALIDAR_CLK?CLOCK
  +--> ?PR?_BLOCK_WRITE_CLOCK_ASCII?CLOCK
  +--> ?PR?RELOJ_PANTALLA_LCD?PANTALLAS
  +--> ?PR?_SEND_PORT?PTO_PARALELO
  +--> ?PR?_PANTALLALCD?PANTALLAS
  +--> ?PR?_BYTEHEX_DECIMAL?CLOCK
  +--> ?PR?_TWO_BYTEHEX_DECIMAL?CLOCK
  +--> ?PR?VALIDASENSORESPASO?IO_SENSORES
  +--> ?PR?_CMD_LPR_SALIDA_WIEGAND?ACCESCAN
  +--> ?PR?_PANTALLALCD_LINEA_2?PANTALLAS
  +--> ?PR?_GRABA_SERIE?EEPROM

?PR?_BLOCK_WRITE_CLOCK_ASCII?CLOCK               -----    -----      -----    -----      0011H    0003H
  +--> ?CO?CLOCK
  +--> ?PR?_DEBUG_TXT_TIBBO?TIBBO
  +--> ?PR?_TWO_ONE?CLOCK
  +--> ?PR?_WR_CLK?CLOCK

?PR?_WR_CLK?CLOCK                                -----    -----      -----    -----      0014H    0002H
  +--> ?PR?_DELAY_20US?DELAY
  +--> ?PR?_EB_CLK?CLOCK

?PR?RELOJ_PANTALLA_LCD?PANTALLAS                 -----    -----      -----    -----      0011H    000DH
  +--> ?CO?PANTALLAS
  +--> ?PR?_BLOCK_READ_CLOCK?CLOCK
  +--> ?PR?_LCD_TXT_NUM_CHAR?PANTALLAS
  +--> ?PR?_BLOCK_READ_CLOCK_ASCII_RASBERRY?...
  +--> ?PR?_STRCAT?STRCAT
  +--> ?PR?_RASPBERRY_DATA?PANTALLAS

?PR?_BLOCK_READ_CLOCK?CLOCK                      -----    -----      -----    -----      001EH    0003H
  +--> ?PR?_LEE_CLK?CLOCK
BL51 BANKED LINKER/LOCATER V6.22.2.0                                                  09/02/2021  16:32:27  PAGE 23



?PR?_LCD_TXT_NUM_CHAR?PANTALLAS                  -----    -----      -----    -----      001EH    0006H
  +--> ?PR?_TX_CHRLCD?PANTALLAS

?PR?_BLOCK_READ_CLOCK_ASCII_RASBERRY?...         -----    -----      -----    -----      001EH    0003H
  +--> ?PR?_LEE_CLK?CLOCK

?PR?_CMD_LPR_SALIDA_WIEGAND?ACCESCAN             -----    -----      -----    -----      0011H    0022H
  +--> ?PR?DIR_BOARD?IO_SENSORES
  +--> ?PR?_BLOCK_READ_CLOCK_ASCII?CLOCK
  +--> ?PR?_MONITOR_CHR?ACCESCAN

?PR?_MONITOR_CHR?ACCESCAN                        -----    -----      -----    -----      0033H    0005H
  +--> ?PR?_TX_AUX?TIBBO

?PR?_GRABA_SERIE?EEPROM                          -----    -----      -----    -----      0011H    0005H
  +--> ?CO?EEPROM
  +--> ?PR?_DEBUG_TXT_TIBBO?TIBBO
  +--> ?PR?_WRITE_EEPROM_TICKET?EEPROM
  +--> ?PR?_WR_EEPROM?EEPROM

?PR?MSJ_LCD_INFORMATIVO?IO_SENSORES              -----    -----      -----    -----      0001H    0001H
  +--> ?PR?SEL_FUNCION?IO_SENSORES
  +--> ?PR?VALIDASENSOR_CERO?IO_SENSORES
  +--> ?CO?IO_SENSORES
  +--> ?PR?_DEBUG_TXT_TIBBO?TIBBO
  +--> ?PR?_DEBUG_CHR_TIBBO?TIBBO
  +--> ?PR?LOAD_AND_SEND_INFO_RELOJ?PTO_PARA...
  +--> ?PR?VALIDASENSOR?IO_SENSORES
  +--> ?PR?_DELAY_10MS?DELAY
  +--> ?PR?LOAD_AND_SEND_ID_COD?PTO_PARALELO

?PR?LOAD_AND_SEND_INFO_RELOJ?PTO_PARA...         -----    -----      -----    -----      0002H    000BH
  +--> ?PR?_BLOCK_READ_CLOCK?CLOCK
  +--> ?PR?_LEE_CLK?CLOCK
  +--> ?CO?PTO_PARALELO
  +--> ?PR?_DEBUG_TXT_TIBBO?TIBBO
  +--> ?PR?_DEBUGBUFFERMF?TIBBO
  +--> ?PR?DEBUG_DIVIDIR_TEXTO?TIBBO
  +--> ?PR?_SEND_PORT?PTO_PARALELO

?PR?LOAD_AND_SEND_ID_COD?PTO_PARALELO            -----    -----      -----    -----      0002H    0014H
  +--> ?PR?_RD_EEPROM?EEPROM
  +--> ?CO?PTO_PARALELO
  +--> ?PR?PRINTF?PRINTF
  +--> ?PR?_STRCAT?STRCAT
  +--> ?PR?_STRLEN?STRLEN
  +--> ?PR?_DEBUG_TXT_TIBBO?TIBBO
  +--> ?PR?_DEBUGBUFFERMF?TIBBO
  +--> ?PR?DEBUG_DIVIDIR_TEXTO?TIBBO
  +--> ?PR?_SEND_PORT?PTO_PARALELO



SYMBOL TABLE OF MODULE:  .\Objects\expedidor_v_101 (MAIN)

  VALUE           TYPE          NAME
BL51 BANKED LINKER/LOCATER V6.22.2.0                                                  09/02/2021  16:32:27  PAGE 24


  ----------------------------------

  -------         MODULE        MAIN
  C:0000H         SYMBOL        _ICE_DUMMY_
  X:0171H         PUBLIC        STX
  D:0080H         PUBLIC        P0
  D:0090H         PUBLIC        P1
  C:BA6DH         PUBLIC        timer0_int
  D:00B0H         PUBLIC        P3
  B:00A8H.7       PUBLIC        EA
  B:0080H.2       PUBLIC        led_err_imp
  C:BE02H         PUBLIC        off_Timer0_Interrup
  X:0172H         PUBLIC        ValTimeOutCom
  X:0173H         PUBLIC        Buffer_Rta_Lintech
  X:01A5H         PUBLIC        Timer_wait
  B:0021H.1       PUBLIC        pto_paraleo
  X:01A6H         PUBLIC        g_cContByteRx
  B:0080H.0       PUBLIC        rx_ip
  C:A7EAH         PUBLIC        main
  X:01A7H         PUBLIC        Timer_tivo
  B:0080H.3       PUBLIC        Atascado_GP0_PIN_3
  C:B004H         PUBLIC        variable_inicio
  B:0090H.7       PUBLIC        lock
  I:0023H         PUBLIC        rbuf
  C:BDF8H         PUBLIC        on_Timer0_Interrup
  I:0055H         PUBLIC        tbuf
  B:0090H.1       PUBLIC        DataIn
  D:0089H         PUBLIC        TMOD
  X:01A9H         PUBLIC        USE_LPR
  X:01AAH         PUBLIC        Debug_Tibbo
  X:01ABH         PUBLIC        Raspberry
  X:01ACH         PUBLIC        SIN_COBRO
  X:01AEH         PUBLIC        Tipo_Vehiculo
  B:00B0H.3       PUBLIC        busy
  C:BD52H         PUBLIC        ini_timer
  B:00A8H.1       PUBLIC        ET0
  X:01AFH         PUBLIC        precarga
  B:0088H.5       PUBLIC        TF0
  D:008CH         PUBLIC        TH0
  X:01B0H         PUBLIC        ACK
  X:01B1H         PUBLIC        g_cEstadoComSoft
  D:008AH         PUBLIC        TL0
  B:0088H.4       PUBLIC        TR0
  C:BD62H         PUBLIC        inicia_board
  X:01B2H         PUBLIC        T_GRACIA
  B:0080H.7       PUBLIC        sel_com
  X:01B4H         PUBLIC        STX_LINTECH
  C:BD91H         PUBLIC        _getkey
  X:01B5H         PUBLIC        ETX
  C:B2E7H         PUBLIC        _EscribirCadenaSoft_buffer
  B:0021H.2       PUBLIC        buffer_ready
  C:B604H         PUBLIC        _putchar
  B:0021H.3       PUBLIC        placa_ready
  -------         PROC          TIMER0_INT
  C:BA6DH         LINE#         16
  C:BA73H         LINE#         19
  C:BA79H         LINE#         20
BL51 BANKED LINKER/LOCATER V6.22.2.0                                                  09/02/2021  16:32:27  PAGE 25


  C:BA7EH         LINE#         21
  C:BA7EH         LINE#         22
  C:BA84H         LINE#         23
  C:BA84H         LINE#         25
  C:BA92H         LINE#         26
  C:BA94H         LINE#         28
  -------         ENDPROC       TIMER0_INT
  -------         PROC          INI_TIMER
  C:BD52H         LINE#         31
  C:BD52H         LINE#         32
  C:BD52H         LINE#         34
  C:BD5AH         LINE#         36
  C:BD5DH         LINE#         37
  C:BD5FH         LINE#         38
  C:BD61H         LINE#         40
  -------         ENDPROC       INI_TIMER
  -------         PROC          ON_TIMER0_INTERRUP
  C:BDF8H         LINE#         43
  C:BDF8H         LINE#         44
  C:BDF8H         LINE#         45
  C:BDFAH         LINE#         46
  C:BDFCH         LINE#         48
  -------         ENDPROC       ON_TIMER0_INTERRUP
  -------         PROC          OFF_TIMER0_INTERRUP
  C:BE02H         LINE#         51
  C:BE02H         LINE#         52
  C:BE02H         LINE#         53
  C:BE04H         LINE#         55
  -------         ENDPROC       OFF_TIMER0_INTERRUP
  -------         PROC          _GETKEY
  -------         DO            
  D:0006H         SYMBOL        k
  -------         ENDDO         
  C:BD91H         LINE#         63
  C:BD91H         LINE#         64
  C:BD91H         LINE#         68
  C:BD91H         LINE#         69
  C:BD94H         LINE#         70
  C:BD94H         LINE#         71
  C:BD9CH         LINE#         73
  C:BD9CH         LINE#         74
  -------         ENDPROC       _GETKEY
  -------         PROC          _PUTCHAR
  X:00A7H         SYMBOL        c
  -------         DO            
  X:00A8H         SYMBOL        i
  -------         ENDDO         
  C:B604H         LINE#         78
  C:B609H         LINE#         79
  C:B609H         LINE#         82
  C:B618H         LINE#         83
  C:B618H         LINE#         84
  C:B62EH         LINE#         85
  C:B62EH         LINE#         87
  C:B63CH         LINE#         88
  C:B63CH         LINE#         90
  C:B641H         LINE#         91
BL51 BANKED LINKER/LOCATER V6.22.2.0                                                  09/02/2021  16:32:27  PAGE 26


  -------         ENDPROC       _PUTCHAR
  -------         PROC          _ESCRIBIRCADENASOFT_BUFFER
  X:0027H         SYMBOL        buffer
  X:002AH         SYMBOL        tamano_cadena
  -------         DO            
  X:002BH         SYMBOL        i
  X:002CH         SYMBOL        d
  -------         ENDDO         
  C:B2E7H         LINE#         95
  C:B2F5H         LINE#         96
  C:B2F5H         LINE#         98
  C:B303H         LINE#         99
  C:B303H         LINE#         100
  C:B31AH         LINE#         101
  C:B324H         LINE#         102
  C:B32CH         LINE#         103
  -------         ENDPROC       _ESCRIBIRCADENASOFT_BUFFER
  -------         PROC          INICIA_BOARD
  C:BD62H         LINE#         108
  C:BD62H         LINE#         109
  C:BD62H         LINE#         110
  C:BD65H         LINE#         111
  C:BD68H         LINE#         112
  C:BD6BH         LINE#         113
  C:BD6DH         LINE#         114
  C:BD6FH         LINE#         115
  C:BD71H         LINE#         117
  -------         ENDPROC       INICIA_BOARD
  -------         PROC          VARIABLE_INICIO
  C:B004H         LINE#         122
  C:B004H         LINE#         123
  C:B004H         LINE#         126
  C:B015H         LINE#         127
  C:B026H         LINE#         128
  C:B034H         LINE#         129
  C:B042H         LINE#         130
  C:B050H         LINE#         134
  -------         ENDPROC       VARIABLE_INICIO
  -------         PROC          MAIN
  -------         DO            
  X:0148H         SYMBOL        buffer
  X:0170H         SYMBOL        Estado_Comunicacion_Secuencia_MF
  X:0000H         SYMBOL        Length_trama
  -------         ENDDO         
  C:A7EAH         LINE#         142
  C:A7EAH         LINE#         143
  C:A7EAH         LINE#         150
  C:A7EDH         LINE#         151
  C:A7F0H         LINE#         152
  C:A7F3H         LINE#         153
  C:A7F6H         LINE#         154
  C:A7F9H         LINE#         155
  C:A7FBH         LINE#         157
  C:A7FEH         LINE#         158
  C:A805H         LINE#         159
  C:A808H         LINE#         161
  C:A80DH         LINE#         162
BL51 BANKED LINKER/LOCATER V6.22.2.0                                                  09/02/2021  16:32:27  PAGE 27


  C:A80FH         LINE#         163
  C:A812H         LINE#         165
  C:A815H         LINE#         166
  C:A815H         LINE#         167
  C:A818H         LINE#         168
  C:A818H         LINE#         171
  C:A81BH         LINE#         172
  C:A821H         LINE#         173
  C:A827H         LINE#         175
  C:A827H         LINE#         176
  C:A827H         LINE#         178
  C:A82AH         LINE#         179
  C:A82AH         LINE#         180
  C:A82DH         LINE#         181
  C:A82DH         LINE#         185
  C:A83AH         LINE#         190
  C:A840H         LINE#         191
  C:A840H         LINE#         193
  C:A84FH         LINE#         196
  C:A858H         LINE#         197
  C:A866H         LINE#         202
  C:A866H         LINE#         203
  C:A869H         LINE#         206
  -------         ENDPROC       MAIN
  -------         ENDMOD        MAIN

  -------         MODULE        ACCESCAN
  C:0000H         SYMBOL        _ICE_DUMMY_
  D:0080H         PUBLIC        P0
  D:0090H         PUBLIC        P1
  D:00B0H         PUBLIC        P3
  C:B482H         PUBLIC        _Monitor_chr
  B:0080H.3       PUBLIC        Atascado_GP0_PIN_3
  B:0090H.7       PUBLIC        lock
  C:34A7H         PUBLIC        _Valida_Trama_Pto
  C:8AA8H         PUBLIC        _Cmd_LPR_Salida_wiegand
  -------         PROC          _VALIDA_TRAMA_PTO
  X:0001H         SYMBOL        buffer
  X:0004H         SYMBOL        length_trama
  -------         DO            
  X:021DH         SYMBOL        cont
  X:0005H         SYMBOL        bcc
  D:0004H         SYMBOL        j
  X:0006H         SYMBOL        buff
  -------         ENDDO         
  C:34A7H         LINE#         113
  C:34B5H         LINE#         114
  C:34B5H         LINE#         117
  C:34B8H         LINE#         123
  C:34FBH         LINE#         124
  C:34FBH         LINE#         125
  C:3504H         LINE#         126
  C:3519H         LINE#         127
  C:3522H         LINE#         128
  C:352FH         LINE#         129
  C:352FH         LINE#         130
  C:354BH         LINE#         131
BL51 BANKED LINKER/LOCATER V6.22.2.0                                                  09/02/2021  16:32:27  PAGE 28


  C:354EH         LINE#         133
  C:3557H         LINE#         134
  C:355FH         LINE#         135
  C:3568H         LINE#         136
  C:3581H         LINE#         137
  C:3581H         LINE#         139
  C:3591H         LINE#         140
  C:3591H         LINE#         141
  C:35A4H         LINE#         143
  C:35A7H         LINE#         145
  C:35A7H         LINE#         148
  C:35A7H         LINE#         150
  C:35A7H         LINE#         152
  C:35ADH         LINE#         153
  C:35B1H         LINE#         154
  C:35B5H         LINE#         155
  C:35B8H         LINE#         156
  C:35C3H         LINE#         158
  C:35CCH         LINE#         159
  C:35D4H         LINE#         160
  C:35DCH         LINE#         161
  C:35E4H         LINE#         162
  C:35EDH         LINE#         163
  C:35EDH         LINE#         166
  C:35EDH         LINE#         169
  C:35FFH         LINE#         170
  C:35FFH         LINE#         171
  C:3601H         LINE#         172
  C:3604H         LINE#         174
  C:3616H         LINE#         175
  C:3616H         LINE#         176
  C:3618H         LINE#         177
  C:361BH         LINE#         179
  C:362DH         LINE#         180
  C:362DH         LINE#         181
  C:362FH         LINE#         182
  C:3632H         LINE#         184
  C:364CH         LINE#         185
  C:364CH         LINE#         186
  C:364EH         LINE#         187
  C:3651H         LINE#         189
  C:366BH         LINE#         190
  C:366BH         LINE#         191
  C:366DH         LINE#         192
  C:3670H         LINE#         194
  C:3682H         LINE#         195
  C:3682H         LINE#         196
  C:3688H         LINE#         197
  C:3695H         LINE#         198
  C:3695H         LINE#         199
  C:369AH         LINE#         201
  C:369FH         LINE#         202
  C:36A1H         LINE#         203
  C:36A3H         LINE#         204
  C:36A7H         LINE#         205
  C:36A7H         LINE#         206
  C:36A8H         LINE#         208
BL51 BANKED LINKER/LOCATER V6.22.2.0                                                  09/02/2021  16:32:27  PAGE 29


  C:36C0H         LINE#         209
  C:36C0H         LINE#         211
  C:36CDH         LINE#         212
  C:36CDH         LINE#         213
  C:36CFH         LINE#         214
  C:36D1H         LINE#         216
  C:36D3H         LINE#         217
  C:36D3H         LINE#         219
  C:36F9H         LINE#         220
  C:36F9H         LINE#         221
  C:36FDH         LINE#         222
  C:3702H         LINE#         223
  C:370BH         LINE#         224
  C:3710H         LINE#         225
  C:3710H         LINE#         228
  C:3711H         LINE#         230
  C:372BH         LINE#         231
  C:372BH         LINE#         232
  C:372DH         LINE#         233
  C:3730H         LINE#         235
  C:3763H         LINE#         236
  C:3763H         LINE#         238
  C:3763H         LINE#         240
  C:377DH         LINE#         241
  C:377DH         LINE#         242
  C:377FH         LINE#         243
  C:3782H         LINE#         245
  C:379CH         LINE#         246
  C:379CH         LINE#         247
  C:379EH         LINE#         248
  C:37A0H         LINE#         250
  C:37BAH         LINE#         251
  C:37BAH         LINE#         252
  C:37BCH         LINE#         253
  C:37BEH         LINE#         256
  C:37D8H         LINE#         257
  C:37D8H         LINE#         258
  C:37DAH         LINE#         259
  C:37DCH         LINE#         263
  C:37F6H         LINE#         264
  C:37F6H         LINE#         265
  C:37F8H         LINE#         266
  C:37FAH         LINE#         269
  C:3814H         LINE#         270
  C:3814H         LINE#         271
  C:3819H         LINE#         272
  C:3819H         LINE#         275
  C:384AH         LINE#         276
  C:384AH         LINE#         277
  C:3852H         LINE#         278
  C:385BH         LINE#         279
  C:385EH         LINE#         282
  C:388FH         LINE#         283
  C:388FH         LINE#         285
  C:3897H         LINE#         286
  C:38A0H         LINE#         287
  C:38A3H         LINE#         290
BL51 BANKED LINKER/LOCATER V6.22.2.0                                                  09/02/2021  16:32:27  PAGE 30


  C:38E3H         LINE#         291
  C:38E3H         LINE#         293
  C:38F8H         LINE#         294
  C:38FEH         LINE#         295
  C:3928H         LINE#         298
  C:3930H         LINE#         299
  C:3930H         LINE#         302
  C:3937H         LINE#         303
  C:3937H         LINE#         304
  C:393CH         LINE#         305
  C:393CH         LINE#         306
  C:393EH         LINE#         308
  C:393EH         LINE#         309
  C:3947H         LINE#         310
  C:394FH         LINE#         311
  C:394FH         LINE#         315
  C:3951H         LINE#         318
  C:3951H         LINE#         326
  C:3959H         LINE#         330
  C:3959H         LINE#         331
  C:395BH         LINE#         333
  C:3993H         LINE#         334
  C:3993H         LINE#         335
  C:399BH         LINE#         336
  C:39A7H         LINE#         337
  C:39A7H         LINE#         339
  C:39D4H         LINE#         340
  C:39D4H         LINE#         341
  C:39E3H         LINE#         343
  C:39E3H         LINE#         345
  -------         ENDPROC       _VALIDA_TRAMA_PTO
  -------         PROC          _MONITOR_CHR
  X:0033H         SYMBOL        str
  X:0036H         SYMBOL        num_char
  -------         DO            
  X:0037H         SYMBOL        j
  -------         ENDDO         
  C:B482H         LINE#         500
  C:B490H         LINE#         501
  C:B490H         LINE#         503
  C:B49EH         LINE#         504
  C:B49EH         LINE#         505
  C:B4B0H         LINE#         506
  C:B4BAH         LINE#         507
  C:B4C2H         LINE#         508
  -------         ENDPROC       _MONITOR_CHR
  -------         PROC          _CMD_LPR_SALIDA_WIEGAND
  X:0011H         SYMBOL        buffer
  -------         DO            
  X:0014H         SYMBOL        Buffer_Lpr
  X:0032H         SYMBOL        j
  -------         ENDDO         
  C:8AA8H         LINE#         513
  C:8AB3H         LINE#         514
  C:8AB3H         LINE#         516
  C:8AB9H         LINE#         517
  C:8ABEH         LINE#         518
BL51 BANKED LINKER/LOCATER V6.22.2.0                                                  09/02/2021  16:32:27  PAGE 31


  C:8AC6H         LINE#         519
  C:8ACAH         LINE#         520
  C:8AD3H         LINE#         521
  C:8AD3H         LINE#         522
  C:8AE4H         LINE#         523
  C:8AE6H         LINE#         525
  C:8AE6H         LINE#         526
  C:8AF7H         LINE#         527
  C:8AF7H         LINE#         531
  C:8B0EH         LINE#         532
  C:8B0EH         LINE#         533
  C:8B1DH         LINE#         534
  C:8B27H         LINE#         536
  C:8B2FH         LINE#         537
  C:8B43H         LINE#         539
  C:8B53H         LINE#         540
  C:8B64H         LINE#         541
  C:8B71H         LINE#         545
  -------         ENDPROC       _CMD_LPR_SALIDA_WIEGAND
  -------         ENDMOD        ACCESCAN

  -------         MODULE        CLOCK
  C:0000H         SYMBOL        _ICE_DUMMY_
  C:B4F7H         PUBLIC        _two_one
  D:0090H         PUBLIC        P1
  C:76D8H         PUBLIC        _validar_clk
  C:BAEFH         PUBLIC        _wr_clk
  C:8DE3H         PUBLIC        _check_fechaOut
  C:622BH         PUBLIC        _Block_read_clock_ascii_rasberry
  B:00D0H.7       PUBLIC        CY
  C:0003H         PUBLIC        p_ck
  C:9E3CH         PUBLIC        _hex_ascii
  C:ABD6H         PUBLIC        _hora_entrada_vehiculo
  X:021EH         PUBLIC        data_clk
  C:BDBAH         PUBLIC        cond_ini_clock
  C:8EACH         PUBLIC        _Block_read_Clock
  B:0090H.4       PUBLIC        sck
  C:980DH         PUBLIC        _Block_read_Clock_Hex
  C:65A6H         PUBLIC        _Block_read_clock_ascii
  C:B69CH         PUBLIC        _hex_bcd
  C:BC28H         PUBLIC        _bcd_hex
  C:ADECH         PUBLIC        _ByteHex_Decimal
  C:9F68H         PUBLIC        _lee_clk
  B:0090H.5       PUBLIC        io
  C:99FAH         PUBLIC        _Block_write_clock_ascii
  B:0090H.6       PUBLIC        rst
  C:B5C5H         PUBLIC        _eb_clk
  C:46FEH         PUBLIC        _Two_ByteHex_Decimal
  -------         PROC          P_CK
  C:0003H         LINE#         69
  C:0003H         LINE#         70
  C:0003H         LINE#         71
  C:0005H         LINE#         72
  C:0008H         LINE#         73
  C:000AH         LINE#         74
  -------         ENDPROC       P_CK
  -------         PROC          _EB_CLK
BL51 BANKED LINKER/LOCATER V6.22.2.0                                                  09/02/2021  16:32:27  PAGE 32


  X:00B4H         SYMBOL        dir_clk
  -------         DO            
  X:00B5H         SYMBOL        nbits
  -------         ENDDO         
  C:B5C5H         LINE#         76
  C:B5CAH         LINE#         78
  C:B5CFH         LINE#         79
  C:B5CFH         LINE#         80
  C:B5D8H         LINE#         81
  C:B5DBH         LINE#         82
  C:B5DBH         LINE#         83
  C:B5DDH         LINE#         84
  C:B5DFH         LINE#         86
  C:B5DFH         LINE#         87
  C:B5E1H         LINE#         88
  C:B5E1H         LINE#         89
  C:B5E4H         LINE#         90
  C:B603H         LINE#         91
  -------         ENDPROC       _EB_CLK
  C:9F5EH         SYMBOL        L?0084
  -------         PROC          L?0083
  -------         ENDPROC       L?0083
  C:9F5EH         SYMBOL        L?0084
  -------         PROC          _LEE_CLK
  X:00B1H         SYMBOL        dir_clk
  -------         DO            
  X:00B2H         SYMBOL        nbits
  -------         ENDDO         
  C:9F68H         LINE#         93
  C:9F6DH         LINE#         95
  C:9F6FH         LINE#         96
  C:9F76H         LINE#         97
  C:9F7EH         LINE#         98
  C:9F97H         LINE#         99
  C:9F97H         LINE#         100
  C:9F9AH         LINE#         101
  C:9F9AH         LINE#         102
  C:9FA1H         LINE#         103
  C:9FABH         LINE#         104
  C:9FB0H         LINE#         105
  C:9FB0H         LINE#         106
  C:9FB0H         LINE#         107
  C:9FB3H         LINE#         108
  C:9FB3H         LINE#         109
  C:9FBAH         LINE#         110
  C:9FCBH         LINE#         111
  C:9FCBH         LINE#         112
  C:9FD3H         LINE#         113
  C:9FD3H         LINE#         114
  C:9FD3H         LINE#         115
  C:9FD6H         LINE#         116
  C:9FE6H         LINE#         117
  C:9FE8H         LINE#         118
  C:9FEDH         LINE#         119
  -------         ENDPROC       _LEE_CLK
  -------         PROC          _WR_CLK
  X:0014H         SYMBOL        dir_clk
BL51 BANKED LINKER/LOCATER V6.22.2.0                                                  09/02/2021  16:32:27  PAGE 33


  X:0015H         SYMBOL        byte
  C:BAEFH         LINE#         121
  C:BAF7H         LINE#         122
  C:BAF9H         LINE#         123
  C:BB00H         LINE#         124
  C:BB08H         LINE#         125
  C:BB11H         LINE#         126
  C:BB14H         LINE#         127
  C:BB16H         LINE#         129
  -------         ENDPROC       _WR_CLK
  C:B4C3H         SYMBOL        L?0079
  C:B4E1H         SYMBOL        L?0080
  -------         PROC          L?0078
  -------         ENDPROC       L?0078
  C:B4C3H         SYMBOL        L?0079
  C:B4E1H         SYMBOL        L?0080
  -------         PROC          _TWO_ONE
  D:0007H         SYMBOL        byte_h
  D:0005H         SYMBOL        byte_l
  -------         DO            
  D:0007H         SYMBOL        byte_out
  -------         ENDDO         
  C:B4F7H         LINE#         131
  C:B4F7H         LINE#         132
  C:B4F7H         LINE#         134
  C:B4FAH         LINE#         135
  C:B4FEH         LINE#         136
  C:B501H         LINE#         137
  C:B503H         LINE#         138
  C:B503H         LINE#         139
  -------         ENDPROC       _TWO_ONE
  -------         PROC          _VALIDAR_CLK
  D:0001H         SYMBOL        datos_clock
  -------         DO            
  D:0007H         SYMBOL        validador
  -------         ENDDO         
  C:76D8H         LINE#         143
  C:76D8H         LINE#         144
  C:76D8H         LINE#         145
  C:76DAH         LINE#         148
  C:76EFH         LINE#         149
  C:76EFH         LINE#         151
  C:7707H         LINE#         152
  C:7707H         LINE#         154
  C:771FH         LINE#         155
  C:771FH         LINE#         156
  C:7737H         LINE#         157
  C:7737H         LINE#         158
  C:774FH         LINE#         159
  C:774FH         LINE#         160
  C:7764H         LINE#         161
  C:7764H         LINE#         162
  C:7776H         LINE#         163
  C:7776H         LINE#         164
  C:7788H         LINE#         165
  C:7788H         LINE#         166
  C:779AH         LINE#         167
BL51 BANKED LINKER/LOCATER V6.22.2.0                                                  09/02/2021  16:32:27  PAGE 34


  C:779AH         LINE#         168
  C:77ACH         LINE#         169
  C:77ACH         LINE#         170
  C:77BEH         LINE#         171
  C:77BEH         LINE#         172
  C:77CEH         LINE#         173
  C:77CEH         LINE#         174
  C:77CEH         LINE#         175
  C:77CEH         LINE#         176
  C:77CFH         LINE#         178
  C:77CFH         LINE#         179
  C:77D1H         LINE#         180
  C:77D1H         LINE#         181
  C:77D2H         LINE#         183
  C:77D2H         LINE#         184
  C:77D4H         LINE#         186
  C:77D4H         LINE#         187
  C:77D5H         LINE#         189
  C:77D5H         LINE#         190
  C:77D7H         LINE#         192
  C:77D7H         LINE#         194
  C:77D8H         LINE#         196
  C:77D8H         LINE#         197
  C:77DAH         LINE#         199
  C:77DAH         LINE#         200
  C:77DBH         LINE#         202
  C:77DBH         LINE#         203
  C:77DDH         LINE#         205
  C:77DDH         LINE#         206
  C:77DEH         LINE#         208
  C:77DEH         LINE#         209
  C:77E0H         LINE#         211
  C:77E0H         LINE#         212
  C:77E1H         LINE#         214
  C:77E1H         LINE#         215
  C:77E3H         LINE#         217
  C:77E3H         LINE#         218
  C:77E3H         LINE#         220
  C:77E4H         LINE#         222
  C:77E4H         LINE#         223
  C:77E6H         LINE#         225
  C:77E6H         LINE#         227
  C:77E7H         LINE#         230
  C:77E7H         LINE#         231
  C:77E9H         LINE#         233
  C:77E9H         LINE#         235
  C:77EAH         LINE#         238
  C:77EAH         LINE#         239
  C:77ECH         LINE#         241
  C:77ECH         LINE#         243
  C:77ECH         LINE#         245
  -------         ENDPROC       _VALIDAR_CLK
  -------         PROC          _BLOCK_WRITE_CLOCK_ASCII
  X:0011H         SYMBOL        datos_clock
  -------         DO            
  D:0007H         SYMBOL        temp
  -------         ENDDO         
BL51 BANKED LINKER/LOCATER V6.22.2.0                                                  09/02/2021  16:32:27  PAGE 35


  C:99FAH         LINE#         251
  C:9A05H         LINE#         253
  C:9A05H         LINE#         256
  C:9A0EH         LINE#         257
  C:9A17H         LINE#         259
  C:9A21H         LINE#         260
  C:9A21H         LINE#         261
  C:9A21H         LINE#         262
  C:9A21H         LINE#         264
  C:9A2BH         LINE#         265
  C:9A35H         LINE#         266
  C:9A3FH         LINE#         267
  C:9A3FH         LINE#         268
  C:9A3FH         LINE#         269
  C:9A3FH         LINE#         271
  C:9A49H         LINE#         272
  C:9A49H         LINE#         273
  C:9A49H         LINE#         274
  C:9A49H         LINE#         276
  C:9A53H         LINE#         277
  C:9A53H         LINE#         278
  C:9A53H         LINE#         279
  C:9A53H         LINE#         281
  C:9A5DH         LINE#         282
  C:9A5DH         LINE#         283
  C:9A5DH         LINE#         284
  C:9A5DH         LINE#         286
  C:9A67H         LINE#         287
  C:9A71H         LINE#         288
  C:9A7BH         LINE#         289
  C:9A85H         LINE#         291
  C:9A95H         LINE#         292
  -------         ENDPROC       _BLOCK_WRITE_CLOCK_ASCII
  -------         PROC          _BCD_HEX
  D:0007H         SYMBOL        l_data
  -------         DO            
  D:0006H         SYMBOL        temp
  D:0005H         SYMBOL        j
  -------         ENDDO         
  C:BC28H         LINE#         298
  C:BC28H         LINE#         299
  C:BC28H         LINE#         301
  C:BC2AH         LINE#         302
  C:BC2EH         LINE#         303
  C:BC31H         LINE#         304
  C:BC33H         LINE#         305
  C:BC33H         LINE#         306
  C:BC37H         LINE#         307
  C:BC3EH         LINE#         308
  C:BC3EH         LINE#         309
  C:BC42H         LINE#         310
  C:BC45H         LINE#         311
  C:BC45H         LINE#         312
  C:BC45H         LINE#         313
  -------         ENDPROC       _BCD_HEX
  C:B68DH         SYMBOL        L?0082
  -------         PROC          L?0081
BL51 BANKED LINKER/LOCATER V6.22.2.0                                                  09/02/2021  16:32:27  PAGE 36


  -------         ENDPROC       L?0081
  C:B68DH         SYMBOL        L?0082
  -------         PROC          _HEX_BCD
  D:0007H         SYMBOL        byte
  -------         DO            
  D:0006H         SYMBOL        nibble_h
  D:0005H         SYMBOL        nibble_l
  D:0004H         SYMBOL        k
  D:0007H         SYMBOL        byte_out
  -------         ENDDO         
  C:B69CH         LINE#         317
  C:B69CH         LINE#         318
  C:B69CH         LINE#         323
  C:B69EH         LINE#         324
  C:B69FH         LINE#         326
  C:B6A5H         LINE#         327
  C:B6A5H         LINE#         328
  C:B6A6H         LINE#         329
  C:B6ABH         LINE#         330
  C:B6ABH         LINE#         331
  C:B6ACH         LINE#         332
  C:B6ADH         LINE#         333
  C:B6ADH         LINE#         334
  C:B6B0H         LINE#         335
  C:B6B4H         LINE#         336
  C:B6B7H         LINE#         337
  C:B6BAH         LINE#         338
  C:B6BCH         LINE#         339
  C:B6BCH         LINE#         341
  -------         ENDPROC       _HEX_BCD
  -------         PROC          _HEX_ASCII
  X:005DH         SYMBOL        datos
  X:0060H         SYMBOL        fecha_asii
  -------         DO            
  D:0007H         SYMBOL        dato
  -------         ENDDO         
  C:9E3CH         LINE#         342
  C:9E47H         LINE#         343
  C:9E47H         LINE#         347
  C:9E4AH         LINE#         348
  C:9E62H         LINE#         349
  C:9E77H         LINE#         350
  C:9E77H         LINE#         352
  C:9E7AH         LINE#         353
  C:9E95H         LINE#         354
  C:9E9DH         LINE#         355
  C:9E9DH         LINE#         357
  C:9EA0H         LINE#         358
  C:9EBBH         LINE#         359
  C:9EC6H         LINE#         361
  -------         ENDPROC       _HEX_ASCII
  -------         PROC          _BYTEHEX_DECIMAL
  D:0001H         SYMBOL        buffer
  D:0005H         SYMBOL        valorhex
  -------         DO            
  X:0018H         SYMBOL        numero
  D:0007H         SYMBOL        centena
BL51 BANKED LINKER/LOCATER V6.22.2.0                                                  09/02/2021  16:32:27  PAGE 37


  D:0006H         SYMBOL        decena
  -------         ENDDO         
  C:ADECH         LINE#         369
  C:ADECH         LINE#         370
  C:ADECH         LINE#         373
  C:ADEEH         LINE#         374
  C:ADEFH         LINE#         375
  C:ADF4H         LINE#         377
  C:AE01H         LINE#         378
  C:AE01H         LINE#         379
  C:AE05H         LINE#         380
  C:AE06H         LINE#         381
  C:AE08H         LINE#         382
  C:AE0EH         LINE#         383
  C:AE15H         LINE#         384
  C:AE22H         LINE#         385
  C:AE22H         LINE#         386
  C:AE26H         LINE#         387
  C:AE27H         LINE#         388
  C:AE29H         LINE#         389
  C:AE2FH         LINE#         390
  C:AE36H         LINE#         391
  C:AE3FH         LINE#         392
  C:AE46H         LINE#         393
  -------         ENDPROC       _BYTEHEX_DECIMAL
  -------         PROC          _TWO_BYTEHEX_DECIMAL
  X:0018H         SYMBOL        buffer
  X:001BH         SYMBOL        id_h
  X:001CH         SYMBOL        id_l
  -------         DO            
  X:001DH         SYMBOL        valor
  D:0006H         SYMBOL        numero
  X:001FH         SYMBOL        temp
  X:0020H         SYMBOL        dmil
  X:0021H         SYMBOL        mil
  X:0022H         SYMBOL        centena
  X:0023H         SYMBOL        decena
  -------         ENDDO         
  C:46FEH         LINE#         400
  C:470CH         LINE#         401
  C:470CH         LINE#         405
  C:4713H         LINE#         406
  C:4717H         LINE#         407
  C:4719H         LINE#         408
  C:471BH         LINE#         409
  C:471DH         LINE#         412
  C:4722H         LINE#         413
  C:4725H         LINE#         414
  C:472BH         LINE#         416
  C:4786H         LINE#         417
  C:478EH         LINE#         418
  C:4791H         LINE#         419
  C:47ECH         LINE#         421
  C:47F4H         LINE#         422
  C:47F7H         LINE#         423
  C:47FDH         LINE#         424
  C:4858H         LINE#         425
BL51 BANKED LINKER/LOCATER V6.22.2.0                                                  09/02/2021  16:32:27  PAGE 38


  C:4860H         LINE#         426
  C:4863H         LINE#         427
  C:48BEH         LINE#         428
  C:48BEH         LINE#         430
  C:48C7H         LINE#         431
  C:48C7H         LINE#         432
  C:48CFH         LINE#         433
  C:48D5H         LINE#         434
  C:48D7H         LINE#         435
  C:48EDH         LINE#         436
  C:48F7H         LINE#         437
  C:4900H         LINE#         438
  C:4900H         LINE#         439
  C:4908H         LINE#         440
  C:490EH         LINE#         441
  C:4910H         LINE#         442
  C:4926H         LINE#         443
  C:4930H         LINE#         444
  C:4939H         LINE#         445
  C:4939H         LINE#         446
  C:4941H         LINE#         447
  C:4947H         LINE#         448
  C:4949H         LINE#         449
  C:495FH         LINE#         450
  C:4969H         LINE#         451
  C:4972H         LINE#         452
  C:4972H         LINE#         453
  C:497AH         LINE#         454
  C:4980H         LINE#         455
  C:4982H         LINE#         456
  C:4998H         LINE#         457
  C:49A2H         LINE#         458
  C:49B5H         LINE#         459
  C:49BFH         LINE#         460
  -------         ENDPROC       _TWO_BYTEHEX_DECIMAL
  -------         PROC          _BLOCK_READ_CLOCK_ASCII
  X:0051H         SYMBOL        datos_clock
  -------         DO            
  D:0007H         SYMBOL        dato
  -------         ENDDO         
  C:65A6H         LINE#         466
  C:65A9H         LINE#         467
  C:65A9H         LINE#         473
  C:65ACH         LINE#         474
  C:65C4H         LINE#         475
  C:65CEH         LINE#         476
  C:65E3H         LINE#         477
  C:65EDH         LINE#         480
  C:65F2H         LINE#         481
  C:660AH         LINE#         482
  C:6614H         LINE#         483
  C:6629H         LINE#         484
  C:6633H         LINE#         487
  C:6638H         LINE#         488
  C:6650H         LINE#         489
  C:665AH         LINE#         490
  C:666FH         LINE#         491
BL51 BANKED LINKER/LOCATER V6.22.2.0                                                  09/02/2021  16:32:27  PAGE 39


  C:6679H         LINE#         495
  C:667EH         LINE#         496
  C:6696H         LINE#         497
  C:66A0H         LINE#         498
  C:66B5H         LINE#         499
  C:66BFH         LINE#         502
  C:66C4H         LINE#         503
  C:66DCH         LINE#         504
  C:66E6H         LINE#         505
  C:66FBH         LINE#         506
  C:6705H         LINE#         507
  -------         ENDPROC       _BLOCK_READ_CLOCK_ASCII
  -------         PROC          _BLOCK_READ_CLOCK_ASCII_RASBERRY
  X:001EH         SYMBOL        datos_clock
  -------         DO            
  D:0007H         SYMBOL        dato
  -------         ENDDO         
  C:622BH         LINE#         510
  C:6236H         LINE#         511
  C:6236H         LINE#         516
  C:623BH         LINE#         517
  C:6253H         LINE#         518
  C:625DH         LINE#         519
  C:6272H         LINE#         520
  C:627CH         LINE#         523
  C:6281H         LINE#         524
  C:6299H         LINE#         525
  C:62A3H         LINE#         526
  C:62B8H         LINE#         527
  C:62C2H         LINE#         531
  C:62C7H         LINE#         532
  C:62DFH         LINE#         533
  C:62E9H         LINE#         534
  C:62FEH         LINE#         535
  C:6308H         LINE#         540
  C:630DH         LINE#         541
  C:6325H         LINE#         542
  C:632FH         LINE#         543
  C:6344H         LINE#         544
  C:634EH         LINE#         547
  C:6353H         LINE#         548
  C:636BH         LINE#         549
  C:6375H         LINE#         550
  C:638AH         LINE#         551
  C:6394H         LINE#         552
  C:63A4H         LINE#         553
  C:63AEH         LINE#         556
  C:63B3H         LINE#         557
  C:63CBH         LINE#         558
  C:63D5H         LINE#         559
  C:63EAH         LINE#         561
  C:63F4H         LINE#         562
  -------         ENDPROC       _BLOCK_READ_CLOCK_ASCII_RASBERRY
  -------         PROC          _BLOCK_READ_CLOCK_HEX
  X:00AEH         SYMBOL        datos_clock
  C:980DH         LINE#         566
  C:9810H         LINE#         567
BL51 BANKED LINKER/LOCATER V6.22.2.0                                                  09/02/2021  16:32:27  PAGE 40


  C:9810H         LINE#         570
  C:9825H         LINE#         571
  C:982FH         LINE#         573
  C:9846H         LINE#         574
  C:9850H         LINE#         576
  C:9867H         LINE#         577
  C:9871H         LINE#         579
  C:9888H         LINE#         580
  C:9892H         LINE#         582
  C:98A9H         LINE#         583
  -------         ENDPROC       _BLOCK_READ_CLOCK_HEX
  -------         PROC          _HORA_ENTRADA_VEHICULO
  X:0009H         SYMBOL        Atributos_Expedidor
  C:ABD6H         LINE#         586
  C:ABD9H         LINE#         587
  C:ABD9H         LINE#         589
  C:ABEEH         LINE#         590
  C:AC05H         LINE#         591
  C:AC1CH         LINE#         592
  C:AC33H         LINE#         593
  -------         ENDPROC       _HORA_ENTRADA_VEHICULO
  -------         PROC          _BLOCK_READ_CLOCK
  X:001EH         SYMBOL        datos_clock
  C:8EACH         LINE#         599
  C:8EAFH         LINE#         600
  C:8EAFH         LINE#         602
  C:8EC1H         LINE#         603
  C:8ECBH         LINE#         605
  C:8EDFH         LINE#         606
  C:8EE9H         LINE#         608
  C:8EFDH         LINE#         609
  C:8F07H         LINE#         611
  C:8F1BH         LINE#         612
  C:8F25H         LINE#         614
  C:8F39H         LINE#         615
  C:8F43H         LINE#         617
  C:8F57H         LINE#         618
  C:8F61H         LINE#         619
  -------         ENDPROC       _BLOCK_READ_CLOCK
  -------         PROC          COND_INI_CLOCK
  C:BDBAH         LINE#         622
  C:BDBAH         LINE#         623
  C:BDBAH         LINE#         624
  C:BDBCH         LINE#         625
  C:BDBEH         LINE#         626
  C:BDC0H         LINE#         627
  -------         ENDPROC       COND_INI_CLOCK
  -------         PROC          _CHECK_FECHAOUT
  X:009CH         SYMBOL        buffer
  -------         DO            
  X:009FH         SYMBOL        fecha_inicio
  X:00A3H         SYMBOL        fecha_fin
  X:00A7H         SYMBOL        datos_clk
  X:00ADH         SYMBOL        temp
  -------         ENDDO         
  C:8DE3H         LINE#         637
  C:8DEEH         LINE#         638
BL51 BANKED LINKER/LOCATER V6.22.2.0                                                  09/02/2021  16:32:27  PAGE 41


  C:8DEEH         LINE#         644
  C:8DF7H         LINE#         645
  C:8E26H         LINE#         646
  C:8E79H         LINE#         649
  C:8E99H         LINE#         650
  C:8E99H         LINE#         651
  C:8E9FH         LINE#         652
  C:8EA1H         LINE#         654
  C:8EA1H         LINE#         655
  C:8EA6H         LINE#         656
  C:8EA6H         LINE#         660
  C:8EABH         LINE#         661
  -------         ENDPROC       _CHECK_FECHAOUT
  -------         ENDMOD        CLOCK

  -------         MODULE        DELAY
  C:0000H         SYMBOL        _ICE_DUMMY_
  C:B825H         PUBLIC        _Delay_10ms
  C:BCE6H         PUBLIC        _Delay_20us
  C:BC46H         PUBLIC        _Delay_1ms
  C:BE05H         PUBLIC        Delay
  -------         PROC          _DELAY_20US
  D:0006H         SYMBOL        cntd_us
  -------         DO            
  D:0004H         SYMBOL        i
  -------         ENDDO         
  C:BCE6H         LINE#         20
  C:BCE6H         LINE#         21
  C:BCE6H         LINE#         24
  C:BCF0H         LINE#         26
  C:BCF7H         LINE#         27
  -------         ENDPROC       _DELAY_20US
  -------         PROC          _DELAY_1MS
  D:0002H         SYMBOL        cntd_ms
  -------         DO            
  D:0082H         SYMBOL        i
  -------         ENDDO         
  C:BC46H         LINE#         38
  C:BC4AH         LINE#         39
  C:BC4AH         LINE#         41
  C:BC60H         LINE#         42
  -------         ENDPROC       _DELAY_1MS
  -------         PROC          _DELAY_10MS
  X:0017H         SYMBOL        cntd_10ms
  -------         DO            
  X:0019H         SYMBOL        i
  -------         ENDDO         
  C:B825H         LINE#         54
  C:B82DH         LINE#         55
  C:B82DH         LINE#         57
  C:B85EH         LINE#         58
  -------         ENDPROC       _DELAY_10MS
  -------         PROC          DELAY
  C:BE05H         LINE#         60
  C:BE05H         LINE#         62
  -------         ENDPROC       DELAY
  -------         ENDMOD        DELAY
BL51 BANKED LINKER/LOCATER V6.22.2.0                                                  09/02/2021  16:32:27  PAGE 42



  -------         MODULE        EEPROM
  C:0000H         SYMBOL        _ICE_DUMMY_
  D:0090H         PUBLIC        P1
  C:81D9H         PUBLIC        _Write_EEprom_Ticket
  C:AC4AH         PUBLIC        _EscribirMemoria
  X:0212H         PUBLIC        l_chr
  C:BBCCH         PUBLIC        ackd
  B:0021H.6       PUBLIC        memory_flag
  B:00D0H.7       PUBLIC        CY
  C:BDF2H         PUBLIC        p_me
  C:BD00H         PUBLIC        start
  B:0090H.2       PUBLIC        sda
  C:BBECH         PUBLIC        ack_lect
  B:0090H.3       PUBLIC        scl
  C:B6C1H         PUBLIC        _rd_eeprom
  C:BD9DH         PUBLIC        stop
  X:0213H         PUBLIC        l_data_eeprom
  C:AF76H         PUBLIC        _wr_eeprom
  C:AD24H         PUBLIC        _LeerMemoria
  C:B974H         PUBLIC        Incremente_Ticket
  X:0214H         PUBLIC        byte_rd
  C:8D19H         PUBLIC        Read_EEprom_Ticket
  C:BB64H         PUBLIC        _e_d_m
  C:8C4DH         PUBLIC        _graba_serie
  C:B09EH         PUBLIC        Lee_No_Ticket
  C:B051H         PUBLIC        l_d_m
  -------         PROC          L?0057
  -------         ENDPROC       L?0057
  -------         PROC          ACKD
  -------         DO            
  D:0006H         SYMBOL        i
  -------         ENDDO         
  C:BBCCH         LINE#         39
  C:BBCCH         LINE#         40
  C:BBCCH         LINE#         42
  C:BBCEH         LINE#         43
  C:BBD0H         LINE#         44
  C:BBD2H         LINE#         45
  C:BBD5H         LINE#         46
  C:BBD5H         LINE#         47
  C:BBD8H         LINE#         48
  C:BBD8H         LINE#         49
  C:BBDAH         LINE#         50
  C:BBDCH         LINE#         52
  C:BBDDH         LINE#         53
  C:BBDDH         LINE#         54
  C:BBE8H         LINE#         56
  C:BBE8H         LINE#         57
  C:BBE8H         LINE#         59
  C:BBE8H         LINE#         60
  -------         ENDPROC       ACKD
  -------         PROC          L?0061
  -------         ENDPROC       L?0061
  -------         PROC          ACK_LECT
  -------         DO            
  D:0006H         SYMBOL        i
BL51 BANKED LINKER/LOCATER V6.22.2.0                                                  09/02/2021  16:32:27  PAGE 43


  -------         ENDDO         
  C:BBECH         LINE#         63
  C:BBECH         LINE#         64
  C:BBECH         LINE#         66
  C:BBEEH         LINE#         67
  C:BBF0H         LINE#         68
  C:BBF2H         LINE#         69
  C:BBF5H         LINE#         70
  C:BBF5H         LINE#         71
  C:BBF8H         LINE#         72
  C:BBF8H         LINE#         73
  C:BBFAH         LINE#         74
  C:BBFCH         LINE#         75
  C:BBFDH         LINE#         76
  C:BBFDH         LINE#         77
  C:BC08H         LINE#         78
  -------         ENDPROC       ACK_LECT
  -------         PROC          P_ME
  C:BDF2H         LINE#         80
  C:BDF2H         LINE#         81
  C:BDF2H         LINE#         82
  C:BDF4H         LINE#         83
  C:BDF5H         LINE#         84
  C:BDF7H         LINE#         85
  -------         ENDPROC       P_ME
  -------         PROC          _E_D_M
  D:0007H         SYMBOL        a_serial_eeprom
  -------         DO            
  D:0006H         SYMBOL        nbits
  -------         ENDDO         
  C:BB64H         LINE#         87
  C:BB64H         LINE#         88
  C:BB64H         LINE#         90
  C:BB70H         LINE#         91
  C:BB70H         LINE#         92
  C:BB74H         LINE#         93
  C:BB77H         LINE#         94
  C:BB77H         LINE#         95
  C:BB79H         LINE#         96
  C:BB7BH         LINE#         98
  C:BB7BH         LINE#         99
  C:BB7DH         LINE#         100
  C:BB7DH         LINE#         101
  C:BB7FH         LINE#         102
  C:BB82H         LINE#         103
  C:BB85H         LINE#         105
  -------         ENDPROC       _E_D_M
  -------         PROC          L?0058
  -------         ENDPROC       L?0058
  -------         PROC          START
  C:BD00H         LINE#         107
  C:BD00H         LINE#         108
  C:BD00H         LINE#         109
  C:BD02H         LINE#         110
  C:BD04H         LINE#         111
  C:BD05H         LINE#         112
  C:BD07H         LINE#         113
BL51 BANKED LINKER/LOCATER V6.22.2.0                                                  09/02/2021  16:32:27  PAGE 44


  C:BD09H         LINE#         115
  -------         ENDPROC       START
  -------         PROC          STOP
  C:BD9DH         LINE#         117
  C:BD9DH         LINE#         118
  C:BD9DH         LINE#         119
  C:BD9FH         LINE#         120
  C:BDA1H         LINE#         121
  C:BDA2H         LINE#         122
  C:BDA4H         LINE#         123
  C:BDA6H         LINE#         125
  -------         ENDPROC       STOP
  -------         PROC          L_D_M
  -------         DO            
  D:0003H         SYMBOL        nbits
  -------         ENDDO         
  C:B051H         LINE#         127
  C:B051H         LINE#         128
  C:B051H         LINE#         130
  C:B05EH         LINE#         131
  C:B05EH         LINE#         132
  C:B060H         LINE#         133
  C:B063H         LINE#         134
  C:B063H         LINE#         135
  C:B06AH         LINE#         136
  C:B073H         LINE#         137
  C:B073H         LINE#         138
  C:B077H         LINE#         139
  C:B079H         LINE#         140
  C:B079H         LINE#         141
  C:B079H         LINE#         142
  C:B07CH         LINE#         143
  C:B07CH         LINE#         144
  C:B083H         LINE#         145
  C:B08DH         LINE#         146
  C:B08DH         LINE#         147
  C:B091H         LINE#         148
  C:B093H         LINE#         149
  C:B093H         LINE#         150
  C:B093H         LINE#         151
  C:B096H         LINE#         152
  C:B098H         LINE#         153
  C:B09DH         LINE#         154
  -------         ENDPROC       L_D_M
  -------         PROC          L?0056
  -------         ENDPROC       L?0056
  -------         PROC          _WR_EEPROM
  D:0002H         SYMBOL        control
  D:0004H         SYMBOL        Dir
  D:0003H         SYMBOL        data_eeprom
  -------         DO            
  D:0005H         SYMBOL        dir_h
  D:0001H         SYMBOL        dir_l
  -------         ENDDO         
  C:AF76H         LINE#         160
  C:AF78H         LINE#         161
  C:AF78H         LINE#         163
BL51 BANKED LINKER/LOCATER V6.22.2.0                                                  09/02/2021  16:32:27  PAGE 45


  C:AF7CH         LINE#         164
  C:AF7CH         LINE#         165
  C:AF7CH         LINE#         168
  C:AF7CH         LINE#         169
  C:AF7CH         LINE#         171
  C:AF7FH         LINE#         172
  C:AF81H         LINE#         173
  C:AF84H         LINE#         174
  C:AF86H         LINE#         175
  C:AF89H         LINE#         176
  C:AF8EH         LINE#         177
  C:AF91H         LINE#         178
  C:AF96H         LINE#         179
  C:AF99H         LINE#         180
  C:AF9CH         LINE#         181
  C:AFA3H         LINE#         183
  C:AFA5H         LINE#         184
  C:AFA7H         LINE#         185
  C:AFAEH         LINE#         186
  -------         ENDPROC       _WR_EEPROM
  C:B6BDH         SYMBOL        L?0060
  -------         PROC          L?0059
  -------         ENDPROC       L?0059
  C:B6BDH         SYMBOL        L?0060
  -------         PROC          _RD_EEPROM
  D:0003H         SYMBOL        control
  D:0004H         SYMBOL        Dir
  -------         DO            
  D:0005H         SYMBOL        dir_h
  D:0002H         SYMBOL        dir_l
  -------         ENDDO         
  C:B6C1H         LINE#         224
  C:B6C3H         LINE#         225
  C:B6C3H         LINE#         228
  C:B6C7H         LINE#         229
  C:B6C7H         LINE#         230
  C:B6C7H         LINE#         232
  C:B6C7H         LINE#         233
  C:B6C7H         LINE#         235
  C:B6CAH         LINE#         236
  C:B6CCH         LINE#         237
  C:B6CFH         LINE#         238
  C:B6D1H         LINE#         239
  C:B6D4H         LINE#         240
  C:B6D9H         LINE#         241
  C:B6DCH         LINE#         242
  C:B6DFH         LINE#         243
  C:B6E5H         LINE#         244
  C:B6E8H         LINE#         245
  C:B6EAH         LINE#         246
  C:B6EDH         LINE#         247
  C:B6F0H         LINE#         248
  C:B6F2H         LINE#         249
  C:B6F4H         LINE#         250
  C:B6F9H         LINE#         251
  -------         ENDPROC       _RD_EEPROM
  -------         PROC          _GRABA_SERIE
BL51 BANKED LINKER/LOCATER V6.22.2.0                                                  09/02/2021  16:32:27  PAGE 46


  X:0011H         SYMBOL        buffer
  -------         DO            
  X:0014H         SYMBOL        j
  X:0015H         SYMBOL        error
  -------         ENDDO         
  C:8C4DH         LINE#         258
  C:8C58H         LINE#         259
  C:8C58H         LINE#         262
  C:8C5DH         LINE#         267
  C:8C6FH         LINE#         269
  C:8C82H         LINE#         270
  C:8C82H         LINE#         271
  C:8CABH         LINE#         272
  C:8CABH         LINE#         273
  C:8CB1H         LINE#         275
  C:8CBAH         LINE#         276
  C:8CC8H         LINE#         277
  C:8CD1H         LINE#         278
  C:8CD1H         LINE#         280
  C:8CD9H         LINE#         284
  C:8CDFH         LINE#         285
  C:8CDFH         LINE#         286
  C:8CEDH         LINE#         288
  C:8CEDH         LINE#         290
  C:8CEDH         LINE#         291
  C:8CF7H         LINE#         292
  C:8D02H         LINE#         293
  C:8D0DH         LINE#         294
  C:8D18H         LINE#         296
  C:8D18H         LINE#         297
  -------         ENDPROC       _GRABA_SERIE
  -------         PROC          _WRITE_EEPROM_TICKET
  X:0016H         SYMBOL        buffer
  -------         DO            
  X:0019H         SYMBOL        cod_3
  X:001AH         SYMBOL        cod_2
  X:001BH         SYMBOL        cod_1
  X:001CH         SYMBOL        cod_0
  X:001DH         SYMBOL        Noticket
  D:0004H         SYMBOL        Bnoticket
  -------         ENDDO         
  C:81D9H         LINE#         298
  C:81E4H         LINE#         299
  C:81E4H         LINE#         301
  C:81ECH         LINE#         302
  C:81F5H         LINE#         303
  C:8203H         LINE#         304
  C:820CH         LINE#         305
  C:8220H         LINE#         307
  C:8229H         LINE#         308
  C:823CH         LINE#         309
  C:8241H         LINE#         310
  C:8244H         LINE#         312
  C:8257H         LINE#         313
  C:825CH         LINE#         314
  C:825FH         LINE#         316
  C:8272H         LINE#         317
BL51 BANKED LINKER/LOCATER V6.22.2.0                                                  09/02/2021  16:32:27  PAGE 47


  C:8277H         LINE#         318
  C:827AH         LINE#         320
  C:8286H         LINE#         321
  C:8289H         LINE#         322
  C:8292H         LINE#         324
  C:82A0H         LINE#         325
  C:82AEH         LINE#         326
  C:82BCH         LINE#         327
  -------         ENDPROC       _WRITE_EEPROM_TICKET
  -------         PROC          LEE_NO_TICKET
  -------         DO            
  D:0004H         SYMBOL        Noticket
  X:0059H         SYMBOL        Lee_No_Ticket
  D:0007H         SYMBOL        num_chr
  -------         ENDDO         
  C:B09EH         LINE#         332
  C:B09EH         LINE#         333
  C:B09EH         LINE#         337
  C:B0A1H         LINE#         338
  C:B0BCH         LINE#         339
  C:B0C5H         LINE#         340
  C:B0D1H         LINE#         341
  C:B0DAH         LINE#         342
  C:B0E3H         LINE#         343
  C:B0E9H         LINE#         344
  -------         ENDPROC       LEE_NO_TICKET
  -------         PROC          READ_EEPROM_TICKET
  -------         DO            
  D:0001H         SYMBOL        cod3
  X:0064H         SYMBOL        cod2
  X:0065H         SYMBOL        cod1
  X:0066H         SYMBOL        cod0
  X:0067H         SYMBOL        Noticket
  -------         ENDDO         
  C:8D19H         LINE#         348
  C:8D19H         LINE#         349
  C:8D19H         LINE#         351
  C:8D23H         LINE#         352
  C:8D2AH         LINE#         353
  C:8D34H         LINE#         354
  C:8D42H         LINE#         355
  C:8D4CH         LINE#         357
  C:8D6CH         LINE#         358
  C:8D91H         LINE#         359
  C:8DB6H         LINE#         360
  C:8DD4H         LINE#         361
  C:8DE2H         LINE#         362
  -------         ENDPROC       READ_EEPROM_TICKET
  -------         PROC          INCREMENTE_TICKET
  -------         DO            
  D:0004H         SYMBOL        Noticket
  X:0009H         SYMBOL        Lee_No_Ticket
  -------         ENDDO         
  C:B974H         LINE#         366
  C:B974H         LINE#         367
  C:B974H         LINE#         371
  C:B977H         LINE#         372
BL51 BANKED LINKER/LOCATER V6.22.2.0                                                  09/02/2021  16:32:27  PAGE 48


  C:B984H         LINE#         373
  C:B99FH         LINE#         374
  -------         ENDPROC       INCREMENTE_TICKET
  -------         PROC          _LEERMEMORIA
  X:009CH         SYMBOL        addres
  X:009EH         SYMBOL        res
  -------         DO            
  D:0007H         SYMBOL        i
  -------         ENDDO         
  C:AD24H         LINE#         380
  C:AD35H         LINE#         381
  C:AD35H         LINE#         383
  C:AD35H         LINE#         384
  C:AD51H         LINE#         385
  C:AD60H         LINE#         386
  C:AD6EH         LINE#         387
  C:AD78H         LINE#         388
  C:AD7BH         LINE#         389
  -------         ENDPROC       _LEERMEMORIA
  -------         PROC          _ESCRIBIRMEMORIA
  X:005DH         SYMBOL        addres
  X:005FH         SYMBOL        res
  C:AC4AH         LINE#         391
  C:AC5BH         LINE#         392
  C:AC5BH         LINE#         395
  C:AC6BH         LINE#         396
  C:AC72H         LINE#         397
  C:AC75H         LINE#         399
  C:AC83H         LINE#         400
  C:AC8DH         LINE#         401
  C:AC8FH         LINE#         402
  C:AC92H         LINE#         403
  C:ACA0H         LINE#         404
  C:ACAAH         LINE#         405
  -------         ENDPROC       _ESCRIBIRMEMORIA
  -------         ENDMOD        EEPROM

  -------         MODULE        IO_SENSORES
  C:0000H         SYMBOL        _ICE_DUMMY_
  D:0090H         PUBLIC        P1
  D:00B0H         PUBLIC        P3
  C:B3FDH         PUBLIC        Dir_board
  B:0021H.7       PUBLIC        PULSADOR_BOTTON
  C:BDCFH         PUBLIC        sel_Pulsa
  B:0090H.1       PUBLIC        DataIn
  C:BC92H         PUBLIC        Dir_Board_Monitor
  C:BDC8H         PUBLIC        sel_Auto
  C:B898H         PUBLIC        ValidaSensoresPaso
  B:00B0H.3       PUBLIC        busy
  C:BC09H         PUBLIC        ValidaSensor
  C:BDDDH         PUBLIC        sel_Sensor1
  C:BDD6H         PUBLIC        sel_Sensor2
  C:BB86H         PUBLIC        ValidaSensor_cero
  C:AF04H         PUBLIC        Valida_Sensor1_Auto
  B:00B0H.5       PUBLIC        sel_A
  B:00B0H.6       PUBLIC        sel_B
  B:00B0H.7       PUBLIC        sel_C
BL51 BANKED LINKER/LOCATER V6.22.2.0                                                  09/02/2021  16:32:27  PAGE 49


  C:960BH         PUBLIC        msj_lcd_informativo
  C:BDE4H         PUBLIC        sel_Dir1
  C:BDEBH         PUBLIC        sel_Dir2
  C:BD0AH         PUBLIC        Botton
  C:BDC1H         PUBLIC        sel_Funcion
  -------         PROC          SEL_FUNCION
  C:BDC1H         LINE#         34
  C:BDC1H         LINE#         35
  C:BDC1H         LINE#         36
  C:BDC3H         LINE#         37
  C:BDC5H         LINE#         38
  C:BDC7H         LINE#         39
  -------         ENDPROC       SEL_FUNCION
  -------         PROC          SEL_AUTO
  C:BDC8H         LINE#         41
  C:BDC8H         LINE#         42
  C:BDC8H         LINE#         43
  C:BDCAH         LINE#         44
  C:BDCCH         LINE#         45
  C:BDCEH         LINE#         46
  -------         ENDPROC       SEL_AUTO
  -------         PROC          SEL_PULSA
  C:BDCFH         LINE#         48
  C:BDCFH         LINE#         49
  C:BDCFH         LINE#         50
  C:BDD1H         LINE#         51
  C:BDD3H         LINE#         52
  C:BDD5H         LINE#         53
  -------         ENDPROC       SEL_PULSA
  -------         PROC          SEL_SENSOR2
  C:BDD6H         LINE#         56
  C:BDD6H         LINE#         57
  C:BDD6H         LINE#         58
  C:BDD8H         LINE#         59
  C:BDDAH         LINE#         60
  C:BDDCH         LINE#         61
  -------         ENDPROC       SEL_SENSOR2
  -------         PROC          SEL_SENSOR1
  C:BDDDH         LINE#         63
  C:BDDDH         LINE#         64
  C:BDDDH         LINE#         65
  C:BDDFH         LINE#         66
  C:BDE1H         LINE#         67
  C:BDE3H         LINE#         68
  -------         ENDPROC       SEL_SENSOR1
  -------         PROC          SEL_DIR1
  C:BDE4H         LINE#         70
  C:BDE4H         LINE#         71
  C:BDE4H         LINE#         72
  C:BDE6H         LINE#         73
  C:BDE8H         LINE#         74
  C:BDEAH         LINE#         75
  -------         ENDPROC       SEL_DIR1
  -------         PROC          SEL_DIR2
  C:BDEBH         LINE#         77
  C:BDEBH         LINE#         78
  C:BDEBH         LINE#         79
BL51 BANKED LINKER/LOCATER V6.22.2.0                                                  09/02/2021  16:32:27  PAGE 50


  C:BDEDH         LINE#         80
  C:BDEFH         LINE#         81
  C:BDF1H         LINE#         82
  -------         ENDPROC       SEL_DIR2
  -------         PROC          BOTTON
  C:BD0AH         LINE#         83
  C:BD0AH         LINE#         84
  C:BD0AH         LINE#         85
  C:BD0DH         LINE#         86
  C:BD10H         LINE#         87
  C:BD10H         LINE#         88
  C:BD19H         LINE#         89
  C:BD1BH         LINE#         90
  C:BD1BH         LINE#         92
  -------         ENDPROC       BOTTON
  -------         PROC          VALIDASENSOR
  -------         DO            
  D:0007H         SYMBOL        Valido
  D:0004H         SYMBOL        Tmin
  -------         ENDDO         
  C:BC09H         LINE#         94
  C:BC09H         LINE#         95
  C:BC09H         LINE#         97
  C:BC0BH         LINE#         98
  C:BC0FH         LINE#         99
  C:BC1AH         LINE#         100
  C:BC1AH         LINE#         101
  C:BC1FH         LINE#         102
  C:BC23H         LINE#         103
  C:BC23H         LINE#         104
  C:BC25H         LINE#         105
  C:BC25H         LINE#         106
  C:BC27H         LINE#         107
  C:BC27H         LINE#         108
  -------         ENDPROC       VALIDASENSOR
  -------         PROC          VALIDASENSOR_CERO
  -------         DO            
  D:0007H         SYMBOL        Valido
  D:0004H         SYMBOL        Tmin
  -------         ENDDO         
  C:BB86H         LINE#         109
  C:BB86H         LINE#         110
  C:BB86H         LINE#         112
  C:BB88H         LINE#         113
  C:BB8CH         LINE#         114
  C:BB9BH         LINE#         115
  C:BB9BH         LINE#         116
  C:BBA0H         LINE#         117
  C:BBA4H         LINE#         118
  C:BBA4H         LINE#         119
  C:BBA5H         LINE#         120
  C:BBA5H         LINE#         121
  C:BBA7H         LINE#         122
  C:BBA7H         LINE#         123
  -------         ENDPROC       VALIDASENSOR_CERO
  -------         PROC          DIR_BOARD
  -------         DO            
BL51 BANKED LINKER/LOCATER V6.22.2.0                                                  09/02/2021  16:32:27  PAGE 51


  X:0033H         SYMBOL        Board
  D:0007H         SYMBOL        Board_High
  -------         ENDDO         
  C:B3FDH         LINE#         127
  C:B3FDH         LINE#         128
  C:B3FDH         LINE#         129
  C:B403H         LINE#         131
  C:B406H         LINE#         132
  C:B409H         LINE#         133
  C:B409H         LINE#         134
  C:B40CH         LINE#         135
  C:B40CH         LINE#         136
  C:B40FH         LINE#         137
  C:B412H         LINE#         138
  C:B412H         LINE#         139
  C:B419H         LINE#         140
  C:B419H         LINE#         141
  C:B421H         LINE#         142
  C:B421H         LINE#         143
  C:B429H         LINE#         145
  C:B42CH         LINE#         146
  C:B42CH         LINE#         147
  C:B432H         LINE#         148
  C:B432H         LINE#         149
  C:B434H         LINE#         150
  C:B436H         LINE#         151
  C:B438H         LINE#         152
  C:B438H         LINE#         154
  C:B438H         LINE#         155
  C:B43FH         LINE#         156
  -------         ENDPROC       DIR_BOARD
  -------         PROC          DIR_BOARD_MONITOR
  -------         DO            
  D:0007H         SYMBOL        Board_High
  -------         ENDDO         
  C:BC92H         LINE#         157
  C:BC92H         LINE#         158
  C:BC92H         LINE#         161
  C:BC9BH         LINE#         162
  C:BC9EH         LINE#         163
  C:BC9EH         LINE#         164
  C:BCA1H         LINE#         165
  C:BCA1H         LINE#         166
  C:BCA3H         LINE#         167
  C:BCA3H         LINE#         168
  C:BCA3H         LINE#         169
  C:BCA7H         LINE#         170
  -------         ENDPROC       DIR_BOARD_MONITOR
  -------         PROC          VALIDA_SENSOR1_AUTO
  -------         DO            
  X:0012H         SYMBOL        sensor
  -------         ENDDO         
  C:AF04H         LINE#         174
  C:AF04H         LINE#         175
  C:AF04H         LINE#         177
  C:AF07H         LINE#         178
  C:AF0AH         LINE#         179
BL51 BANKED LINKER/LOCATER V6.22.2.0                                                  09/02/2021  16:32:27  PAGE 52


  C:AF0DH         LINE#         180
  C:AF12H         LINE#         181
  C:AF12H         LINE#         182
  C:AF19H         LINE#         183
  C:AF1DH         LINE#         184
  C:AF1DH         LINE#         185
  C:AF1DH         LINE#         186
  C:AF1FH         LINE#         188
  C:AF1FH         LINE#         189
  C:AF26H         LINE#         190
  C:AF2BH         LINE#         191
  C:AF2BH         LINE#         192
  C:AF2BH         LINE#         193
  C:AF2BH         LINE#         196
  C:AF2DH         LINE#         198
  C:AF30H         LINE#         199
  C:AF35H         LINE#         200
  C:AF35H         LINE#         202
  C:AF3CH         LINE#         203
  C:AF42H         LINE#         204
  C:AF48H         LINE#         205
  C:AF4BH         LINE#         206
  C:AF4DH         LINE#         208
  C:AF4DH         LINE#         209
  C:AF54H         LINE#         210
  C:AF59H         LINE#         211
  C:AF59H         LINE#         214
  C:AF59H         LINE#         216
  C:AF5EH         LINE#         217
  -------         ENDPROC       VALIDA_SENSOR1_AUTO
  -------         PROC          VALIDASENSORESPASO
  -------         DO            
  X:0011H         SYMBOL        sensor
  -------         ENDDO         
  C:B898H         LINE#         222
  C:B898H         LINE#         223
  C:B898H         LINE#         225
  C:B89BH         LINE#         226
  C:B89EH         LINE#         227
  C:B89EH         LINE#         228
  C:B8ACH         LINE#         229
  C:B8ACH         LINE#         230
  C:B8B4H         LINE#         232
  C:B8B6H         LINE#         234
  C:B8B6H         LINE#         235
  C:B8BCH         LINE#         236
  C:B8BEH         LINE#         237
  C:B8BEH         LINE#         238
  C:B8BEH         LINE#         239
  C:B8BEH         LINE#         240
  C:B8C7H         LINE#         241
  C:B8CAH         LINE#         242
  C:B8CAH         LINE#         243
  C:B8CFH         LINE#         244
  -------         ENDPROC       VALIDASENSORESPASO
  -------         PROC          MSJ_LCD_INFORMATIVO
  -------         DO            
BL51 BANKED LINKER/LOCATER V6.22.2.0                                                  09/02/2021  16:32:27  PAGE 53


  X:021BH         SYMBOL        contador
  X:0001H         SYMBOL        info
  X:021CH         SYMBOL        toggle
  -------         ENDDO         
  C:960BH         LINE#         257
  C:960BH         LINE#         258
  C:960BH         LINE#         260
  C:9610H         LINE#         262
  C:9616H         LINE#         263
  C:9623H         LINE#         264
  C:9623H         LINE#         266
  C:9625H         LINE#         267
  C:9628H         LINE#         268
  C:9634H         LINE#         269
  C:9634H         LINE#         270
  C:963EH         LINE#         271
  C:963EH         LINE#         273
  C:9647H         LINE#         274
  C:964FH         LINE#         275
  C:9657H         LINE#         276
  C:9663H         LINE#         277
  C:9663H         LINE#         279
  C:9666H         LINE#         280
  C:9666H         LINE#         281
  C:9668H         LINE#         282
  C:966BH         LINE#         283
  C:9671H         LINE#         284
  C:9671H         LINE#         285
  C:967FH         LINE#         286
  C:967FH         LINE#         287
  C:9685H         LINE#         288
  C:9685H         LINE#         289
  C:9687H         LINE#         290
  C:9695H         LINE#         291
  C:9695H         LINE#         292
  C:969EH         LINE#         293
  C:96A1H         LINE#         294
  C:96A1H         LINE#         295
  C:96A6H         LINE#         296
  C:96A9H         LINE#         297
  C:96AEH         LINE#         298
  C:96AEH         LINE#         299
  C:96AEH         LINE#         300
  C:96AEH         LINE#         301
  C:96AEH         LINE#         302
  C:96B1H         LINE#         303
  C:96B4H         LINE#         304
  C:96B4H         LINE#         305
  C:96B9H         LINE#         306
  C:96B9H         LINE#         307
  C:96B9H         LINE#         308
  -------         ENDPROC       MSJ_LCD_INFORMATIVO
  -------         ENDMOD        IO_SENSORES

  -------         MODULE        PANTALLAS
  C:0000H         SYMBOL        _ICE_DUMMY_
  D:0080H         PUBLIC        P0
BL51 BANKED LINKER/LOCATER V6.22.2.0                                                  09/02/2021  16:32:27  PAGE 54


  C:AA6CH         PUBLIC        Reloj_Pantalla_Lcd
  C:1FE1H         PUBLIC        _PantallaLCD
  C:B3C1H         PUBLIC        _LCD_txt
  C:A6EEH         PUBLIC        _Raspberry_data
  C:BB20H         PUBLIC        _tx_chrlcd
  C:2DD6H         SYMBOL        _?ix1000
  C:2DDCH         SYMBOL        _?ix1001
  C:2DE2H         SYMBOL        _?ix1002
  C:2E0AH         SYMBOL        _?ix1003
  C:B32DH         PUBLIC        _LCD_txt_num_char
  C:4C85H         PUBLIC        _PantallaLCD_LINEA_2
  B:0098H.4       PUBLIC        REN
  B:0080H.7       PUBLIC        sel_com
  -------         PROC          _PANTALLALCD
  X:0018H         SYMBOL        cod_msg
  -------         DO            
  X:0019H         SYMBOL        Ini_LCD_Line_one
  X:001FH         SYMBOL        num_chr
  X:0020H         SYMBOL        msjpantalla
  -------         ENDDO         
  C:1FE1H         LINE#         96
  C:1FE6H         LINE#         97
  C:1FE6H         LINE#         99
  C:1FF9H         LINE#         104
  C:2000H         LINE#         108
  C:2002H         LINE#         110
  C:200BH         LINE#         111
  C:200BH         LINE#         112
  C:2015H         LINE#         114
  C:2071H         LINE#         115
  C:2071H         LINE#         117
  C:2071H         LINE#         118
  C:207FH         LINE#         119
  C:2085H         LINE#         120
  C:2088H         LINE#         121
  C:208EH         LINE#         122
  C:2091H         LINE#         124
  C:2091H         LINE#         126
  C:209FH         LINE#         127
  C:20A5H         LINE#         128
  C:20A8H         LINE#         129
  C:20AEH         LINE#         130
  C:20B1H         LINE#         132
  C:20B1H         LINE#         134
  C:20BFH         LINE#         135
  C:20C5H         LINE#         136
  C:20C8H         LINE#         137
  C:20CEH         LINE#         138
  C:20D1H         LINE#         139
  C:20D1H         LINE#         140
  C:20DFH         LINE#         141
  C:20E5H         LINE#         142
  C:20E8H         LINE#         143
  C:20EEH         LINE#         144
  C:20F1H         LINE#         145
  C:20F1H         LINE#         146
  C:20FFH         LINE#         147
BL51 BANKED LINKER/LOCATER V6.22.2.0                                                  09/02/2021  16:32:27  PAGE 55


  C:2105H         LINE#         148
  C:2108H         LINE#         149
  C:210EH         LINE#         150
  C:2111H         LINE#         151
  C:2111H         LINE#         152
  C:211FH         LINE#         153
  C:2125H         LINE#         154
  C:2128H         LINE#         155
  C:212EH         LINE#         156
  C:2131H         LINE#         157
  C:2131H         LINE#         159
  C:213FH         LINE#         160
  C:2145H         LINE#         161
  C:2148H         LINE#         162
  C:214EH         LINE#         163
  C:2151H         LINE#         164
  C:2151H         LINE#         170
  C:2151H         LINE#         171
  C:215FH         LINE#         172
  C:2165H         LINE#         173
  C:2168H         LINE#         174
  C:216EH         LINE#         175
  C:2171H         LINE#         176
  C:2171H         LINE#         177
  C:217FH         LINE#         178
  C:2185H         LINE#         179
  C:2188H         LINE#         180
  C:218EH         LINE#         181
  C:2191H         LINE#         183
  C:2191H         LINE#         184
  C:219FH         LINE#         185
  C:21A5H         LINE#         186
  C:21A8H         LINE#         187
  C:21AEH         LINE#         188
  C:21B1H         LINE#         190
  C:21B1H         LINE#         191
  C:21BFH         LINE#         192
  C:21C5H         LINE#         193
  C:21C8H         LINE#         194
  C:21CEH         LINE#         195
  C:21D1H         LINE#         200
  C:21D1H         LINE#         202
  C:21DFH         LINE#         203
  C:21E5H         LINE#         204
  C:21E8H         LINE#         205
  C:21EEH         LINE#         206
  C:21F1H         LINE#         208
  C:21F1H         LINE#         210
  C:21FFH         LINE#         211
  C:2205H         LINE#         212
  C:2208H         LINE#         213
  C:220EH         LINE#         214
  C:2211H         LINE#         216
  C:2211H         LINE#         217
  C:221FH         LINE#         218
  C:2225H         LINE#         219
  C:2228H         LINE#         220
BL51 BANKED LINKER/LOCATER V6.22.2.0                                                  09/02/2021  16:32:27  PAGE 56


  C:222EH         LINE#         221
  C:2231H         LINE#         223
  C:2231H         LINE#         225
  C:223FH         LINE#         226
  C:2245H         LINE#         227
  C:2248H         LINE#         228
  C:224EH         LINE#         229
  C:2251H         LINE#         231
  C:2251H         LINE#         233
  C:225FH         LINE#         234
  C:2265H         LINE#         235
  C:2268H         LINE#         236
  C:226EH         LINE#         237
  C:2271H         LINE#         239
  C:2271H         LINE#         240
  C:227FH         LINE#         241
  C:2285H         LINE#         242
  C:2288H         LINE#         243
  C:228EH         LINE#         244
  C:2291H         LINE#         246
  C:2291H         LINE#         247
  C:229FH         LINE#         248
  C:22A5H         LINE#         249
  C:22A8H         LINE#         250
  C:22AEH         LINE#         251
  C:22B1H         LINE#         253
  C:22B1H         LINE#         255
  C:22BFH         LINE#         256
  C:22C5H         LINE#         257
  C:22C8H         LINE#         258
  C:22CEH         LINE#         259
  C:22D1H         LINE#         261
  C:22D1H         LINE#         262
  C:22DFH         LINE#         263
  C:22E5H         LINE#         264
  C:22E8H         LINE#         265
  C:22EEH         LINE#         266
  C:22F1H         LINE#         267
  C:22F1H         LINE#         268
  C:22FFH         LINE#         269
  C:2305H         LINE#         270
  C:2308H         LINE#         271
  C:230EH         LINE#         272
  C:2311H         LINE#         273
  C:2311H         LINE#         274
  C:231FH         LINE#         275
  C:2325H         LINE#         276
  C:2328H         LINE#         277
  C:232EH         LINE#         278
  C:2331H         LINE#         279
  C:2331H         LINE#         280
  C:233FH         LINE#         281
  C:2342H         LINE#         282
  C:2348H         LINE#         283
  C:234AH         LINE#         287
  C:234AH         LINE#         288
  C:2358H         LINE#         289
BL51 BANKED LINKER/LOCATER V6.22.2.0                                                  09/02/2021  16:32:27  PAGE 57


  C:235EH         LINE#         290
  C:2361H         LINE#         291
  C:2367H         LINE#         292
  C:2369H         LINE#         293
  C:2369H         LINE#         294
  C:2377H         LINE#         295
  C:237DH         LINE#         296
  C:2380H         LINE#         297
  C:2386H         LINE#         298
  C:2388H         LINE#         299
  C:2388H         LINE#         300
  C:2396H         LINE#         301
  C:239CH         LINE#         302
  C:239FH         LINE#         303
  C:23AAH         LINE#         304
  C:23AAH         LINE#         313
  C:23AAH         LINE#         315
  C:23AAH         LINE#         316
  C:23AAH         LINE#         317
  C:23ACH         LINE#         319
  C:23ADH         LINE#         321
  C:23ADH         LINE#         322
  C:23AFH         LINE#         323
  C:241DH         LINE#         324
  C:241DH         LINE#         327
  C:241DH         LINE#         328
  C:2431H         LINE#         329
  C:2431H         LINE#         331
  C:2434H         LINE#         332
  C:2434H         LINE#         335
  C:2448H         LINE#         336
  C:2448H         LINE#         337
  C:244BH         LINE#         339
  C:244BH         LINE#         340
  C:245FH         LINE#         341
  C:245FH         LINE#         343
  C:2462H         LINE#         344
  C:2462H         LINE#         345
  C:2476H         LINE#         346
  C:2476H         LINE#         348
  C:2479H         LINE#         349
  C:2479H         LINE#         350
  C:248DH         LINE#         351
  C:248DH         LINE#         353
  C:2490H         LINE#         354
  C:2490H         LINE#         355
  C:24A4H         LINE#         356
  C:24A4H         LINE#         358
  C:24A7H         LINE#         359
  C:24A7H         LINE#         360
  C:24BBH         LINE#         361
  C:24BBH         LINE#         363
  C:24BEH         LINE#         364
  C:24BEH         LINE#         365
  C:24D2H         LINE#         366
  C:24D2H         LINE#         368
  C:24D5H         LINE#         369
BL51 BANKED LINKER/LOCATER V6.22.2.0                                                  09/02/2021  16:32:27  PAGE 58


  C:24D5H         LINE#         370
  C:24E9H         LINE#         371
  C:24E9H         LINE#         373
  C:24ECH         LINE#         374
  C:24ECH         LINE#         375
  C:2500H         LINE#         376
  C:2500H         LINE#         378
  C:2503H         LINE#         380
  C:2503H         LINE#         381
  C:2517H         LINE#         382
  C:2517H         LINE#         384
  C:251AH         LINE#         386
  C:251AH         LINE#         387
  C:252EH         LINE#         388
  C:252EH         LINE#         390
  C:2531H         LINE#         392
  C:2531H         LINE#         393
  C:2545H         LINE#         394
  C:2545H         LINE#         396
  C:2548H         LINE#         400
  C:2548H         LINE#         401
  C:255CH         LINE#         402
  C:255CH         LINE#         404
  C:255FH         LINE#         406
  C:255FH         LINE#         407
  C:2573H         LINE#         408
  C:2573H         LINE#         410
  C:2576H         LINE#         412
  C:2576H         LINE#         413
  C:258AH         LINE#         414
  C:258AH         LINE#         417
  C:258DH         LINE#         418
  C:258DH         LINE#         419
  C:25A1H         LINE#         420
  C:25A1H         LINE#         422
  C:25A4H         LINE#         423
  C:25A4H         LINE#         424
  C:25B8H         LINE#         425
  C:25B8H         LINE#         427
  C:25BBH         LINE#         428
  C:25BBH         LINE#         429
  C:25CFH         LINE#         430
  C:25CFH         LINE#         432
  C:25D2H         LINE#         433
  C:25D2H         LINE#         434
  C:25E6H         LINE#         435
  C:25E6H         LINE#         437
  C:25E9H         LINE#         439
  C:25E9H         LINE#         440
  C:25FDH         LINE#         441
  C:25FDH         LINE#         443
  C:2600H         LINE#         445
  C:2600H         LINE#         446
  C:2614H         LINE#         447
  C:2614H         LINE#         449
  C:2617H         LINE#         450
  C:2617H         LINE#         451
BL51 BANKED LINKER/LOCATER V6.22.2.0                                                  09/02/2021  16:32:27  PAGE 59


  C:262BH         LINE#         452
  C:262BH         LINE#         454
  C:262EH         LINE#         455
  C:262EH         LINE#         456
  C:2642H         LINE#         457
  C:2642H         LINE#         459
  C:2645H         LINE#         460
  C:2645H         LINE#         461
  C:2659H         LINE#         462
  C:2659H         LINE#         464
  C:265CH         LINE#         466
  C:265CH         LINE#         467
  C:2670H         LINE#         468
  C:2670H         LINE#         470
  C:2673H         LINE#         471
  C:2673H         LINE#         472
  C:2687H         LINE#         473
  C:2687H         LINE#         475
  C:268AH         LINE#         476
  C:268AH         LINE#         477
  C:269EH         LINE#         478
  C:269EH         LINE#         480
  C:26A0H         LINE#         482
  C:26A0H         LINE#         483
  C:26B4H         LINE#         484
  C:26B4H         LINE#         486
  C:26B6H         LINE#         489
  C:26B6H         LINE#         490
  C:26CAH         LINE#         491
  C:26CAH         LINE#         493
  C:26CCH         LINE#         494
  C:26CCH         LINE#         495
  C:26E0H         LINE#         496
  C:26E0H         LINE#         498
  C:26E2H         LINE#         499
  C:26E2H         LINE#         500
  C:26F6H         LINE#         501
  C:26F6H         LINE#         502
  C:26F8H         LINE#         504
  C:26F8H         LINE#         505
  C:270FH         LINE#         506
  C:271EH         LINE#         507
  C:271EH         LINE#         512
  C:271EH         LINE#         513
  C:271EH         LINE#         514
  C:271EH         LINE#         516
  C:2725H         LINE#         517
  C:2727H         LINE#         518
  C:2727H         LINE#         522
  -------         ENDPROC       _PANTALLALCD
  -------         PROC          _PANTALLALCD_LINEA_2
  X:0011H         SYMBOL        cod_msg
  X:0012H         SYMBOL        buffer
  -------         DO            
  X:0015H         SYMBOL        Ini_LCD_Line_one
  X:001BH         SYMBOL        num_chr
  X:001CH         SYMBOL        msjpantalla
BL51 BANKED LINKER/LOCATER V6.22.2.0                                                  09/02/2021  16:32:27  PAGE 60


  -------         ENDDO         
  C:4C85H         LINE#         523
  C:4C93H         LINE#         524
  C:4C93H         LINE#         526
  C:4CA6H         LINE#         528
  C:4CB9H         LINE#         535
  C:4CBBH         LINE#         537
  C:4CC4H         LINE#         538
  C:4CC4H         LINE#         541
  C:4CD2H         LINE#         542
  C:4CD2H         LINE#         544
  C:4CD2H         LINE#         545
  C:4CD5H         LINE#         546
  C:4CE3H         LINE#         547
  C:4CF8H         LINE#         548
  C:4CFEH         LINE#         549
  C:4D04H         LINE#         550
  C:4D0AH         LINE#         551
  C:4D0AH         LINE#         552
  C:4D0CH         LINE#         553
  C:4D0CH         LINE#         554
  C:4D0FH         LINE#         555
  C:4D1DH         LINE#         556
  C:4D32H         LINE#         557
  C:4D38H         LINE#         558
  C:4D3EH         LINE#         559
  C:4D49H         LINE#         560
  C:4D59H         LINE#         561
  C:4D59H         LINE#         565
  C:4D59H         LINE#         567
  C:4D59H         LINE#         569
  C:4D59H         LINE#         570
  C:4D5BH         LINE#         571
  C:4D5CH         LINE#         573
  C:4D5CH         LINE#         574
  C:4D5EH         LINE#         576
  C:4D86H         LINE#         577
  C:4D86H         LINE#         578
  C:4D86H         LINE#         581
  C:4D92H         LINE#         583
  C:4D92H         LINE#         585
  C:4D92H         LINE#         588
  C:4D92H         LINE#         591
  C:4D95H         LINE#         593
  C:4D95H         LINE#         594
  C:4DA1H         LINE#         595
  C:4DA1H         LINE#         596
  C:4DA1H         LINE#         597
  C:4DA1H         LINE#         598
  C:4DA1H         LINE#         599
  C:4DA1H         LINE#         601
  C:4DA4H         LINE#         602
  C:4DA4H         LINE#         604
  C:4DB0H         LINE#         605
  C:4DB3H         LINE#         606
  C:4DB6H         LINE#         607
  C:4DB6H         LINE#         609
BL51 BANKED LINKER/LOCATER V6.22.2.0                                                  09/02/2021  16:32:27  PAGE 61


  C:4DBFH         LINE#         611
  C:4DBFH         LINE#         612
  C:4DC1H         LINE#         614
  C:4DC1H         LINE#         616
  C:4DD2H         LINE#         618
  C:4DD5H         LINE#         620
  C:4DD5H         LINE#         621
  C:4DE0H         LINE#         622
  C:4DE0H         LINE#         623
  C:4DE7H         LINE#         625
  C:4DFDH         LINE#         627
  C:4E14H         LINE#         628
  C:4E17H         LINE#         630
  C:4E17H         LINE#         631
  C:4E1EH         LINE#         633
  C:4E1EH         LINE#         634
  C:4E1EH         LINE#         637
  C:4E21H         LINE#         638
  C:4E21H         LINE#         639
  C:4E30H         LINE#         640
  C:4E4EH         LINE#         641
  C:4E65H         LINE#         643
  C:4E65H         LINE#         645
  C:4E68H         LINE#         646
  C:4E68H         LINE#         647
  C:4E77H         LINE#         648
  C:4E8AH         LINE#         649
  C:4EA4H         LINE#         650
  C:4EC2H         LINE#         651
  C:4ED9H         LINE#         652
  C:4ED9H         LINE#         654
  C:4EDBH         LINE#         655
  C:4EDBH         LINE#         656
  C:4EEAH         LINE#         657
  C:4F08H         LINE#         658
  C:4F1FH         LINE#         659
  C:4F22H         LINE#         660
  C:4F22H         LINE#         661
  C:4F22H         LINE#         663
  C:4F22H         LINE#         664
  C:4F22H         LINE#         666
  C:4F27H         LINE#         667
  C:4F29H         LINE#         668
  C:4F29H         LINE#         669
  -------         ENDPROC       _PANTALLALCD_LINEA_2
  C:BB17H         SYMBOL        L?0176
  C:BB1AH         SYMBOL        L?0177
  C:BB1BH         SYMBOL        L?0178
  -------         PROC          L?0175
  -------         ENDPROC       L?0175
  C:BB17H         SYMBOL        L?0176
  C:BB1AH         SYMBOL        L?0177
  C:BB1BH         SYMBOL        L?0178
  -------         PROC          _TX_CHRLCD
  D:0007H         SYMBOL        data_com
  X:0049H         SYMBOL        enable_char_add
  -------         DO            
BL51 BANKED LINKER/LOCATER V6.22.2.0                                                  09/02/2021  16:32:27  PAGE 62


  X:004AH         SYMBOL        d
  -------         ENDDO         
  C:BB20H         LINE#         675
  C:BB25H         LINE#         676
  C:BB25H         LINE#         678
  C:BB2DH         LINE#         679
  C:BB3DH         LINE#         681
  -------         ENDPROC       _TX_CHRLCD
  -------         PROC          L?0181
  -------         ENDPROC       L?0181
  -------         PROC          _LCD_TXT
  X:0044H         SYMBOL        msg
  X:0047H         SYMBOL        enable_char_add
  -------         DO            
  X:0048H         SYMBOL        i
  -------         ENDDO         
  C:B3C1H         LINE#         688
  C:B3CFH         LINE#         689
  C:B3CFH         LINE#         692
  C:B3ECH         LINE#         693
  C:B3ECH         LINE#         694
  C:B3F4H         LINE#         695
  C:B3FCH         LINE#         696
  -------         ENDPROC       _LCD_TXT
  -------         PROC          _LCD_TXT_NUM_CHAR
  X:001EH         SYMBOL        msg
  X:0021H         SYMBOL        length_char
  X:0022H         SYMBOL        enable_char_add
  -------         DO            
  X:0023H         SYMBOL        i
  -------         ENDDO         
  C:B32DH         LINE#         703
  C:B33BH         LINE#         704
  C:B33BH         LINE#         707
  C:B34EH         LINE#         708
  C:B34EH         LINE#         709
  C:B36AH         LINE#         710
  C:B372H         LINE#         711
  -------         ENDPROC       _LCD_TXT_NUM_CHAR
  C:A6E8H         SYMBOL        L?0180
  -------         PROC          L?0179
  -------         ENDPROC       L?0179
  C:A6E8H         SYMBOL        L?0180
  -------         PROC          _RASPBERRY_DATA
  X:0044H         SYMBOL        msjpantalla
  -------         DO            
  X:0047H         SYMBOL        i
  X:0048H         SYMBOL        lenth_cadena
  X:0049H         SYMBOL        d
  -------         ENDDO         
  C:A6EEH         LINE#         713
  C:A6F9H         LINE#         714
  C:A6F9H         LINE#         721
  C:A701H         LINE#         723
  C:A713H         LINE#         724
  C:A713H         LINE#         726
  C:A725H         LINE#         727
BL51 BANKED LINKER/LOCATER V6.22.2.0                                                  09/02/2021  16:32:27  PAGE 63


  C:A725H         LINE#         728
  C:A72AH         LINE#         729
  C:A748H         LINE#         731
  C:A750H         LINE#         734
  C:A762H         LINE#         735
  C:A762H         LINE#         737
  C:A767H         LINE#         739
  -------         ENDPROC       _RASPBERRY_DATA
  -------         PROC          RELOJ_PANTALLA_LCD
  -------         DO            
  X:0011H         SYMBOL        Ini_Clock_LCD
  -------         ENDDO         
  C:AA6CH         LINE#         747
  C:AA6CH         LINE#         748
  C:AA6CH         LINE#         750
  C:AA7FH         LINE#         752
  C:AA85H         LINE#         753
  C:AA85H         LINE#         754
  C:AA87H         LINE#         755
  C:AA90H         LINE#         759
  C:AA92H         LINE#         760
  C:AAA2H         LINE#         762
  C:AAA4H         LINE#         763
  C:AAA6H         LINE#         765
  C:AAA7H         LINE#         767
  C:AAA7H         LINE#         768
  C:AAA9H         LINE#         769
  C:AAAEH         LINE#         770
  C:AABDH         LINE#         772
  C:AAC6H         LINE#         773
  C:AADDH         LINE#         774
  C:AAE6H         LINE#         777
  C:AAE8H         LINE#         778
  C:AAE8H         LINE#         779
  -------         ENDPROC       RELOJ_PANTALLA_LCD
  -------         ENDMOD        PANTALLAS

  -------         MODULE        PROG
  C:0000H         SYMBOL        _ICE_DUMMY_
  C:5A79H         PUBLIC        Prog_fecha_vencimiento
  C:6B0EH         PUBLIC        Prog_Sin_Cobro
  C:75BFH         PUBLIC        _Ver_Horario_Desde_Hasta
  C:79F9H         PUBLIC        Prog_debug
  C:7CEDH         PUBLIC        Prog_AntiPassBack
  C:A001H         PUBLIC        _GetOption
  X:01BAH         PUBLIC        validacion
  C:7EE5H         PUBLIC        Prog_Validar_Tipo_Vehiculo_Mensual
  X:01C5H         PUBLIC        cursor
  C:74A5H         PUBLIC        _Prog_Horarios_on_off
  C:9958H         PUBLIC        Show
  C:4336H         PUBLIC        Ver_Prog
  C:B9A8H         PUBLIC        Addr_Horarios
  C:94A3H         PUBLIC        prog_id_cliente
  C:B448H         PUBLIC        _ValidarClave
  C:5423H         PUBLIC        menu
  C:7AF5H         PUBLIC        Prog_Use_Lpr
  C:AD8AH         PUBLIC        _ListaComandos
BL51 BANKED LINKER/LOCATER V6.22.2.0                                                  09/02/2021  16:32:27  PAGE 64


  C:141FH         SYMBOL        _?ix1000
  C:142AH         SYMBOL        _?ix1001
  C:143AH         SYMBOL        _?ix1002
  C:144AH         SYMBOL        _?ix1003
  C:144EH         SYMBOL        _?ix1004
  C:69C9H         PUBLIC        Prog_Horarios
  C:1452H         SYMBOL        _?ix1005
  C:7FE1H         PUBLIC        Prog_Apb_Mensual
  C:80DDH         PUBLIC        Prog_mensuales
  C:9033H         PUBLIC        Prog_tarjeta_automatica_o_boton
  C:5677H         PUBLIC        _hash_id
  C:49CEH         PUBLIC        _Prog_Horario_dias
  C:9270H         PUBLIC        Prog_tiempo_gracia
  C:A8F4H         PUBLIC        _IngresaDato
  X:01D9H         PUBLIC        comandos
  C:B1CAH         PUBLIC        First_Clave
  C:BC7BH         PUBLIC        DisplayCursor
  C:7DE9H         PUBLIC        Prog_Placa
  C:91B3H         PUBLIC        prog_cod_park
  C:6EC6H         PUBLIC        Ver_Horario
  C:737DH         PUBLIC        _Ver_Horario_dias
  C:587FH         PUBLIC        _Prog_Horario_Desde_Hasta
  C:7BF1H         PUBLIC        tipo_pantalla
  C:8588H         PUBLIC        Prog_Address_High_Board
  C:B54BH         PUBLIC        _GetCMD
  -------         PROC          _HASH_ID
  X:005DH         SYMBOL        clave
  -------         DO            
  X:0060H         SYMBOL        len_clave
  X:0061H         SYMBOL        i
  X:01B6H         SYMBOL        temp
  X:01B8H         SYMBOL        temp1
  X:0062H         SYMBOL        aleatorio
  X:006DH         SYMBOL        suma
  X:007DH         SYMBOL        xxor
  X:008DH         SYMBOL        usuario1
  X:0098H         SYMBOL        vencimiento_password
  -------         ENDDO         
  C:5677H         LINE#         128
  C:5682H         LINE#         129
  C:5682H         LINE#         132
  C:5695H         LINE#         134
  C:56A8H         LINE#         135
  C:56BBH         LINE#         139
  C:56C8H         LINE#         140
  C:56E4H         LINE#         142
  C:56E4H         LINE#         143
  C:56E8H         LINE#         144
  C:56EAH         LINE#         146
  C:56EAH         LINE#         147
  C:56F1H         LINE#         148
  C:56F1H         LINE#         149
  C:5704H         LINE#         150
  C:5718H         LINE#         151
  C:5718H         LINE#         152
  C:5744H         LINE#         153
  C:574FH         LINE#         154
BL51 BANKED LINKER/LOCATER V6.22.2.0                                                  09/02/2021  16:32:27  PAGE 65


  C:575CH         LINE#         155
  C:577AH         LINE#         156
  C:5785H         LINE#         157
  C:5792H         LINE#         158
  C:57B6H         LINE#         159
  C:57BEH         LINE#         160
  C:57BEH         LINE#         161
  C:57C3H         LINE#         162
  C:57C3H         LINE#         163
  C:57DCH         LINE#         164
  C:57DCH         LINE#         165
  C:57E8H         LINE#         167
  C:57E8H         LINE#         168
  C:57F7H         LINE#         169
  C:57F7H         LINE#         170
  C:5803H         LINE#         171
  C:5803H         LINE#         172
  C:581CH         LINE#         173
  C:581CH         LINE#         174
  C:5827H         LINE#         175
  C:5827H         LINE#         176
  C:5840H         LINE#         177
  C:5840H         LINE#         178
  C:584BH         LINE#         179
  C:584BH         LINE#         180
  C:5860H         LINE#         182
  C:5869H         LINE#         183
  C:5878H         LINE#         185
  C:587EH         LINE#         186
  -------         ENDPROC       _HASH_ID
  -------         PROC          _LISTACOMANDOS
  X:0046H         SYMBOL        cmd
  -------         DO            
  X:0049H         SYMBOL        buf
  X:004CH         SYMBOL        i
  -------         ENDDO         
  C:AD8AH         LINE#         193
  C:AD95H         LINE#         194
  C:AD95H         LINE#         198
  C:ADA8H         LINE#         199
  C:ADA8H         LINE#         200
  C:ADC0H         LINE#         201
  C:ADDBH         LINE#         202
  C:ADE1H         LINE#         203
  C:ADE9H         LINE#         205
  C:ADEBH         LINE#         206
  -------         ENDPROC       _LISTACOMANDOS
  -------         PROC          L?0291
  -------         ENDPROC       L?0291
  -------         PROC          _VALIDARCLAVE
  X:005DH         SYMBOL        buffer
  -------         DO            
  X:0060H         SYMBOL        buf
  -------         ENDDO         
  C:B448H         LINE#         212
  C:B453H         LINE#         213
  C:B453H         LINE#         216
BL51 BANKED LINKER/LOCATER V6.22.2.0                                                  09/02/2021  16:32:27  PAGE 66


  C:B462H         LINE#         217
  C:B47DH         LINE#         218
  C:B47FH         LINE#         221
  C:B481H         LINE#         222
  -------         ENDPROC       _VALIDARCLAVE
  -------         PROC          L?0292
  -------         ENDPROC       L?0292
  -------         PROC          _GETCMD
  X:005DH         SYMBOL        in
  -------         DO            
  X:0060H         SYMBOL        tokens
  -------         ENDDO         
  C:B54BH         LINE#         229
  C:B556H         LINE#         230
  C:B556H         LINE#         231
  C:B569H         LINE#         232
  -------         ENDPROC       _GETCMD
  -------         PROC          L?0290
  -------         ENDPROC       L?0290
  -------         PROC          _GETOPTION
  X:0046H         SYMBOL        in
  -------         DO            
  X:0049H         SYMBOL        tokensSpace
  X:004DH         SYMBOL        tokensQuote
  -------         ENDDO         
  C:A001H         LINE#         238
  C:A00CH         LINE#         239
  C:A00CH         LINE#         240
  C:A01FH         LINE#         241
  C:A032H         LINE#         244
  C:A044H         LINE#         245
  C:A050H         LINE#         248
  C:A057H         LINE#         249
  C:A064H         LINE#         251
  C:A07DH         LINE#         252
  -------         ENDPROC       _GETOPTION
  -------         PROC          DISPLAYCURSOR
  C:BC7BH         LINE#         257
  C:BC7BH         LINE#         258
  C:BC7BH         LINE#         259
  -------         ENDPROC       DISPLAYCURSOR
  C:A8F0H         SYMBOL        L?0289
  -------         PROC          L?0288
  -------         ENDPROC       L?0288
  C:A8F0H         SYMBOL        L?0289
  -------         PROC          _INGRESADATO
  X:0071H         SYMBOL        buffer
  X:0074H         SYMBOL        modo
  -------         DO            
  D:0006H         SYMBOL        i
  -------         ENDDO         
  C:A8F4H         LINE#         266
  C:A902H         LINE#         267
  C:A902H         LINE#         272
  C:A902H         LINE#         273
  C:A914H         LINE#         274
  C:A91AH         LINE#         275
BL51 BANKED LINKER/LOCATER V6.22.2.0                                                  09/02/2021  16:32:27  PAGE 67


  C:A91AH         LINE#         276
  C:A935H         LINE#         277
  C:A937H         LINE#         279
  C:A937H         LINE#         280
  C:A93CH         LINE#         281
  C:A93CH         LINE#         282
  C:A94DH         LINE#         283
  C:A957H         LINE#         284
  C:A966H         LINE#         286
  C:A96BH         LINE#         290
  -------         ENDPROC       _INGRESADATO
  -------         PROC          PROG_ID_CLIENTE
  -------         DO            
  X:0046H         SYMBOL        buffer
  X:0050H         SYMBOL        dataee
  -------         ENDDO         
  C:94A3H         LINE#         307
  C:94A3H         LINE#         308
  C:94A3H         LINE#         312
  C:94B5H         LINE#         313
  C:94D2H         LINE#         315
  C:94E9H         LINE#         317
  C:94F2H         LINE#         318
  C:94F9H         LINE#         319
  C:950AH         LINE#         320
  C:9513H         LINE#         322
  C:9525H         LINE#         323
  C:9542H         LINE#         324
  -------         ENDPROC       PROG_ID_CLIENTE
  -------         PROC          PROG_COD_PARK
  -------         DO            
  X:0046H         SYMBOL        buffer
  X:0050H         SYMBOL        dataee
  -------         ENDDO         
  C:91B3H         LINE#         329
  C:91B3H         LINE#         330
  C:91B3H         LINE#         334
  C:91C6H         LINE#         335
  C:91E3H         LINE#         337
  C:91FAH         LINE#         339
  C:9203H         LINE#         340
  C:920EH         LINE#         341
  C:921FH         LINE#         342
  C:9229H         LINE#         344
  C:923CH         LINE#         345
  C:9259H         LINE#         346
  -------         ENDPROC       PROG_COD_PARK
  -------         PROC          PROG_TIEMPO_GRACIA
  -------         DO            
  X:0046H         SYMBOL        buffer
  X:0050H         SYMBOL        dataee
  -------         ENDDO         
  C:9270H         LINE#         351
  C:9270H         LINE#         352
  C:9270H         LINE#         356
  C:9283H         LINE#         357
  C:92A0H         LINE#         359
BL51 BANKED LINKER/LOCATER V6.22.2.0                                                  09/02/2021  16:32:27  PAGE 68


  C:92B7H         LINE#         361
  C:92C0H         LINE#         362
  C:92CBH         LINE#         363
  C:92DCH         LINE#         364
  C:92E6H         LINE#         366
  C:92F9H         LINE#         367
  C:9316H         LINE#         368
  -------         ENDPROC       PROG_TIEMPO_GRACIA
  -------         PROC          PROG_SIN_COBRO
  -------         DO            
  X:0046H         SYMBOL        buffer
  X:0050H         SYMBOL        dataee
  -------         ENDDO         
  C:6B0EH         LINE#         374
  C:6B0EH         LINE#         375
  C:6B0EH         LINE#         381
  C:6B21H         LINE#         382
  C:6B3EH         LINE#         383
  C:6B48H         LINE#         384
  C:6B48H         LINE#         385
  C:6B5BH         LINE#         386
  C:6B5DH         LINE#         387
  C:6B69H         LINE#         388
  C:6B69H         LINE#         389
  C:6B7CH         LINE#         390
  C:6B7EH         LINE#         392
  C:6B7EH         LINE#         393
  C:6B95H         LINE#         394
  C:6B95H         LINE#         396
  C:6B9EH         LINE#         397
  C:6BA9H         LINE#         398
  C:6BBAH         LINE#         399
  C:6BC4H         LINE#         401
  C:6BD7H         LINE#         402
  C:6BF4H         LINE#         403
  C:6BFEH         LINE#         404
  C:6BFEH         LINE#         405
  C:6C11H         LINE#         406
  C:6C13H         LINE#         407
  C:6C1FH         LINE#         408
  C:6C1FH         LINE#         409
  C:6C32H         LINE#         410
  C:6C34H         LINE#         412
  C:6C34H         LINE#         413
  C:6C4BH         LINE#         414
  C:6C4BH         LINE#         416
  -------         ENDPROC       PROG_SIN_COBRO
  -------         PROC          PROG_DEBUG
  -------         DO            
  X:0046H         SYMBOL        buffer
  X:0050H         SYMBOL        dataee
  -------         ENDDO         
  C:79F9H         LINE#         422
  C:79F9H         LINE#         423
  C:79F9H         LINE#         428
  C:7A0CH         LINE#         429
  C:7A29H         LINE#         430
BL51 BANKED LINKER/LOCATER V6.22.2.0                                                  09/02/2021  16:32:27  PAGE 69


  C:7A33H         LINE#         431
  C:7A33H         LINE#         432
  C:7A46H         LINE#         433
  C:7A48H         LINE#         435
  C:7A48H         LINE#         436
  C:7A5FH         LINE#         437
  C:7A5FH         LINE#         439
  C:7A68H         LINE#         440
  C:7A73H         LINE#         441
  C:7A84H         LINE#         442
  C:7A8EH         LINE#         444
  C:7AA1H         LINE#         445
  C:7ABEH         LINE#         446
  C:7AC8H         LINE#         447
  C:7AC8H         LINE#         448
  C:7ADBH         LINE#         449
  C:7ADDH         LINE#         451
  C:7ADDH         LINE#         452
  C:7AF4H         LINE#         453
  C:7AF4H         LINE#         454
  -------         ENDPROC       PROG_DEBUG
  -------         PROC          PROG_USE_LPR
  -------         DO            
  X:0046H         SYMBOL        buffer
  X:0050H         SYMBOL        dataee
  -------         ENDDO         
  C:7AF5H         LINE#         459
  C:7AF5H         LINE#         460
  C:7AF5H         LINE#         465
  C:7B08H         LINE#         466
  C:7B25H         LINE#         467
  C:7B2FH         LINE#         468
  C:7B2FH         LINE#         469
  C:7B42H         LINE#         470
  C:7B44H         LINE#         472
  C:7B44H         LINE#         473
  C:7B5BH         LINE#         474
  C:7B5BH         LINE#         476
  C:7B64H         LINE#         477
  C:7B6FH         LINE#         478
  C:7B80H         LINE#         479
  C:7B8AH         LINE#         481
  C:7B9DH         LINE#         482
  C:7BBAH         LINE#         483
  C:7BC4H         LINE#         484
  C:7BC4H         LINE#         485
  C:7BD7H         LINE#         486
  C:7BD9H         LINE#         488
  C:7BD9H         LINE#         489
  C:7BF0H         LINE#         490
  C:7BF0H         LINE#         491
  -------         ENDPROC       PROG_USE_LPR
  -------         PROC          TIPO_PANTALLA
  -------         DO            
  X:0046H         SYMBOL        buffer
  X:0050H         SYMBOL        dataee
  -------         ENDDO         
BL51 BANKED LINKER/LOCATER V6.22.2.0                                                  09/02/2021  16:32:27  PAGE 70


  C:7BF1H         LINE#         498
  C:7BF1H         LINE#         499
  C:7BF1H         LINE#         504
  C:7C04H         LINE#         505
  C:7C21H         LINE#         506
  C:7C2BH         LINE#         507
  C:7C2BH         LINE#         508
  C:7C3EH         LINE#         509
  C:7C40H         LINE#         511
  C:7C40H         LINE#         512
  C:7C57H         LINE#         513
  C:7C57H         LINE#         515
  C:7C60H         LINE#         516
  C:7C6BH         LINE#         517
  C:7C7CH         LINE#         518
  C:7C86H         LINE#         520
  C:7C99H         LINE#         521
  C:7CB6H         LINE#         522
  C:7CC0H         LINE#         523
  C:7CC0H         LINE#         524
  C:7CD3H         LINE#         525
  C:7CD5H         LINE#         527
  C:7CD5H         LINE#         528
  C:7CECH         LINE#         529
  C:7CECH         LINE#         531
  -------         ENDPROC       TIPO_PANTALLA
  -------         PROC          PROG_TARJETA_AUTOMATICA_O_BOTON
  -------         DO            
  X:0046H         SYMBOL        buffer
  X:0050H         SYMBOL        dataee
  -------         ENDDO         
  C:9033H         LINE#         532
  C:9033H         LINE#         533
  C:9033H         LINE#         538
  C:9046H         LINE#         539
  C:9063H         LINE#         540
  C:906FH         LINE#         541
  C:906FH         LINE#         542
  C:9073H         LINE#         543
  C:9075H         LINE#         545
  C:9075H         LINE#         546
  C:907CH         LINE#         547
  C:907CH         LINE#         549
  C:9085H         LINE#         550
  C:9090H         LINE#         551
  C:90A1H         LINE#         552
  C:90ABH         LINE#         554
  C:90BEH         LINE#         555
  C:90DBH         LINE#         556
  C:90E7H         LINE#         557
  C:90E7H         LINE#         558
  C:90EBH         LINE#         559
  C:90EDH         LINE#         561
  C:90EDH         LINE#         562
  C:90F4H         LINE#         563
  C:90F4H         LINE#         564
  -------         ENDPROC       PROG_TARJETA_AUTOMATICA_O_BOTON
BL51 BANKED LINKER/LOCATER V6.22.2.0                                                  09/02/2021  16:32:27  PAGE 71


  -------         PROC          PROG_ANTIPASSBACK
  -------         DO            
  X:0046H         SYMBOL        buffer
  X:0050H         SYMBOL        dataee
  -------         ENDDO         
  C:7CEDH         LINE#         565
  C:7CEDH         LINE#         566
  C:7CEDH         LINE#         571
  C:7D00H         LINE#         572
  C:7D1DH         LINE#         573
  C:7D27H         LINE#         574
  C:7D27H         LINE#         575
  C:7D3AH         LINE#         576
  C:7D3CH         LINE#         578
  C:7D3CH         LINE#         579
  C:7D53H         LINE#         580
  C:7D53H         LINE#         582
  C:7D5CH         LINE#         583
  C:7D67H         LINE#         584
  C:7D78H         LINE#         585
  C:7D82H         LINE#         587
  C:7D95H         LINE#         588
  C:7DB2H         LINE#         589
  C:7DBCH         LINE#         590
  C:7DBCH         LINE#         591
  C:7DCFH         LINE#         592
  C:7DD1H         LINE#         594
  C:7DD1H         LINE#         595
  C:7DE8H         LINE#         596
  C:7DE8H         LINE#         597
  -------         ENDPROC       PROG_ANTIPASSBACK
  -------         PROC          PROG_PLACA
  -------         DO            
  X:0046H         SYMBOL        buffer
  X:0050H         SYMBOL        dataee
  -------         ENDDO         
  C:7DE9H         LINE#         598
  C:7DE9H         LINE#         599
  C:7DE9H         LINE#         604
  C:7DFCH         LINE#         605
  C:7E19H         LINE#         606
  C:7E23H         LINE#         607
  C:7E23H         LINE#         608
  C:7E36H         LINE#         609
  C:7E38H         LINE#         611
  C:7E38H         LINE#         612
  C:7E4FH         LINE#         613
  C:7E4FH         LINE#         615
  C:7E58H         LINE#         616
  C:7E63H         LINE#         617
  C:7E74H         LINE#         618
  C:7E7EH         LINE#         620
  C:7E91H         LINE#         621
  C:7EAEH         LINE#         622
  C:7EB8H         LINE#         623
  C:7EB8H         LINE#         624
  C:7ECBH         LINE#         625
BL51 BANKED LINKER/LOCATER V6.22.2.0                                                  09/02/2021  16:32:27  PAGE 72


  C:7ECDH         LINE#         627
  C:7ECDH         LINE#         628
  C:7EE4H         LINE#         629
  C:7EE4H         LINE#         630
  -------         ENDPROC       PROG_PLACA
  -------         PROC          PROG_ADDRESS_HIGH_BOARD
  -------         DO            
  X:0046H         SYMBOL        buffer
  X:0050H         SYMBOL        dataee
  -------         ENDDO         
  C:8588H         LINE#         631
  C:8588H         LINE#         632
  C:8588H         LINE#         637
  C:859BH         LINE#         638
  C:85B8H         LINE#         639
  C:85C2H         LINE#         640
  C:85C2H         LINE#         641
  C:85C6H         LINE#         642
  C:85C8H         LINE#         644
  C:85C8H         LINE#         645
  C:85DFH         LINE#         646
  C:85DFH         LINE#         648
  C:85E8H         LINE#         649
  C:85F3H         LINE#         650
  C:8604H         LINE#         651
  C:860EH         LINE#         653
  C:8621H         LINE#         654
  C:863EH         LINE#         655
  C:8648H         LINE#         656
  C:8648H         LINE#         657
  C:864CH         LINE#         658
  C:864EH         LINE#         660
  C:864EH         LINE#         661
  C:8665H         LINE#         662
  C:8665H         LINE#         663
  -------         ENDPROC       PROG_ADDRESS_HIGH_BOARD
  -------         PROC          ADDR_HORARIOS
  -------         DO            
  X:0074H         SYMBOL        ee_addr_horario
  -------         ENDDO         
  C:B9A8H         LINE#         665
  C:B9A8H         LINE#         666
  C:B9A8H         LINE#         669
  C:B9AEH         LINE#         670
  C:B9B2H         LINE#         671
  C:B9B6H         LINE#         672
  C:B9BAH         LINE#         673
  C:B9BEH         LINE#         674
  C:B9C2H         LINE#         675
  C:B9C6H         LINE#         676
  C:B9CAH         LINE#         677
  C:B9CEH         LINE#         678
  C:B9D2H         LINE#         679
  C:B9D5H         LINE#         680
  C:B9DBH         LINE#         681
  -------         ENDPROC       ADDR_HORARIOS
  -------         PROC          _PROG_HORARIOS_ON_OFF
BL51 BANKED LINKER/LOCATER V6.22.2.0                                                  09/02/2021  16:32:27  PAGE 73


  X:0061H         SYMBOL        addr
  -------         DO            
  X:0063H         SYMBOL        buffer
  X:006DH         SYMBOL        dataee
  X:006FH         SYMBOL        habilitado
  -------         ENDDO         
  C:74A5H         LINE#         682
  C:74AFH         LINE#         683
  C:74AFH         LINE#         686
  C:74BEH         LINE#         687
  C:74DBH         LINE#         688
  C:74E5H         LINE#         689
  C:74E5H         LINE#         690
  C:74F8H         LINE#         691
  C:74FAH         LINE#         693
  C:74FAH         LINE#         694
  C:7511H         LINE#         695
  C:7511H         LINE#         696
  C:751AH         LINE#         697
  C:7525H         LINE#         698
  C:7536H         LINE#         699
  C:7545H         LINE#         701
  C:755CH         LINE#         702
  C:7579H         LINE#         703
  C:7586H         LINE#         704
  C:7586H         LINE#         705
  C:7589H         LINE#         706
  C:759CH         LINE#         707
  C:759EH         LINE#         709
  C:759EH         LINE#         710
  C:75A3H         LINE#         711
  C:75B8H         LINE#         712
  C:75B8H         LINE#         713
  C:75BEH         LINE#         714
  -------         ENDPROC       _PROG_HORARIOS_ON_OFF
  -------         PROC          _PROG_HORARIO_DESDE_HASTA
  X:0061H         SYMBOL        addr
  -------         DO            
  X:0063H         SYMBOL        buffer
  D:0007H         SYMBOL        dataee
  -------         ENDDO         
  C:587FH         LINE#         715
  C:5887H         LINE#         716
  C:5887H         LINE#         721
  C:5890H         LINE#         722
  C:5893H         LINE#         723
  C:589CH         LINE#         724
  C:58B4H         LINE#         725
  C:58C7H         LINE#         726
  C:58D5H         LINE#         727
  C:58EDH         LINE#         728
  C:5900H         LINE#         729
  C:590EH         LINE#         730
  C:5926H         LINE#         731
  C:5939H         LINE#         732
  C:5947H         LINE#         733
  C:595FH         LINE#         734
BL51 BANKED LINKER/LOCATER V6.22.2.0                                                  09/02/2021  16:32:27  PAGE 74


  C:5972H         LINE#         735
  C:5980H         LINE#         739
  C:5989H         LINE#         740
  C:598CH         LINE#         742
  C:5995H         LINE#         744
  C:59ADH         LINE#         745
  C:59C0H         LINE#         746
  C:59CEH         LINE#         747
  C:59E6H         LINE#         748
  C:59F9H         LINE#         749
  C:5A07H         LINE#         750
  C:5A1FH         LINE#         751
  C:5A32H         LINE#         752
  C:5A40H         LINE#         753
  C:5A58H         LINE#         754
  C:5A6BH         LINE#         755
  -------         ENDPROC       _PROG_HORARIO_DESDE_HASTA
  -------         PROC          _VER_HORARIO_DESDE_HASTA
  X:0074H         SYMBOL        addr
  -------         DO            
  D:0007H         SYMBOL        dataee
  -------         ENDDO         
  C:75BFH         LINE#         757
  C:75C7H         LINE#         758
  C:75C7H         LINE#         760
  C:75D0H         LINE#         761
  C:75E3H         LINE#         762
  C:75F1H         LINE#         763
  C:7604H         LINE#         764
  C:7612H         LINE#         765
  C:7625H         LINE#         766
  C:7633H         LINE#         767
  C:7646H         LINE#         768
  C:7654H         LINE#         770
  C:7667H         LINE#         771
  C:7675H         LINE#         773
  C:7688H         LINE#         774
  C:7696H         LINE#         776
  C:76A9H         LINE#         777
  C:76B7H         LINE#         779
  C:76CAH         LINE#         780
  -------         ENDPROC       _VER_HORARIO_DESDE_HASTA
  -------         PROC          _PROG_HORARIO_DIAS
  X:0061H         SYMBOL        addr
  -------         DO            
  X:0063H         SYMBOL        buffer
  X:006DH         SYMBOL        dataee
  X:006EH         SYMBOL        j
  X:006FH         SYMBOL        temp
  -------         ENDDO         
  C:49CEH         LINE#         782
  C:49D6H         LINE#         783
  C:49D6H         LINE#         787
  C:49DFH         LINE#         788
  C:49E8H         LINE#         789
  C:49F1H         LINE#         790
  C:49FCH         LINE#         793
BL51 BANKED LINKER/LOCATER V6.22.2.0                                                  09/02/2021  16:32:27  PAGE 75


  C:4A05H         LINE#         795
  C:4A1BH         LINE#         796
  C:4A1BH         LINE#         798
  C:4A2EH         LINE#         799
  C:4A2EH         LINE#         800
  C:4A37H         LINE#         802
  C:4A4CH         LINE#         803
  C:4A64H         LINE#         804
  C:4A71H         LINE#         805
  C:4A71H         LINE#         807
  C:4A87H         LINE#         808
  C:4A87H         LINE#         809
  C:4A90H         LINE#         810
  C:4AA5H         LINE#         811
  C:4ABDH         LINE#         812
  C:4ACAH         LINE#         813
  C:4ACAH         LINE#         815
  C:4AE0H         LINE#         816
  C:4AE0H         LINE#         817
  C:4AE9H         LINE#         818
  C:4AFEH         LINE#         819
  C:4B16H         LINE#         820
  C:4B23H         LINE#         821
  C:4B23H         LINE#         823
  C:4B39H         LINE#         824
  C:4B39H         LINE#         825
  C:4B42H         LINE#         826
  C:4B57H         LINE#         827
  C:4B6FH         LINE#         828
  C:4B7CH         LINE#         829
  C:4B7CH         LINE#         831
  C:4B92H         LINE#         832
  C:4B92H         LINE#         833
  C:4B9BH         LINE#         834
  C:4BB0H         LINE#         835
  C:4BC8H         LINE#         836
  C:4BD5H         LINE#         837
  C:4BD5H         LINE#         839
  C:4BEBH         LINE#         840
  C:4BEBH         LINE#         841
  C:4BF4H         LINE#         842
  C:4C09H         LINE#         843
  C:4C21H         LINE#         844
  C:4C2EH         LINE#         845
  C:4C2EH         LINE#         847
  C:4C44H         LINE#         848
  C:4C44H         LINE#         849
  C:4C4DH         LINE#         850
  C:4C5CH         LINE#         851
  C:4C6EH         LINE#         852
  C:4C7BH         LINE#         853
  C:4C7BH         LINE#         854
  C:4C84H         LINE#         856
  -------         ENDPROC       _PROG_HORARIO_DIAS
  -------         PROC          _VER_HORARIO_DIAS
  X:0074H         SYMBOL        addr
  -------         DO            
BL51 BANKED LINKER/LOCATER V6.22.2.0                                                  09/02/2021  16:32:27  PAGE 76


  X:0076H         SYMBOL        dataee
  -------         ENDDO         
  C:737DH         LINE#         857
  C:7385H         LINE#         858
  C:7385H         LINE#         861
  C:7395H         LINE#         862
  C:739BH         LINE#         863
  C:739BH         LINE#         864
  C:739FH         LINE#         865
  C:73A1H         LINE#         867
  C:73A1H         LINE#         868
  C:73A8H         LINE#         869
  C:73A8H         LINE#         872
  C:73C0H         LINE#         873
  C:73C6H         LINE#         874
  C:73C6H         LINE#         875
  C:73CAH         LINE#         876
  C:73CCH         LINE#         878
  C:73CCH         LINE#         879
  C:73D3H         LINE#         880
  C:73D3H         LINE#         883
  C:73EBH         LINE#         884
  C:73F1H         LINE#         885
  C:73F1H         LINE#         886
  C:73F5H         LINE#         887
  C:73F7H         LINE#         889
  C:73F7H         LINE#         890
  C:73FEH         LINE#         891
  C:73FEH         LINE#         893
  C:7416H         LINE#         894
  C:741CH         LINE#         895
  C:741CH         LINE#         896
  C:7420H         LINE#         897
  C:7422H         LINE#         899
  C:7422H         LINE#         900
  C:7429H         LINE#         901
  C:7429H         LINE#         903
  C:7441H         LINE#         904
  C:7447H         LINE#         905
  C:7447H         LINE#         906
  C:744BH         LINE#         907
  C:744DH         LINE#         909
  C:744DH         LINE#         910
  C:7454H         LINE#         911
  C:7454H         LINE#         914
  C:746CH         LINE#         915
  C:7472H         LINE#         916
  C:7472H         LINE#         917
  C:7476H         LINE#         918
  C:7478H         LINE#         920
  C:7478H         LINE#         921
  C:747FH         LINE#         922
  C:747FH         LINE#         924
  C:7491H         LINE#         925
  C:7497H         LINE#         926
  C:7497H         LINE#         927
  C:749BH         LINE#         928
BL51 BANKED LINKER/LOCATER V6.22.2.0                                                  09/02/2021  16:32:27  PAGE 77


  C:749DH         LINE#         930
  C:749DH         LINE#         931
  C:74A4H         LINE#         932
  C:74A4H         LINE#         933
  -------         ENDPROC       _VER_HORARIO_DIAS
  -------         PROC          PROG_HORARIOS
  -------         DO            
  X:0046H         SYMBOL        buffer
  X:0050H         SYMBOL        ee_addr_horario
  X:005BH         SYMBOL        addr
  X:005DH         SYMBOL        temp
  X:005FH         SYMBOL        dataee
  X:0060H         SYMBOL        j
  -------         ENDDO         
  C:69C9H         LINE#         934
  C:69C9H         LINE#         935
  C:69C9H         LINE#         944
  C:69D5H         LINE#         948
  C:69DEH         LINE#         949
  C:69E9H         LINE#         951
  C:69F8H         LINE#         955
  C:6A0EH         LINE#         956
  C:6A14H         LINE#         960
  C:6A22H         LINE#         961
  C:6A2AH         LINE#         962
  C:6A2AH         LINE#         964
  C:6A39H         LINE#         965
  C:6A4DH         LINE#         966
  C:6A4DH         LINE#         967
  C:6A61H         LINE#         968
  C:6A69H         LINE#         970
  C:6A79H         LINE#         973
  C:6A7CH         LINE#         977
  C:6A87H         LINE#         980
  C:6A90H         LINE#         981
  C:6A9BH         LINE#         982
  C:6AAAH         LINE#         983
  C:6ABDH         LINE#         985
  C:6AD5H         LINE#         986
  C:6AEFH         LINE#         987
  C:6AF7H         LINE#         988
  C:6AF7H         LINE#         990
  C:6B05H         LINE#         991
  C:6B0DH         LINE#         992
  C:6B0DH         LINE#         993
  C:6B0DH         LINE#         995
  -------         ENDPROC       PROG_HORARIOS
  -------         PROC          PROG_VALIDAR_TIPO_VEHICULO_MENSUAL
  -------         DO            
  X:0046H         SYMBOL        buffer
  X:0050H         SYMBOL        dataee
  -------         ENDDO         
  C:7EE5H         LINE#         996
  C:7EE5H         LINE#         997
  C:7EE5H         LINE#         1002
  C:7EF8H         LINE#         1003
  C:7F15H         LINE#         1004
BL51 BANKED LINKER/LOCATER V6.22.2.0                                                  09/02/2021  16:32:27  PAGE 78


  C:7F1FH         LINE#         1005
  C:7F1FH         LINE#         1006
  C:7F32H         LINE#         1007
  C:7F34H         LINE#         1009
  C:7F34H         LINE#         1010
  C:7F4BH         LINE#         1011
  C:7F4BH         LINE#         1013
  C:7F54H         LINE#         1014
  C:7F5FH         LINE#         1015
  C:7F70H         LINE#         1016
  C:7F7AH         LINE#         1018
  C:7F8DH         LINE#         1019
  C:7FAAH         LINE#         1020
  C:7FB4H         LINE#         1021
  C:7FB4H         LINE#         1022
  C:7FC7H         LINE#         1023
  C:7FC9H         LINE#         1025
  C:7FC9H         LINE#         1026
  C:7FE0H         LINE#         1027
  C:7FE0H         LINE#         1028
  -------         ENDPROC       PROG_VALIDAR_TIPO_VEHICULO_MENSUAL
  -------         PROC          PROG_APB_MENSUAL
  -------         DO            
  X:0046H         SYMBOL        buffer
  X:0050H         SYMBOL        dataee
  -------         ENDDO         
  C:7FE1H         LINE#         1029
  C:7FE1H         LINE#         1030
  C:7FE1H         LINE#         1035
  C:7FF4H         LINE#         1036
  C:8011H         LINE#         1037
  C:801BH         LINE#         1038
  C:801BH         LINE#         1039
  C:802EH         LINE#         1040
  C:8030H         LINE#         1042
  C:8030H         LINE#         1043
  C:8047H         LINE#         1044
  C:8047H         LINE#         1046
  C:8050H         LINE#         1047
  C:805BH         LINE#         1048
  C:806CH         LINE#         1049
  C:8076H         LINE#         1051
  C:8089H         LINE#         1052
  C:80A6H         LINE#         1053
  C:80B0H         LINE#         1054
  C:80B0H         LINE#         1055
  C:80C3H         LINE#         1056
  C:80C5H         LINE#         1058
  C:80C5H         LINE#         1059
  C:80DCH         LINE#         1060
  C:80DCH         LINE#         1061
  -------         ENDPROC       PROG_APB_MENSUAL
  -------         PROC          PROG_FECHA_VENCIMIENTO
  -------         DO            
  X:0046H         SYMBOL        buffer
  X:0051H         SYMBOL        cmd
  X:0054H         SYMBOL        fecha
BL51 BANKED LINKER/LOCATER V6.22.2.0                                                  09/02/2021  16:32:27  PAGE 79


  X:005BH         SYMBOL        dataee
  -------         ENDDO         
  C:5A79H         LINE#         1063
  C:5A79H         LINE#         1064
  C:5A79H         LINE#         1071
  C:5A86H         LINE#         1072
  C:5A9DH         LINE#         1075
  C:5AB4H         LINE#         1077
  C:5AB4H         LINE#         1078
  C:5ABDH         LINE#         1079
  C:5ACAH         LINE#         1080
  C:5AE1H         LINE#         1081
  C:5AF3H         LINE#         1082
  C:5AFCH         LINE#         1087
  C:5B07H         LINE#         1088
  C:5B1BH         LINE#         1089
  C:5B28H         LINE#         1091
  C:5B31H         LINE#         1094
  C:5B3AH         LINE#         1095
  C:5B45H         LINE#         1096
  C:5B5CH         LINE#         1098
  C:5B64H         LINE#         1099
  C:5B6CH         LINE#         1100
  C:5B6FH         LINE#         1102
  C:5B80H         LINE#         1103
  C:5B91H         LINE#         1105
  C:5BA0H         LINE#         1106
  C:5BA8H         LINE#         1107
  C:5BB0H         LINE#         1108
  C:5BB3H         LINE#         1109
  C:5BC4H         LINE#         1110
  C:5BD5H         LINE#         1111
  C:5BE4H         LINE#         1112
  C:5BECH         LINE#         1113
  C:5BF4H         LINE#         1114
  C:5BF7H         LINE#         1115
  C:5C08H         LINE#         1116
  C:5C19H         LINE#         1117
  C:5C28H         LINE#         1118
  C:5C33H         LINE#         1120
  C:5C40H         LINE#         1122
  C:5C57H         LINE#         1123
  -------         ENDPROC       PROG_FECHA_VENCIMIENTO
  -------         PROC          VER_HORARIO
  -------         DO            
  X:0059H         SYMBOL        buffer
  X:0063H         SYMBOL        ee_addr_horario
  X:006EH         SYMBOL        conta
  X:006FH         SYMBOL        addr
  X:0071H         SYMBOL        temp
  X:0073H         SYMBOL        dataee
  -------         ENDDO         
  C:6EC6H         LINE#         1126
  C:6EC6H         LINE#         1127
  C:6EC6H         LINE#         1136
  C:6ED2H         LINE#         1137
  C:6EE8H         LINE#         1138
BL51 BANKED LINKER/LOCATER V6.22.2.0                                                  09/02/2021  16:32:27  PAGE 80


  C:6EE8H         LINE#         1140
  C:6EF8H         LINE#         1143
  C:6F11H         LINE#         1144
  C:6F17H         LINE#         1147
  C:6F25H         LINE#         1148
  C:6F34H         LINE#         1149
  C:6F4EH         LINE#         1150
  C:6F59H         LINE#         1151
  C:6F59H         LINE#         1152
  C:6F62H         LINE#         1154
  C:6F6BH         LINE#         1155
  C:6F7BH         LINE#         1156
  C:6F7EH         LINE#         1158
  C:6F89H         LINE#         1159
  C:6FA1H         LINE#         1160
  C:6FBBH         LINE#         1161
  C:6FC5H         LINE#         1162
  C:6FC5H         LINE#         1163
  C:6FCCH         LINE#         1165
  C:6FDAH         LINE#         1166
  C:6FE2H         LINE#         1167
  C:6FE4H         LINE#         1169
  C:6FE4H         LINE#         1170
  C:6FE8H         LINE#         1171
  C:6FE8H         LINE#         1172
  C:6FEAH         LINE#         1174
  C:6FEAH         LINE#         1175
  C:6FF3H         LINE#         1176
  C:6FF3H         LINE#         1178
  C:6FFCH         LINE#         1181
  -------         ENDPROC       VER_HORARIO
  -------         PROC          PROG_MENSUALES
  -------         DO            
  X:0046H         SYMBOL        buffer
  X:0050H         SYMBOL        dataee
  -------         ENDDO         
  C:80DDH         LINE#         1182
  C:80DDH         LINE#         1183
  C:80DDH         LINE#         1188
  C:80F0H         LINE#         1189
  C:810DH         LINE#         1190
  C:8117H         LINE#         1191
  C:8117H         LINE#         1192
  C:812AH         LINE#         1193
  C:812CH         LINE#         1195
  C:812CH         LINE#         1196
  C:8143H         LINE#         1197
  C:8143H         LINE#         1199
  C:814CH         LINE#         1200
  C:8157H         LINE#         1201
  C:8168H         LINE#         1202
  C:8172H         LINE#         1204
  C:8185H         LINE#         1205
  C:81A2H         LINE#         1206
  C:81ACH         LINE#         1207
  C:81ACH         LINE#         1208
  C:81BFH         LINE#         1209
BL51 BANKED LINKER/LOCATER V6.22.2.0                                                  09/02/2021  16:32:27  PAGE 81


  C:81C1H         LINE#         1211
  C:81C1H         LINE#         1212
  C:81D8H         LINE#         1213
  C:81D8H         LINE#         1215
  -------         ENDPROC       PROG_MENSUALES
  -------         PROC          VER_PROG
  -------         DO            
  X:0046H         SYMBOL        buffer
  X:0050H         SYMBOL        dataee
  X:0052H         SYMBOL        fecha
  -------         ENDDO         
  C:4336H         LINE#         1217
  C:4336H         LINE#         1218
  C:4336H         LINE#         1224
  C:4348H         LINE#         1225
  C:4365H         LINE#         1227
  C:437CH         LINE#         1229
  C:438FH         LINE#         1230
  C:43ACH         LINE#         1232
  C:43C3H         LINE#         1234
  C:43D6H         LINE#         1235
  C:43F3H         LINE#         1236
  C:4401H         LINE#         1237
  C:4401H         LINE#         1238
  C:4405H         LINE#         1239
  C:4407H         LINE#         1241
  C:4407H         LINE#         1242
  C:440EH         LINE#         1243
  C:440EH         LINE#         1245
  C:4421H         LINE#         1246
  C:443EH         LINE#         1247
  C:444AH         LINE#         1248
  C:444AH         LINE#         1249
  C:444EH         LINE#         1250
  C:4450H         LINE#         1252
  C:4450H         LINE#         1253
  C:4457H         LINE#         1254
  C:4457H         LINE#         1256
  C:446AH         LINE#         1257
  C:4487H         LINE#         1258
  C:4493H         LINE#         1259
  C:4493H         LINE#         1260
  C:4497H         LINE#         1261
  C:4499H         LINE#         1263
  C:4499H         LINE#         1264
  C:44A0H         LINE#         1265
  C:44A0H         LINE#         1267
  C:44B3H         LINE#         1268
  C:44D0H         LINE#         1269
  C:44DCH         LINE#         1270
  C:44DCH         LINE#         1271
  C:44E0H         LINE#         1272
  C:44E2H         LINE#         1274
  C:44E2H         LINE#         1275
  C:44E9H         LINE#         1276
  C:44E9H         LINE#         1278
  C:44FCH         LINE#         1279
BL51 BANKED LINKER/LOCATER V6.22.2.0                                                  09/02/2021  16:32:27  PAGE 82


  C:4519H         LINE#         1280
  C:4525H         LINE#         1281
  C:4525H         LINE#         1282
  C:4529H         LINE#         1283
  C:452BH         LINE#         1285
  C:452BH         LINE#         1286
  C:4532H         LINE#         1287
  C:4532H         LINE#         1289
  C:4545H         LINE#         1290
  C:4562H         LINE#         1291
  C:456EH         LINE#         1292
  C:456EH         LINE#         1293
  C:4572H         LINE#         1294
  C:4574H         LINE#         1296
  C:4574H         LINE#         1297
  C:457BH         LINE#         1298
  C:457BH         LINE#         1301
  C:458EH         LINE#         1302
  C:45ABH         LINE#         1304
  C:45C2H         LINE#         1306
  C:45C5H         LINE#         1310
  C:45D8H         LINE#         1311
  C:45F5H         LINE#         1312
  C:4601H         LINE#         1313
  C:4601H         LINE#         1314
  C:4605H         LINE#         1315
  C:4607H         LINE#         1317
  C:4607H         LINE#         1318
  C:460EH         LINE#         1319
  C:460EH         LINE#         1321
  C:4621H         LINE#         1322
  C:463EH         LINE#         1323
  C:464AH         LINE#         1324
  C:464AH         LINE#         1325
  C:464EH         LINE#         1326
  C:4650H         LINE#         1328
  C:4650H         LINE#         1329
  C:4657H         LINE#         1330
  C:4657H         LINE#         1333
  C:466AH         LINE#         1334
  C:4687H         LINE#         1335
  C:4693H         LINE#         1336
  C:4693H         LINE#         1337
  C:4697H         LINE#         1338
  C:4699H         LINE#         1340
  C:4699H         LINE#         1341
  C:46A0H         LINE#         1342
  C:46A0H         LINE#         1345
  C:46ADH         LINE#         1347
  C:46C4H         LINE#         1348
  C:46DBH         LINE#         1351
  C:46E7H         LINE#         1352
  -------         ENDPROC       VER_PROG
  -------         PROC          SHOW
  C:9958H         LINE#         1359
  C:9958H         LINE#         1360
  C:9958H         LINE#         1361
BL51 BANKED LINKER/LOCATER V6.22.2.0                                                  09/02/2021  16:32:27  PAGE 83


  C:9961H         LINE#         1362
  C:996AH         LINE#         1363
  C:9973H         LINE#         1364
  C:997CH         LINE#         1365
  C:9985H         LINE#         1366
  C:998EH         LINE#         1367
  C:9997H         LINE#         1368
  C:99A0H         LINE#         1369
  C:99A9H         LINE#         1370
  C:99B2H         LINE#         1371
  C:99BBH         LINE#         1372
  C:99C4H         LINE#         1373
  C:99CDH         LINE#         1374
  C:99D6H         LINE#         1375
  C:99DFH         LINE#         1376
  C:99E8H         LINE#         1377
  C:99F1H         LINE#         1378
  -------         ENDPROC       SHOW
  -------         PROC          FIRST_CLAVE
  -------         DO            
  X:0046H         SYMBOL        clave
  -------         ENDDO         
  C:B1CAH         LINE#         1385
  C:B1CAH         LINE#         1386
  C:B1CAH         LINE#         1390
  C:B1D3H         LINE#         1391
  C:B1D8H         LINE#         1392
  C:B1EAH         LINE#         1393
  C:B1F7H         LINE#         1394
  C:B1FDH         LINE#         1395
  C:B200H         LINE#         1396
  C:B203H         LINE#         1397
  C:B205H         LINE#         1399
  -------         ENDPROC       FIRST_CLAVE
  -------         PROC          MENU
  -------         DO            
  X:0001H         SYMBOL        cmd
  X:0004H         SYMBOL        option1
  X:0007H         SYMBOL        option2
  X:000AH         SYMBOL        opt_buffer
  X:0032H         SYMBOL        buffer
  D:0007H         SYMBOL        dato
  -------         ENDDO         
  C:5423H         LINE#         1403
  C:5423H         LINE#         1404
  C:5423H         LINE#         1414
  C:542CH         LINE#         1419
  C:5438H         LINE#         1420
  C:5438H         LINE#         1421
  C:543BH         LINE#         1422
  C:5445H         LINE#         1425
  C:5445H         LINE#         1427
  C:5445H         LINE#         1428
  C:544EH         LINE#         1429
  C:545BH         LINE#         1430
  C:5460H         LINE#         1431
  C:5476H         LINE#         1432
BL51 BANKED LINKER/LOCATER V6.22.2.0                                                  09/02/2021  16:32:27  PAGE 84


  C:5488H         LINE#         1433
  C:5491H         LINE#         1438
  C:549CH         LINE#         1439
  C:54AAH         LINE#         1440
  C:54B7H         LINE#         1442
  C:54C0H         LINE#         1445
  C:54C8H         LINE#         1446
  C:54CCH         LINE#         1447
  C:54CCH         LINE#         1448
  C:54CCH         LINE#         1449
  C:54CFH         LINE#         1451
  C:54CFH         LINE#         1452
  C:54D8H         LINE#         1453
  C:54E2H         LINE#         1454
  C:54E2H         LINE#         1455
  C:54E2H         LINE#         1456
  C:54E2H         LINE#         1457
  C:54E5H         LINE#         1460
  C:54F0H         LINE#         1461
  C:54FEH         LINE#         1462
  C:5512H         LINE#         1463
  C:5526H         LINE#         1468
  C:553CH         LINE#         1469
  C:553CH         LINE#         1471
  C:554BH         LINE#         1472
  C:554DH         LINE#         1473
  C:555DH         LINE#         1474
  C:555DH         LINE#         1476
  C:556CH         LINE#         1477
  C:558AH         LINE#         1478
  C:558AH         LINE#         1484
  C:559DH         LINE#         1485
  C:559DH         LINE#         1486
  C:55E9H         LINE#         1487
  C:55E9H         LINE#         1488
  C:55E9H         LINE#         1489
  C:55ECH         LINE#         1491
  C:55EFH         LINE#         1493
  C:55EFH         LINE#         1494
  C:55F2H         LINE#         1495
  C:55F5H         LINE#         1496
  C:55F5H         LINE#         1497
  C:55F8H         LINE#         1498
  C:55FBH         LINE#         1499
  C:55FBH         LINE#         1500
  C:55FEH         LINE#         1501
  C:5601H         LINE#         1502
  C:5601H         LINE#         1503
  C:5604H         LINE#         1504
  C:5607H         LINE#         1505
  C:5607H         LINE#         1506
  C:560AH         LINE#         1507
  C:560DH         LINE#         1508
  C:560DH         LINE#         1509
  C:5610H         LINE#         1510
  C:5613H         LINE#         1511
  C:5613H         LINE#         1512
BL51 BANKED LINKER/LOCATER V6.22.2.0                                                  09/02/2021  16:32:27  PAGE 85


  C:5616H         LINE#         1513
  C:5619H         LINE#         1514
  C:5619H         LINE#         1515
  C:561CH         LINE#         1516
  C:561FH         LINE#         1517
  C:561FH         LINE#         1518
  C:5622H         LINE#         1519
  C:5625H         LINE#         1520
  C:5625H         LINE#         1521
  C:5628H         LINE#         1522
  C:562BH         LINE#         1523
  C:562BH         LINE#         1524
  C:562EH         LINE#         1525
  C:5631H         LINE#         1526
  C:5631H         LINE#         1527
  C:5634H         LINE#         1528
  C:5637H         LINE#         1529
  C:5637H         LINE#         1530
  C:563AH         LINE#         1531
  C:563DH         LINE#         1533
  C:563DH         LINE#         1534
  C:5640H         LINE#         1535
  C:5643H         LINE#         1536
  C:5643H         LINE#         1537
  C:5646H         LINE#         1538
  C:5649H         LINE#         1539
  C:5649H         LINE#         1540
  C:564CH         LINE#         1541
  C:564FH         LINE#         1542
  C:564FH         LINE#         1544
  C:564FH         LINE#         1545
  C:564FH         LINE#         1546
  C:5652H         LINE#         1547
  C:5655H         LINE#         1550
  C:5655H         LINE#         1551
  C:5673H         LINE#         1552
  C:5676H         LINE#         1553
  C:5676H         LINE#         1554
  C:5676H         LINE#         1555
  C:5676H         LINE#         1556
  -------         ENDPROC       MENU
  -------         ENDMOD        PROG

  -------         MODULE        PTO_PARALELO
  C:0000H         SYMBOL        _ICE_DUMMY_
  D:0080H         PUBLIC        P0
  D:00A0H         PUBLIC        P2
  D:00B0H         PUBLIC        P3
  C:6D8AH         PUBLIC        load_and_send_id_cod
  C:9D0BH         PUBLIC        _recibe_port
  B:00B0H.2       PUBLIC        ready
  B:0080H.6       PUBLIC        rx_in_data
  C:BD1CH         PUBLIC        Pulso_Bus
  C:A2B4H         PUBLIC        _send_portERR
  B:00B0H.3       PUBLIC        busy
  C:B0EAH         PUBLIC        load_and_send_info_reloj
  C:9559H         PUBLIC        _send_port
BL51 BANKED LINKER/LOCATER V6.22.2.0                                                  09/02/2021  16:32:27  PAGE 86


  B:00B0H.4       PUBLIC        port_clk
  C:BDA7H         PUBLIC        cond_ini_pto
  -------         PROC          _RECIBE_PORT
  X:0001H         SYMBOL        buffer_port
  -------         DO            
  D:0006H         SYMBOL        count
  X:0004H         SYMBOL        time_out
  X:0005H         SYMBOL        num_data
  X:0006H         SYMBOL        T_ANCHO
  X:0008H         SYMBOL        data_temp
  -------         ENDDO         
  C:9D0BH         LINE#         60
  C:9D16H         LINE#         61
  C:9D16H         LINE#         65
  C:9D1FH         LINE#         66
  C:9D22H         LINE#         69
  C:9D25H         LINE#         70
  C:9D25H         LINE#         72
  C:9D28H         LINE#         73
  C:9D2DH         LINE#         74
  C:9D2FH         LINE#         75
  C:9D33H         LINE#         76
  C:9D35H         LINE#         79
  C:9D3AH         LINE#         80
  C:9D43H         LINE#         81
  C:9D43H         LINE#         82
  C:9D46H         LINE#         83
  C:9D46H         LINE#         85
  C:9D4BH         LINE#         86
  C:9D4FH         LINE#         87
  C:9D4FH         LINE#         88
  C:9D51H         LINE#         89
  C:9D53H         LINE#         90
  C:9D53H         LINE#         91
  C:9D53H         LINE#         93
  C:9D53H         LINE#         94
  C:9D60H         LINE#         95
  C:9D60H         LINE#         97
  C:9D63H         LINE#         98
  C:9D63H         LINE#         100
  C:9D69H         LINE#         102
  C:9D6BH         LINE#         103
  C:9D7FH         LINE#         104
  C:9D89H         LINE#         105
  C:9D8FH         LINE#         106
  C:9D95H         LINE#         107
  C:9D97H         LINE#         108
  C:9D97H         LINE#         109
  C:9D97H         LINE#         110
  C:9D97H         LINE#         113
  C:9D99H         LINE#         114
  C:9D9BH         LINE#         115
  C:9D9BH         LINE#         116
  C:9D9EH         LINE#         118
  C:9DA3H         LINE#         119
  -------         ENDPROC       _RECIBE_PORT
  -------         PROC          _SEND_PORT
BL51 BANKED LINKER/LOCATER V6.22.2.0                                                  09/02/2021  16:32:27  PAGE 87


  X:0016H         SYMBOL        buffer_port
  X:0019H         SYMBOL        length_char
  -------         DO            
  X:001AH         SYMBOL        cont
  X:001EH         SYMBOL        timeOut
  X:001FH         SYMBOL        length
  -------         ENDDO         
  C:9559H         LINE#         126
  C:9567H         LINE#         127
  C:9567H         LINE#         132
  C:956BH         LINE#         134
  C:956DH         LINE#         135
  C:956FH         LINE#         136
  C:9571H         LINE#         137
  C:9576H         LINE#         138
  C:9578H         LINE#         139
  C:9582H         LINE#         141
  C:958BH         LINE#         142
  C:958BH         LINE#         143
  C:958DH         LINE#         144
  C:958FH         LINE#         145
  C:95B3H         LINE#         146
  C:95C7H         LINE#         147
  C:95C7H         LINE#         148
  C:95CAH         LINE#         150
  C:95CAH         LINE#         151
  C:95CCH         LINE#         152
  C:95D5H         LINE#         153
  C:95D5H         LINE#         157
  C:95D5H         LINE#         159
  C:95E5H         LINE#         160
  C:95E8H         LINE#         161
  C:95F2H         LINE#         163
  C:95F8H         LINE#         164
  C:95FBH         LINE#         166
  C:95FBH         LINE#         168
  C:95FEH         LINE#         169
  C:9600H         LINE#         170
  C:9602H         LINE#         171
  C:9604H         LINE#         172
  -------         ENDPROC       _SEND_PORT
  -------         PROC          PULSO_BUS
  C:BD1CH         LINE#         180
  C:BD1CH         LINE#         181
  C:BD1CH         LINE#         182
  C:BD1EH         LINE#         183
  C:BD25H         LINE#         184
  C:BD27H         LINE#         185
  -------         ENDPROC       PULSO_BUS
  -------         PROC          _SEND_PORTERR
  X:0018H         SYMBOL        cod_err
  -------         DO            
  X:0019H         SYMBOL        timeOut
  X:001AH         SYMBOL        cont
  -------         ENDDO         
  C:A2B4H         LINE#         190
  C:A2BAH         LINE#         191
BL51 BANKED LINKER/LOCATER V6.22.2.0                                                  09/02/2021  16:32:27  PAGE 88


  C:A2BAH         LINE#         195
  C:A2BCH         LINE#         196
  C:A2BEH         LINE#         197
  C:A2C1H         LINE#         198
  C:A2C9H         LINE#         200
  C:A2CBH         LINE#         201
  C:A2CDH         LINE#         202
  C:A2D6H         LINE#         203
  C:A2D6H         LINE#         204
  C:A2F8H         LINE#         205
  C:A30CH         LINE#         206
  C:A30CH         LINE#         207
  C:A311H         LINE#         208
  C:A311H         LINE#         209
  C:A313H         LINE#         210
  C:A31CH         LINE#         211
  C:A31CH         LINE#         212
  C:A322H         LINE#         213
  C:A325H         LINE#         214
  C:A325H         LINE#         215
  C:A327H         LINE#         216
  C:A329H         LINE#         217
  C:A32BH         LINE#         219
  C:A32EH         LINE#         221
  C:A335H         LINE#         222
  -------         ENDPROC       _SEND_PORTERR
  -------         PROC          COND_INI_PTO
  C:BDA7H         LINE#         228
  C:BDA7H         LINE#         229
  C:BDA7H         LINE#         231
  C:BDA9H         LINE#         232
  C:BDABH         LINE#         233
  C:BDADH         LINE#         234
  C:BDB0H         LINE#         235
  -------         ENDPROC       COND_INI_PTO
  -------         PROC          LOAD_AND_SEND_INFO_RELOJ
  -------         DO            
  X:0002H         SYMBOL        buffer_info
  -------         ENDDO         
  C:B0EAH         LINE#         240
  C:B0EAH         LINE#         241
  C:B0EAH         LINE#         244
  C:B0F0H         LINE#         246
  C:B0F4H         LINE#         252
  C:B0FDH         LINE#         255
  C:B107H         LINE#         256
  C:B10BH         LINE#         257
  C:B10EH         LINE#         258
  C:B117H         LINE#         259
  C:B128H         LINE#         260
  C:B12BH         LINE#         261
  -------         ENDPROC       LOAD_AND_SEND_INFO_RELOJ
  -------         PROC          LOAD_AND_SEND_ID_COD
  -------         DO            
  X:0002H         SYMBOL        buffer_info
  X:000DH         SYMBOL        buf
  X:0011H         SYMBOL        i
BL51 BANKED LINKER/LOCATER V6.22.2.0                                                  09/02/2021  16:32:27  PAGE 89


  X:0012H         SYMBOL        ID_CLIENTE
  X:0014H         SYMBOL        COD_PARK
  -------         ENDDO         
  C:6D8AH         LINE#         268
  C:6D8AH         LINE#         269
  C:6D8AH         LINE#         277
  C:6D9AH         LINE#         279
  C:6DABH         LINE#         281
  C:6DB1H         LINE#         282
  C:6DB5H         LINE#         283
  C:6DB8H         LINE#         285
  C:6DDEH         LINE#         286
  C:6DF5H         LINE#         289
  C:6E0CH         LINE#         292
  C:6E32H         LINE#         293
  C:6E49H         LINE#         295
  C:6E60H         LINE#         296
  C:6E6EH         LINE#         297
  C:6E7FH         LINE#         298
  C:6E92H         LINE#         299
  C:6E98H         LINE#         300
  C:6EA1H         LINE#         301
  C:6EB5H         LINE#         302
  C:6EB8H         LINE#         303
  -------         ENDPROC       LOAD_AND_SEND_ID_COD
  -------         ENDMOD        PTO_PARALELO

  -------         MODULE        TIBBO
  C:0000H         SYMBOL        _ICE_DUMMY_
  C:B373H         PUBLIC        _Debug_HexDec
  C:B18CH         PUBLIC        _Debug_txt_Tibbo
  D:0080H         PUBLIC        P0
  D:0090H         PUBLIC        P1
  B:0090H.0       PUBLIC        txd2
  B:00A8H.7       PUBLIC        EA
  C:B8D0H         PUBLIC        _Debug_txt_rs232
  C:AFB5H         PUBLIC        _Debug_Buffer_rs232_lcd
  C:B139H         PUBLIC        _tx_aux
  B:0080H.0       PUBLIC        rx_ip
  C:BDB1H         PUBLIC        Debug_Dividir_texto
  C:BDFDH         PUBLIC        cond_ini_tibbo
  C:BD72H         PUBLIC        time_mbit
  C:A33CH         PUBLIC        rx_Data
  C:BCAEH         PUBLIC        time_bit
  C:B585H         PUBLIC        _Debug_pto_paralelo
  C:B6FAH         PUBLIC        _Debug_monitor
  C:A559H         PUBLIC        _DebugBufferMF
  C:B212H         PUBLIC        _Debug_chr_Tibbo
  B:0080H.7       PUBLIC        sel_com
  C:B259H         PUBLIC        _Debug_chr_rs232_lcd
  C:BCA8H         SYMBOL        L?0080
  -------         PROC          L?0079
  -------         ENDPROC       L?0079
  C:BCA8H         SYMBOL        L?0080
  -------         PROC          TIME_BIT
  -------         DO            
  D:0007H         SYMBOL        j
BL51 BANKED LINKER/LOCATER V6.22.2.0                                                  09/02/2021  16:32:27  PAGE 90


  -------         ENDDO         
  C:BCAEH         LINE#         21
  C:BCAEH         LINE#         22
  C:BCAEH         LINE#         24
  C:BCBAH         LINE#         25
  C:BCBAH         LINE#         26
  C:BCBDH         LINE#         52
  -------         ENDPROC       TIME_BIT
  -------         PROC          TIME_MBIT
  -------         DO            
  D:0007H         SYMBOL        j
  -------         ENDDO         
  C:BD72H         LINE#         55
  C:BD72H         LINE#         56
  C:BD72H         LINE#         60
  C:BD7EH         LINE#         61
  C:BD7EH         LINE#         71
  C:BD81H         LINE#         73
  -------         ENDPROC       TIME_MBIT
  -------         PROC          L?0083
  -------         ENDPROC       L?0083
  -------         PROC          _TX_AUX
  D:0006H         SYMBOL        caracter
  -------         DO            
  D:0004H         SYMBOL        j
  D:0005H         SYMBOL        temporal
  D:0006H         SYMBOL        bitTX
  -------         ENDDO         
  C:B139H         LINE#         78
  C:B13BH         LINE#         79
  C:B13BH         LINE#         82
  C:B13DH         LINE#         83
  C:B13FH         LINE#         84
  C:B142H         LINE#         85
  C:B143H         LINE#         86
  C:B144H         LINE#         87
  C:B146H         LINE#         88
  C:B14AH         LINE#         89
  C:B14CH         LINE#         90
  C:B14CH         LINE#         91
  C:B14EH         LINE#         92
  C:B150H         LINE#         94
  C:B150H         LINE#         95
  C:B152H         LINE#         96
  C:B152H         LINE#         97
  C:B155H         LINE#         98
  C:B161H         LINE#         99
  C:B161H         LINE#         100
  C:B165H         LINE#         101
  C:B168H         LINE#         102
  C:B16AH         LINE#         103
  C:B16AH         LINE#         104
  C:B16CH         LINE#         105
  C:B16EH         LINE#         107
  C:B16EH         LINE#         108
  C:B170H         LINE#         109
  C:B170H         LINE#         110
BL51 BANKED LINKER/LOCATER V6.22.2.0                                                  09/02/2021  16:32:27  PAGE 91


  C:B173H         LINE#         111
  C:B176H         LINE#         112
  C:B178H         LINE#         113
  C:B17BH         LINE#         114
  C:B17EH         LINE#         116
  C:B180H         LINE#         117
  -------         ENDPROC       _TX_AUX
  -------         PROC          _DEBUG_HEXDEC
  D:0007H         SYMBOL        xfc
  -------         DO            
  X:0018H         SYMBOL        valor
  D:0006H         SYMBOL        centena
  D:0003H         SYMBOL        decena
  D:0002H         SYMBOL        unidad
  -------         ENDDO         
  C:B373H         LINE#         120
  C:B373H         LINE#         121
  C:B373H         LINE#         124
  C:B37AH         LINE#         126
  C:B37BH         LINE#         127
  C:B37CH         LINE#         128
  C:B37DH         LINE#         129
  C:B385H         LINE#         130
  C:B385H         LINE#         131
  C:B38FH         LINE#         132
  C:B38FH         LINE#         133
  C:B393H         LINE#         134
  C:B394H         LINE#         135
  C:B396H         LINE#         136
  C:B3A0H         LINE#         137
  C:B3A0H         LINE#         138
  C:B3A4H         LINE#         139
  C:B3A5H         LINE#         140
  C:B3A7H         LINE#         141
  C:B3A9H         LINE#         142
  C:B3ADH         LINE#         143
  C:B3B1H         LINE#         144
  C:B3B8H         LINE#         146
  C:B3B8H         LINE#         147
  -------         ENDPROC       _DEBUG_HEXDEC
  -------         PROC          _DEBUG_CHR_TIBBO
  D:0003H         SYMBOL        Dat
  -------         DO            
  D:0007H         SYMBOL        temp
  -------         ENDDO         
  C:B212H         LINE#         152
  C:B214H         LINE#         153
  C:B214H         LINE#         155
  C:B21CH         LINE#         156
  C:B21CH         LINE#         157
  C:B223H         LINE#         158
  C:B236H         LINE#         160
  C:B239H         LINE#         162
  C:B23DH         LINE#         163
  C:B250H         LINE#         164
  C:B253H         LINE#         165
  C:B258H         LINE#         167
BL51 BANKED LINKER/LOCATER V6.22.2.0                                                  09/02/2021  16:32:27  PAGE 92


  C:B258H         LINE#         168
  -------         ENDPROC       _DEBUG_CHR_TIBBO
  -------         PROC          _DEBUG_CHR_RS232_LCD
  X:0017H         SYMBOL        Dat
  -------         DO            
  D:0007H         SYMBOL        temp
  D:0006H         SYMBOL        d
  -------         ENDDO         
  C:B259H         LINE#         169
  C:B25EH         LINE#         170
  C:B25EH         LINE#         172
  C:B264H         LINE#         173
  C:B277H         LINE#         174
  C:B27CH         LINE#         175
  C:B283H         LINE#         176
  C:B296H         LINE#         177
  C:B29BH         LINE#         178
  -------         ENDPROC       _DEBUG_CHR_RS232_LCD
  -------         PROC          _DEBUGBUFFERMF
  X:0027H         SYMBOL        str
  X:002AH         SYMBOL        num_char
  X:002BH         SYMBOL        io
  -------         DO            
  X:002CH         SYMBOL        j
  -------         ENDDO         
  C:A559H         LINE#         186
  C:A567H         LINE#         187
  C:A567H         LINE#         191
  C:A56FH         LINE#         192
  C:A56FH         LINE#         193
  C:A57EH         LINE#         194
  C:A57EH         LINE#         195
  C:A584H         LINE#         196
  C:A586H         LINE#         197
  C:A593H         LINE#         198
  C:A593H         LINE#         199
  C:A59CH         LINE#         200
  C:A59CH         LINE#         202
  C:A5AEH         LINE#         203
  C:A5AEH         LINE#         204
  C:A5C0H         LINE#         205
  C:A5CAH         LINE#         206
  C:A5D2H         LINE#         207
  C:A5D7H         LINE#         208
  C:A5DCH         LINE#         209
  C:A5DCH         LINE#         211
  -------         ENDPROC       _DEBUGBUFFERMF
  -------         PROC          _DEBUG_BUFFER_RS232_LCD
  X:0011H         SYMBOL        str
  X:0014H         SYMBOL        num_char
  -------         DO            
  X:0015H         SYMBOL        j
  X:0016H         SYMBOL        d
  -------         ENDDO         
  C:AFB5H         LINE#         212
  C:AFC3H         LINE#         213
  C:AFC3H         LINE#         215
BL51 BANKED LINKER/LOCATER V6.22.2.0                                                  09/02/2021  16:32:27  PAGE 93


  C:AFC5H         LINE#         216
  C:AFD3H         LINE#         217
  C:AFD3H         LINE#         218
  C:AFE5H         LINE#         219
  C:AFEFH         LINE#         220
  C:AFF7H         LINE#         221
  C:B001H         LINE#         224
  C:B003H         LINE#         225
  -------         ENDPROC       _DEBUG_BUFFER_RS232_LCD
  C:B186H         SYMBOL        L?0082
  -------         PROC          L?0081
  -------         ENDPROC       L?0081
  C:B186H         SYMBOL        L?0082
  -------         PROC          _DEBUG_TXT_TIBBO
  X:0064H         SYMBOL        str
  -------         DO            
  X:0067H         SYMBOL        i
  -------         ENDDO         
  C:B18CH         LINE#         229
  C:B197H         LINE#         230
  C:B197H         LINE#         232
  C:B19AH         LINE#         234
  C:B1A2H         LINE#         235
  C:B1A2H         LINE#         236
  C:B1BEH         LINE#         237
  C:B1BEH         LINE#         238
  C:B1C1H         LINE#         239
  C:B1C9H         LINE#         241
  C:B1C9H         LINE#         242
  -------         ENDPROC       _DEBUG_TXT_TIBBO
  -------         PROC          _DEBUG_TXT_RS232
  X:0007H         SYMBOL        str
  -------         DO            
  X:000AH         SYMBOL        i
  X:000BH         SYMBOL        d
  -------         ENDDO         
  C:B8D0H         LINE#         243
  C:B8DBH         LINE#         244
  C:B8DBH         LINE#         246
  C:B8DEH         LINE#         249
  C:B8F7H         LINE#         250
  C:B8F7H         LINE#         251
  C:B8FFH         LINE#         252
  C:B907H         LINE#         255
  -------         ENDPROC       _DEBUG_TXT_RS232
  -------         PROC          DEBUG_DIVIDIR_TEXTO
  C:BDB1H         LINE#         256
  C:BDB1H         LINE#         257
  C:BDB1H         LINE#         258
  -------         ENDPROC       DEBUG_DIVIDIR_TEXTO
  -------         PROC          RX_DATA
  -------         DO            
  D:0006H         SYMBOL        temporal
  -------         ENDDO         
  C:A33CH         LINE#         264
  C:A33CH         LINE#         265
  C:A33CH         LINE#         268
BL51 BANKED LINKER/LOCATER V6.22.2.0                                                  09/02/2021  16:32:27  PAGE 94


  C:A33EH         LINE#         269
  C:A341H         LINE#         271
  C:A344H         LINE#         273
  C:A350H         LINE#         274
  C:A350H         LINE#         276
  C:A353H         LINE#         278
  C:A35FH         LINE#         279
  C:A35FH         LINE#         281
  C:A362H         LINE#         283
  C:A36EH         LINE#         284
  C:A36EH         LINE#         286
  C:A371H         LINE#         288
  C:A37DH         LINE#         289
  C:A37DH         LINE#         291
  C:A380H         LINE#         293
  C:A38CH         LINE#         294
  C:A38CH         LINE#         296
  C:A38FH         LINE#         298
  C:A39BH         LINE#         299
  C:A39BH         LINE#         301
  C:A39EH         LINE#         303
  C:A3AAH         LINE#         304
  C:A3AAH         LINE#         306
  C:A3ADH         LINE#         307
  C:A3BBH         LINE#         309
  C:A3BEH         LINE#         310
  C:A3C1H         LINE#         311
  C:A3C1H         LINE#         312
  C:A3C1H         LINE#         315
  C:A3C3H         LINE#         317
  -------         ENDPROC       RX_DATA
  -------         PROC          COND_INI_TIBBO
  C:BDFDH         LINE#         335
  C:BDFDH         LINE#         336
  C:BDFDH         LINE#         338
  C:BDFFH         LINE#         339
  C:BE01H         LINE#         340
  -------         ENDPROC       COND_INI_TIBBO
  -------         PROC          _DEBUG_PTO_PARALELO
  X:0001H         SYMBOL        buffer
  X:0004H         SYMBOL        Length_trama
  C:B585H         LINE#         341
  C:B593H         LINE#         342
  C:B593H         LINE#         344
  C:B59CH         LINE#         345
  C:B5B3H         LINE#         346
  C:B5BCH         LINE#         347
  C:B5BFH         LINE#         348
  C:B5C2H         LINE#         349
  -------         ENDPROC       _DEBUG_PTO_PARALELO
  -------         PROC          _DEBUG_MONITOR
  X:0011H         SYMBOL        buffer
  X:0014H         SYMBOL        Length_trama
  C:B6FAH         LINE#         352
  C:B708H         LINE#         353
  C:B708H         LINE#         354
  C:B70BH         LINE#         355
BL51 BANKED LINKER/LOCATER V6.22.2.0                                                  09/02/2021  16:32:27  PAGE 95


  C:B714H         LINE#         356
  C:B722H         LINE#         357
  C:B725H         LINE#         358
  C:B72EH         LINE#         359
  C:B731H         LINE#         360
  C:B734H         LINE#         361
  -------         ENDPROC       _DEBUG_MONITOR
  -------         ENDMOD        TIBBO

  -------         MODULE        UART
  C:0000H         SYMBOL        _ICE_DUMMY_
  C:BB3EH         PUBLIC        com_getchar
  C:BD2EH         PUBLIC        com_rbuflen
  C:BD40H         PUBLIC        com_tbuflen
  B:00A8H.4       PUBLIC        ES
  B:0098H.0       PUBLIC        RI
  C:B7EAH         PUBLIC        _com_putchar
  B:0098H.1       PUBLIC        TI
  B:0021H.4       PUBLIC        aSk
  B:00B8H.4       PUBLIC        PS
  D:000DH         SYMBOL        r_in
  D:000EH         SYMBOL        r_out
  D:000FH         SYMBOL        t_in
  D:0010H         SYMBOL        t_out
  D:0099H         PUBLIC        SBUF
  D:0087H         PUBLIC        PCON
  D:0089H         PUBLIC        TMOD
  B:0021H.5       SYMBOL        ti_restart
  B:00A8H.3       PUBLIC        ET1
  D:008DH         PUBLIC        TH1
  B:0098H.7       PUBLIC        SM0
  B:0098H.6       PUBLIC        SM1
  D:008BH         PUBLIC        TL1
  B:0098H.5       PUBLIC        SM2
  B:0088H.6       PUBLIC        TR1
  C:BA9BH         PUBLIC        com_initialize
  X:0217H         PUBLIC        cnt__ask_off
  B:0098H.4       PUBLIC        REN
  C:B504H         PUBLIC        com_baudrate
  C:5C6EH         SYMBOL        com_isr
  -------         PROC          COM_ISR
  -------         DO            
  X:0215H         SYMBOL        cDatoRx
  D:0006H         SYMBOL        k
  D:0007H         SYMBOL        bcc
  X:0216H         SYMBOL        num_datos
  -------         ENDDO         
  C:5C6EH         LINE#         102
  C:5C83H         LINE#         110
  C:5C89H         LINE#         111
  C:5C89H         LINE#         113
  C:5C8BH         LINE#         114
  C:5C91H         LINE#         115
  C:5CA1H         LINE#         116
  C:5CA1H         LINE#         117
  C:5CACH         LINE#         118
  C:5CAEH         LINE#         120
BL51 BANKED LINKER/LOCATER V6.22.2.0                                                  09/02/2021  16:32:27  PAGE 96


  C:5CAEH         LINE#         121
  C:5CBEH         LINE#         122
  C:5CBEH         LINE#         123
  C:5CC3H         LINE#         124
  C:5CC3H         LINE#         125
  C:5CE0H         LINE#         126
  C:5CE0H         LINE#         130
  C:5CE0H         LINE#         133
  C:5CEFH         LINE#         134
  C:5CEFH         LINE#         135
  C:5CF1H         LINE#         136
  C:5CF9H         LINE#         137
  C:5CFEH         LINE#         139
  C:5CFEH         LINE#         141
  C:5D01H         LINE#         145
  C:5D01H         LINE#         146
  C:5D01H         LINE#         147
  C:5D19H         LINE#         148
  C:5D28H         LINE#         149
  C:5D28H         LINE#         150
  C:5D28H         LINE#         151
  C:5D2AH         LINE#         153
  C:5D2AH         LINE#         154
  C:5D2CH         LINE#         155
  C:5D2CH         LINE#         156
  C:5D2CH         LINE#         157
  C:5D2FH         LINE#         161
  C:5D2FH         LINE#         163
  C:5D38H         LINE#         164
  C:5D38H         LINE#         166
  C:5D3EH         LINE#         167
  C:5D51H         LINE#         168
  C:5D51H         LINE#         169
  C:5D54H         LINE#         171
  C:5D54H         LINE#         172
  C:5D69H         LINE#         173
  C:5D6FH         LINE#         174
  C:5D6FH         LINE#         176
  C:5D72H         LINE#         180
  C:5D72H         LINE#         182
  C:5D8AH         LINE#         183
  C:5D90H         LINE#         184
  C:5D93H         LINE#         185
  C:5D93H         LINE#         186
  C:5DABH         LINE#         187
  C:5DABH         LINE#         188
  C:5DACH         LINE#         189
  C:5DB9H         LINE#         190
  C:5DB9H         LINE#         191
  C:5DC6H         LINE#         192
  C:5DC9H         LINE#         193
  C:5DD7H         LINE#         194
  C:5DD7H         LINE#         195
  C:5DD9H         LINE#         196
  C:5DDEH         LINE#         197
  C:5DE0H         LINE#         198
  C:5DE4H         LINE#         200
BL51 BANKED LINKER/LOCATER V6.22.2.0                                                  09/02/2021  16:32:27  PAGE 97


  C:5DE6H         LINE#         202
  C:5DE6H         LINE#         203
  C:5DE6H         LINE#         204
  C:5DE6H         LINE#         205
  C:5DE8H         LINE#         207
  C:5DE8H         LINE#         208
  C:5DE8H         LINE#         209
  C:5DE8H         LINE#         211
  C:5DEAH         LINE#         213
  C:5DEAH         LINE#         214
  C:5DF0H         LINE#         215
  C:5DF0H         LINE#         217
  C:5DF2H         LINE#         218
  C:5DF2H         LINE#         219
  C:5E0AH         LINE#         220
  C:5E28H         LINE#         221
  C:5E28H         LINE#         222
  C:5E2AH         LINE#         223
  C:5E2CH         LINE#         224
  C:5E2CH         LINE#         225
  C:5E2CH         LINE#         227
  C:5E2EH         LINE#         231
  C:5E2EH         LINE#         232
  C:5E33H         LINE#         233
  C:5E33H         LINE#         234
  C:5E33H         LINE#         235
  C:5E33H         LINE#         240
  C:5E36H         LINE#         241
  C:5E36H         LINE#         242
  C:5E38H         LINE#         244
  C:5E3EH         LINE#         245
  C:5E3EH         LINE#         246
  C:5E48H         LINE#         248
  C:5E4AH         LINE#         249
  C:5E4CH         LINE#         250
  C:5E4EH         LINE#         252
  C:5E4EH         LINE#         253
  C:5E50H         LINE#         254
  C:5E50H         LINE#         255
  C:5E50H         LINE#         257
  -------         ENDPROC       COM_ISR
  -------         PROC          COM_INITIALIZE
  C:BA9BH         LINE#         273
  C:BAA2H         LINE#         274
  C:BAA2H         LINE#         278
  C:BAA5H         LINE#         283
  C:BAA8H         LINE#         284
  C:BAAAH         LINE#         286
  C:BAACH         LINE#         287
  C:BAAEH         LINE#         292
  C:BAB2H         LINE#         293
  C:BAB4H         LINE#         294
  C:BAB6H         LINE#         296
  C:BAB8H         LINE#         297
  C:BABAH         LINE#         298
  C:BABCH         LINE#         300
  C:BABEH         LINE#         301
BL51 BANKED LINKER/LOCATER V6.22.2.0                                                  09/02/2021  16:32:27  PAGE 98


  C:BAC0H         LINE#         302
  -------         ENDPROC       COM_INITIALIZE
  -------         PROC          COM_BAUDRATE
  -------         DO            
  D:0007H         SYMBOL        dataee
  -------         ENDDO         
  C:B504H         LINE#         308
  C:B50BH         LINE#         310
  C:B50BH         LINE#         312
  C:B514H         LINE#         317
  C:B516H         LINE#         318
  C:B519H         LINE#         319
  C:B51BH         LINE#         324
  C:B51DH         LINE#         325
  C:B51FH         LINE#         327
  C:B522H         LINE#         329
  C:B525H         LINE#         330
  C:B528H         LINE#         332
  C:B52BH         LINE#         333
  C:B52BH         LINE#         334
  C:B52BH         LINE#         335
  C:B52BH         LINE#         336
  C:B52BH         LINE#         337
  C:B52DH         LINE#         339
  C:B52DH         LINE#         340
  C:B538H         LINE#         341
  C:B53BH         LINE#         342
  C:B53EH         LINE#         343
  C:B540H         LINE#         344
  C:B540H         LINE#         345
  -------         ENDPROC       COM_BAUDRATE
  -------         PROC          _COM_PUTCHAR
  X:00AAH         SYMBOL        c
  C:B7EAH         LINE#         351
  C:B7F6H         LINE#         352
  C:B7F6H         LINE#         356
  C:B803H         LINE#         357
  C:B807H         LINE#         363
  C:B815H         LINE#         365
  C:B817H         LINE#         367
  C:B81AH         LINE#         368
  C:B81AH         LINE#         369
  C:B81CH         LINE#         370
  C:B81EH         LINE#         371
  C:B81EH         LINE#         373
  C:B820H         LINE#         374
  -------         ENDPROC       _COM_PUTCHAR
  -------         PROC          COM_GETCHAR
  C:BB3EH         LINE#         380
  C:BB45H         LINE#         381
  C:BB45H         LINE#         382
  C:BB4BH         LINE#         383
  C:BB51H         LINE#         385
  C:BB5FH         LINE#         386
  -------         ENDPROC       COM_GETCHAR
  -------         PROC          COM_RBUFLEN
  C:BD2EH         LINE#         392
BL51 BANKED LINKER/LOCATER V6.22.2.0                                                  09/02/2021  16:32:27  PAGE 99


  C:BD35H         LINE#         393
  C:BD35H         LINE#         394
  C:BD3BH         LINE#         395
  -------         ENDPROC       COM_RBUFLEN
  -------         PROC          COM_TBUFLEN
  C:BD40H         LINE#         401
  C:BD47H         LINE#         402
  C:BD47H         LINE#         403
  C:BD4DH         LINE#         404
  -------         ENDPROC       COM_TBUFLEN
  -------         ENDMOD        UART

  -------         MODULE        LINTECH
  C:0000H         SYMBOL        _ICE_DUMMY_
  C:9B39H         PUBLIC        _Inicializa
  C:8F70H         PUBLIC        _RD_MF
  C:9764H         PUBLIC        Dwload_EEprom
  C:9ECDH         PUBLIC        _Card_Insercion
  C:83BAH         PUBLIC        _Mov_Card
  C:78F9H         PUBLIC        _WR_MF
  C:A10EH         PUBLIC        LoadVerify_EEprom
  C:A3C4H         PUBLIC        Unique_Identifier_UID
  C:A9ECH         PUBLIC        Power_off
  C:A4D3H         PUBLIC        _Check_Status
  C:96BAH         PUBLIC        Clave_Seguridad_S2
  C:A96CH         PUBLIC        Aut_Card_check_Status
  -------         PROC          _INICIALIZA
  X:0002H         SYMBOL        TipoMovimiento
  -------         DO            
  D:0003H         SYMBOL        j
  X:0003H         SYMBOL        bcc
  X:0004H         SYMBOL        g_scArrTxComSoft
  -------         ENDDO         
  C:9B39H         LINE#         69
  C:9B3EH         LINE#         70
  C:9B3EH         LINE#         73
  C:9B41H         LINE#         74
  C:9B57H         LINE#         75
  C:9B57H         LINE#         77
  C:9B60H         LINE#         79
  C:9B66H         LINE#         80
  C:9B69H         LINE#         81
  C:9B6BH         LINE#         82
  C:9B6FH         LINE#         83
  C:9B73H         LINE#         84
  C:9B77H         LINE#         85
  C:9B7FH         LINE#         86
  C:9B83H         LINE#         87
  C:9B8FH         LINE#         88
  C:9B8FH         LINE#         89
  C:9BA3H         LINE#         90
  C:9BA6H         LINE#         91
  C:9BAEH         LINE#         92
  C:9BB0H         LINE#         93
  C:9BB5H         LINE#         94
  C:9BC4H         LINE#         95
  C:9BCFH         LINE#         96
BL51 BANKED LINKER/LOCATER V6.22.2.0                                                  09/02/2021  16:32:27  PAGE 100


  C:9BD5H         LINE#         97
  C:9BD5H         LINE#         98
  -------         ENDPROC       _INICIALIZA
  -------         PROC          _CHECK_STATUS
  X:0002H         SYMBOL        Detalle
  -------         DO            
  D:0006H         SYMBOL        j
  D:0007H         SYMBOL        bcc
  X:0003H         SYMBOL        g_scArrTxComSoft
  -------         ENDDO         
  C:A4D3H         LINE#         110
  C:A4D8H         LINE#         111
  C:A4D8H         LINE#         115
  C:A4DEH         LINE#         116
  C:A4DEH         LINE#         117
  C:A4E2H         LINE#         118
  C:A4E4H         LINE#         120
  C:A4E4H         LINE#         121
  C:A4EBH         LINE#         122
  C:A4EBH         LINE#         123
  C:A4EDH         LINE#         125
  C:A4F3H         LINE#         126
  C:A4F6H         LINE#         127
  C:A4F8H         LINE#         128
  C:A4FCH         LINE#         129
  C:A500H         LINE#         130
  C:A504H         LINE#         131
  C:A50CH         LINE#         132
  C:A510H         LINE#         133
  C:A51CH         LINE#         134
  C:A51CH         LINE#         135
  C:A529H         LINE#         136
  C:A52CH         LINE#         137
  C:A531H         LINE#         138
  C:A533H         LINE#         139
  C:A538H         LINE#         140
  C:A547H         LINE#         141
  C:A552H         LINE#         142
  C:A558H         LINE#         143
  -------         ENDPROC       _CHECK_STATUS
  -------         PROC          _CARD_INSERCION
  D:0007H         SYMBOL        Tipo
  -------         DO            
  D:0006H         SYMBOL        j
  D:0007H         SYMBOL        bcc
  X:0002H         SYMBOL        g_scArrTxComSoft
  -------         ENDDO         
  C:9ECDH         LINE#         153
  C:9ECDH         LINE#         154
  C:9ECDH         LINE#         157
  C:9EDAH         LINE#         158
  C:9EDAH         LINE#         159
  C:9EE1H         LINE#         160
  C:9EE7H         LINE#         161
  C:9EE9H         LINE#         163
  C:9EE9H         LINE#         165
  C:9EF0H         LINE#         166
BL51 BANKED LINKER/LOCATER V6.22.2.0                                                  09/02/2021  16:32:27  PAGE 101


  C:9EF6H         LINE#         168
  C:9EF6H         LINE#         170
  C:9EF8H         LINE#         172
  C:9EFEH         LINE#         173
  C:9F01H         LINE#         174
  C:9F03H         LINE#         175
  C:9F07H         LINE#         176
  C:9F0BH         LINE#         177
  C:9F0FH         LINE#         179
  C:9F15H         LINE#         180
  C:9F21H         LINE#         181
  C:9F21H         LINE#         182
  C:9F2EH         LINE#         183
  C:9F31H         LINE#         185
  C:9F36H         LINE#         187
  C:9F38H         LINE#         188
  C:9F3DH         LINE#         189
  C:9F4CH         LINE#         190
  C:9F57H         LINE#         191
  C:9F5DH         LINE#         192
  -------         ENDPROC       _CARD_INSERCION
  -------         PROC          _MOV_CARD
  X:0002H         SYMBOL        Posicion
  -------         DO            
  D:0003H         SYMBOL        j
  X:0003H         SYMBOL        bcc
  X:0004H         SYMBOL        g_scArrTxComSoft
  -------         ENDDO         
  C:83BAH         LINE#         203
  C:83BFH         LINE#         204
  C:83BFH         LINE#         207
  C:83C2H         LINE#         209
  C:83E2H         LINE#         210
  C:83E2H         LINE#         211
  C:83E9H         LINE#         212
  C:83E9H         LINE#         213
  C:83EFH         LINE#         214
  C:83F1H         LINE#         215
  C:83F8H         LINE#         216
  C:83F8H         LINE#         217
  C:83FEH         LINE#         218
  C:8400H         LINE#         219
  C:8407H         LINE#         220
  C:8407H         LINE#         221
  C:840DH         LINE#         222
  C:840FH         LINE#         223
  C:8416H         LINE#         224
  C:8416H         LINE#         225
  C:841CH         LINE#         226
  C:841EH         LINE#         227
  C:8425H         LINE#         228
  C:8425H         LINE#         229
  C:842EH         LINE#         230
  C:842EH         LINE#         232
  C:8434H         LINE#         233
  C:8437H         LINE#         234
  C:8439H         LINE#         235
BL51 BANKED LINKER/LOCATER V6.22.2.0                                                  09/02/2021  16:32:27  PAGE 102


  C:843DH         LINE#         236
  C:8441H         LINE#         237
  C:8445H         LINE#         238
  C:844DH         LINE#         239
  C:8451H         LINE#         240
  C:845DH         LINE#         241
  C:845DH         LINE#         242
  C:8471H         LINE#         243
  C:8474H         LINE#         244
  C:847CH         LINE#         245
  C:847EH         LINE#         246
  C:8483H         LINE#         247
  C:8492H         LINE#         248
  C:849DH         LINE#         249
  C:84A3H         LINE#         250
  C:84A3H         LINE#         252
  -------         ENDPROC       _MOV_CARD
  -------         PROC          AUT_CARD_CHECK_STATUS
  -------         DO            
  D:0003H         SYMBOL        j
  X:0002H         SYMBOL        bcc
  X:0003H         SYMBOL        g_scArrTxComSoft
  -------         ENDDO         
  C:A96CH         LINE#         258
  C:A96CH         LINE#         259
  C:A96CH         LINE#         262
  C:A971H         LINE#         264
  C:A97AH         LINE#         266
  C:A980H         LINE#         267
  C:A983H         LINE#         268
  C:A985H         LINE#         269
  C:A989H         LINE#         270
  C:A98DH         LINE#         271
  C:A991H         LINE#         272
  C:A995H         LINE#         273
  C:A999H         LINE#         274
  C:A9A5H         LINE#         275
  C:A9A5H         LINE#         276
  C:A9B9H         LINE#         277
  C:A9BCH         LINE#         278
  C:A9C4H         LINE#         279
  C:A9C6H         LINE#         280
  C:A9CBH         LINE#         281
  C:A9DAH         LINE#         282
  C:A9E5H         LINE#         283
  C:A9EBH         LINE#         284
  -------         ENDPROC       AUT_CARD_CHECK_STATUS
  -------         PROC          CLAVE_SEGURIDAD_S2
  -------         DO            
  D:0003H         SYMBOL        j
  X:0002H         SYMBOL        bcc
  X:0003H         SYMBOL        g_scArrTxComSoft
  -------         ENDDO         
  C:96BAH         LINE#         287
  C:96BAH         LINE#         288
  C:96BAH         LINE#         291
  C:96BFH         LINE#         292
BL51 BANKED LINKER/LOCATER V6.22.2.0                                                  09/02/2021  16:32:27  PAGE 103


  C:96C8H         LINE#         295
  C:96CEH         LINE#         296
  C:96D1H         LINE#         297
  C:96D3H         LINE#         298
  C:96D7H         LINE#         299
  C:96DBH         LINE#         300
  C:96DFH         LINE#         301
  C:96E3H         LINE#         302
  C:96E6H         LINE#         303
  C:96EAH         LINE#         304
  C:96EDH         LINE#         305
  C:96F1H         LINE#         307
  C:96F5H         LINE#         309
  C:96F9H         LINE#         310
  C:96FDH         LINE#         311
  C:9701H         LINE#         312
  C:9705H         LINE#         313
  C:9709H         LINE#         314
  C:970DH         LINE#         317
  C:9711H         LINE#         319
  C:971DH         LINE#         320
  C:971DH         LINE#         321
  C:9731H         LINE#         322
  C:9734H         LINE#         323
  C:973CH         LINE#         324
  C:973EH         LINE#         325
  C:9743H         LINE#         326
  C:9752H         LINE#         327
  C:975DH         LINE#         328
  C:9763H         LINE#         331
  -------         ENDPROC       CLAVE_SEGURIDAD_S2
  -------         PROC          DWLOAD_EEPROM
  -------         DO            
  D:0003H         SYMBOL        j
  X:0002H         SYMBOL        bcc
  X:0003H         SYMBOL        g_scArrTxComSoft
  -------         ENDDO         
  C:9764H         LINE#         336
  C:9764H         LINE#         337
  C:9764H         LINE#         340
  C:9769H         LINE#         341
  C:9772H         LINE#         343
  C:9778H         LINE#         344
  C:977BH         LINE#         345
  C:977DH         LINE#         346
  C:9781H         LINE#         347
  C:9785H         LINE#         348
  C:9789H         LINE#         349
  C:978DH         LINE#         350
  C:9790H         LINE#         351
  C:9794H         LINE#         352
  C:9797H         LINE#         353
  C:979AH         LINE#         354
  C:979EH         LINE#         355
  C:97A2H         LINE#         356
  C:97A6H         LINE#         357
  C:97AAH         LINE#         358
BL51 BANKED LINKER/LOCATER V6.22.2.0                                                  09/02/2021  16:32:27  PAGE 104


  C:97AEH         LINE#         359
  C:97B2H         LINE#         360
  C:97B6H         LINE#         361
  C:97BAH         LINE#         363
  C:97C6H         LINE#         364
  C:97C6H         LINE#         365
  C:97DAH         LINE#         366
  C:97DDH         LINE#         367
  C:97E5H         LINE#         368
  C:97E7H         LINE#         369
  C:97ECH         LINE#         370
  C:97FBH         LINE#         371
  C:9806H         LINE#         372
  C:980CH         LINE#         373
  -------         ENDPROC       DWLOAD_EEPROM
  -------         PROC          LOADVERIFY_EEPROM
  -------         DO            
  D:0003H         SYMBOL        j
  X:0002H         SYMBOL        bcc
  X:0003H         SYMBOL        g_scArrTxComSoft
  -------         ENDDO         
  C:A10EH         LINE#         417
  C:A10EH         LINE#         418
  C:A10EH         LINE#         421
  C:A113H         LINE#         422
  C:A11CH         LINE#         425
  C:A122H         LINE#         426
  C:A125H         LINE#         427
  C:A127H         LINE#         428
  C:A12BH         LINE#         429
  C:A12FH         LINE#         430
  C:A133H         LINE#         431
  C:A137H         LINE#         432
  C:A13AH         LINE#         433
  C:A13EH         LINE#         434
  C:A141H         LINE#         435
  C:A144H         LINE#         436
  C:A148H         LINE#         441
  C:A154H         LINE#         442
  C:A154H         LINE#         443
  C:A168H         LINE#         444
  C:A16BH         LINE#         445
  C:A173H         LINE#         446
  C:A175H         LINE#         447
  C:A17AH         LINE#         448
  C:A189H         LINE#         449
  C:A194H         LINE#         450
  C:A19AH         LINE#         452
  -------         ENDPROC       LOADVERIFY_EEPROM
  -------         PROC          _RD_MF
  X:0002H         SYMBOL        Sector
  X:0003H         SYMBOL        Bloque
  -------         DO            
  D:0003H         SYMBOL        j
  X:0004H         SYMBOL        bcc
  X:0005H         SYMBOL        g_scArrTxComSoft
  -------         ENDDO         
BL51 BANKED LINKER/LOCATER V6.22.2.0                                                  09/02/2021  16:32:27  PAGE 105


  C:8F70H         LINE#         458
  C:8F78H         LINE#         459
  C:8F78H         LINE#         463
  C:8F7BH         LINE#         465
  C:8F84H         LINE#         466
  C:8F8CH         LINE#         468
  C:8F95H         LINE#         469
  C:8F9DH         LINE#         470
  C:8FA6H         LINE#         473
  C:8FACH         LINE#         474
  C:8FAFH         LINE#         475
  C:8FB1H         LINE#         476
  C:8FB5H         LINE#         477
  C:8FB9H         LINE#         478
  C:8FBDH         LINE#         479
  C:8FC1H         LINE#         480
  C:8FC4H         LINE#         481
  C:8FC8H         LINE#         482
  C:8FD0H         LINE#         483
  C:8FD8H         LINE#         484
  C:8FDCH         LINE#         485
  C:8FE0H         LINE#         487
  C:8FECH         LINE#         488
  C:8FECH         LINE#         489
  C:9000H         LINE#         490
  C:9003H         LINE#         491
  C:900BH         LINE#         494
  C:900DH         LINE#         495
  C:9012H         LINE#         496
  C:9021H         LINE#         497
  C:902CH         LINE#         498
  C:9032H         LINE#         500
  -------         ENDPROC       _RD_MF
  -------         PROC          _WR_MF
  X:0002H         SYMBOL        Sector
  X:0003H         SYMBOL        Bloque
  X:0004H         SYMBOL        buffer
  -------         DO            
  D:0005H         SYMBOL        j
  X:0007H         SYMBOL        bcc
  X:0008H         SYMBOL        g_scArrTxComSoft
  -------         ENDDO         
  C:78F9H         LINE#         507
  C:790AH         LINE#         509
  C:790AH         LINE#         512
  C:790DH         LINE#         514
  C:7916H         LINE#         515
  C:791EH         LINE#         517
  C:7927H         LINE#         518
  C:792FH         LINE#         519
  C:7938H         LINE#         521
  C:793EH         LINE#         522
  C:7941H         LINE#         523
  C:7943H         LINE#         524
  C:7947H         LINE#         526
  C:794BH         LINE#         527
  C:794FH         LINE#         528
BL51 BANKED LINKER/LOCATER V6.22.2.0                                                  09/02/2021  16:32:27  PAGE 106


  C:7953H         LINE#         529
  C:7956H         LINE#         530
  C:795AH         LINE#         531
  C:7962H         LINE#         532
  C:796AH         LINE#         533
  C:796EH         LINE#         535
  C:797AH         LINE#         536
  C:797AH         LINE#         537
  C:799AH         LINE#         538
  C:799DH         LINE#         540
  C:79A3H         LINE#         542
  C:79AFH         LINE#         543
  C:79AFH         LINE#         544
  C:79C6H         LINE#         545
  C:79C9H         LINE#         546
  C:79D1H         LINE#         549
  C:79D3H         LINE#         550
  C:79D8H         LINE#         551
  C:79E7H         LINE#         552
  C:79F2H         LINE#         553
  C:79F8H         LINE#         555
  -------         ENDPROC       _WR_MF
  -------         PROC          UNIQUE_IDENTIFIER_UID
  -------         DO            
  D:0003H         SYMBOL        j
  X:0002H         SYMBOL        bcc
  X:0003H         SYMBOL        g_scArrTxComSoft
  -------         ENDDO         
  C:A3C4H         LINE#         560
  C:A3C4H         LINE#         561
  C:A3C4H         LINE#         564
  C:A3C9H         LINE#         566
  C:A3D2H         LINE#         568
  C:A3D8H         LINE#         569
  C:A3DBH         LINE#         570
  C:A3DDH         LINE#         571
  C:A3E1H         LINE#         572
  C:A3E5H         LINE#         573
  C:A3E9H         LINE#         574
  C:A3EDH         LINE#         575
  C:A3F1H         LINE#         576
  C:A3F5H         LINE#         577
  C:A3F9H         LINE#         578
  C:A405H         LINE#         579
  C:A405H         LINE#         580
  C:A419H         LINE#         581
  C:A41CH         LINE#         582
  C:A424H         LINE#         583
  C:A426H         LINE#         584
  C:A42BH         LINE#         585
  C:A43AH         LINE#         586
  C:A445H         LINE#         587
  C:A44BH         LINE#         588
  -------         ENDPROC       UNIQUE_IDENTIFIER_UID
  -------         PROC          POWER_OFF
  -------         DO            
  D:0003H         SYMBOL        j
BL51 BANKED LINKER/LOCATER V6.22.2.0                                                  09/02/2021  16:32:27  PAGE 107


  X:0002H         SYMBOL        bcc
  X:0003H         SYMBOL        g_scArrTxComSoft
  -------         ENDDO         
  C:A9ECH         LINE#         589
  C:A9ECH         LINE#         590
  C:A9ECH         LINE#         593
  C:A9F1H         LINE#         595
  C:A9FAH         LINE#         597
  C:AA00H         LINE#         598
  C:AA03H         LINE#         599
  C:AA05H         LINE#         600
  C:AA09H         LINE#         601
  C:AA0DH         LINE#         602
  C:AA11H         LINE#         603
  C:AA15H         LINE#         604
  C:AA19H         LINE#         605
  C:AA25H         LINE#         606
  C:AA25H         LINE#         607
  C:AA39H         LINE#         608
  C:AA3CH         LINE#         609
  C:AA44H         LINE#         610
  C:AA46H         LINE#         611
  C:AA4BH         LINE#         612
  C:AA5AH         LINE#         613
  C:AA65H         LINE#         614
  C:AA6BH         LINE#         617
  -------         ENDPROC       POWER_OFF
  -------         ENDMOD        LINTECH

  -------         MODULE        VERIFICADOR
  C:0000H         SYMBOL        _ICE_DUMMY_
  D:0080H         PUBLIC        P0
  C:9A9BH         PUBLIC        Ingreso_Vehiculo
  D:0090H         PUBLIC        P1
  C:BA45H         PUBLIC        _Armar_Trama_Tarjeta_Sector1_Bloque0
  D:00B0H         PUBLIC        P3
  C:88F7H         PUBLIC        _Valida_Tipo_Tarjeta
  C:B753H         PUBLIC        _Load_Secuencia_Expedidor
  C:5E63H         PUBLIC        _Armar_Trama_Tarjeta_Sector1_Bloque2
  C:51CDH         PUBLIC        _Armar_Trama_Pto_Paralelo_Expedidor
  B:0080H.2       PUBLIC        led_err_imp
  C:BAC5H         PUBLIC        Analiza_Presencia_rotacion
  C:A07EH         PUBLIC        _Disparo_Lock_Entrada_Vehiculo
  C:A5DDH         PUBLIC        _Armar_Trama_Placa
  C:8666H         PUBLIC        _rta_cmd_transporte
  C:4F2AH         PUBLIC        _Armar_Trama_Monitor
  C:6C4CH         PUBLIC        Secuencia_inicio_expedidor
  C:89D1H         PUBLIC        _Analiza_Uid_Card
  B:0080H.0       PUBLIC        rx_ip
  B:0080H.3       PUBLIC        Atascado_GP0_PIN_3
  B:0090H.7       PUBLIC        lock
  C:9DA4H         PUBLIC        _Responde_Lectura_Tarjeta_Sector1_Bloque0
  C:90F5H         PUBLIC        error_rx_pto
  C:604EH         PUBLIC        _Responde_Lectura_Tarjeta_Sector1_Bloque1
  C:712BH         PUBLIC        _Responde_Lectura_Tarjeta_Sector1_Bloque2
  C:AB61H         PUBLIC        Respuesta_Placa_Cancel
  B:0090H.1       PUBLIC        DataIn
BL51 BANKED LINKER/LOCATER V6.22.2.0                                                  09/02/2021  16:32:27  PAGE 108


  C:98B3H         PUBLIC        _Send_Pto_Paralelo
  C:B642H         PUBLIC        Trama_Validacion_P_N
  B:0022H.0       PUBLIC        MenSual
  C:6FFDH         PUBLIC        _Armar_Trama_Pto_Paralelo_Expedidor_Mensual
  C:687AH         PUBLIC        _Responde_ReeLectura_Tarjeta_Sector1_Bloque2
  C:39E4H         PUBLIC        _SecuenciaExpedidorMF
  C:BA0DH         PUBLIC        Pregunta_Placa_Habilitada
  C:AE4AH         PUBLIC        _Pregunta_Lpr
  C:A19BH         PUBLIC        Wait_Placa
  C:AAE9H         PUBLIC        Responde_Estado_Sensores_Transporte
  C:9BD6H         PUBLIC        Entrega_Card_Captura
  C:AEA7H         PUBLIC        _Respuesta_Segunda_clave
  X:0147H         SYMBOL        Estado
  C:B93EH         PUBLIC        _Responde_Write_Tarjeta_Sector1_Bloque0
  C:B908H         PUBLIC        _Responde_Write_Tarjeta_Sector1_Bloque1
  C:B2A0H         PUBLIC        _Responde_Write_Tarjeta_Sector2_Bloque0
  C:A44CH         PUBLIC        _Responde_Write_Tarjeta_Sector1_Bloque2
  C:A768H         PUBLIC        Responde_Tipo_Tarjeta
  C:B9DCH         PUBLIC        _Tarjeta_Rotacion
  -------         PROC          TRAMA_VALIDACION_P_N
  -------         DO            
  D:0007H         SYMBOL        Trama_Validacion_P_N
  -------         ENDDO         
  C:B642H         LINE#         579
  C:B642H         LINE#         580
  C:B642H         LINE#         581
  C:B644H         LINE#         583
  C:B65AH         LINE#         584
  C:B65AH         LINE#         585
  C:B65DH         LINE#         586
  C:B65DH         LINE#         587
  C:B65FH         LINE#         590
  C:B667H         LINE#         591
  C:B667H         LINE#         593
  C:B669H         LINE#         595
  C:B66AH         LINE#         596
  C:B66EH         LINE#         597
  C:B66EH         LINE#         599
  C:B670H         LINE#         601
  C:B671H         LINE#         603
  C:B671H         LINE#         604
  C:B67AH         LINE#         605
  C:B67CH         LINE#         607
  C:B67CH         LINE#         608
  C:B67DH         LINE#         610
  C:B67DH         LINE#         612
  C:B67FH         LINE#         614
  C:B67FH         LINE#         616
  C:B67FH         LINE#         618
  C:B67FH         LINE#         619
  -------         ENDPROC       TRAMA_VALIDACION_P_N
  -------         PROC          ERROR_RX_PTO
  -------         DO            
  X:00B7H         SYMBOL        cnt_espera_ask_on
  X:0007H         SYMBOL        error_rx_pto
  -------         ENDDO         
  C:90F5H         LINE#         643
BL51 BANKED LINKER/LOCATER V6.22.2.0                                                  09/02/2021  16:32:27  PAGE 109


  C:90F5H         LINE#         644
  C:90F5H         LINE#         647
  C:90FBH         LINE#         651
  C:9104H         LINE#         652
  C:910CH         LINE#         653
  C:9115H         LINE#         654
  C:911DH         LINE#         655
  C:9126H         LINE#         656
  C:9129H         LINE#         658
  C:9129H         LINE#         659
  C:912FH         LINE#         660
  C:9139H         LINE#         661
  C:9139H         LINE#         662
  C:9142H         LINE#         663
  C:9144H         LINE#         664
  C:914BH         LINE#         665
  C:9150H         LINE#         666
  C:9156H         LINE#         667
  C:915BH         LINE#         668
  C:915DH         LINE#         669
  C:9164H         LINE#         670
  C:916AH         LINE#         671
  C:916AH         LINE#         673
  C:916AH         LINE#         674
  C:916FH         LINE#         675
  C:916FH         LINE#         676
  C:916FH         LINE#         677
  C:9171H         LINE#         679
  C:9171H         LINE#         680
  C:917FH         LINE#         681
  C:9192H         LINE#         682
  C:9192H         LINE#         683
  C:9193H         LINE#         685
  C:9199H         LINE#         686
  C:919DH         LINE#         687
  C:919FH         LINE#         688
  C:919FH         LINE#         689
  C:91A1H         LINE#         691
  C:91A1H         LINE#         692
  C:91A2H         LINE#         693
  C:91A7H         LINE#         694
  C:91ADH         LINE#         695
  C:91ADH         LINE#         696
  C:91ADH         LINE#         697
  C:91B2H         LINE#         698
  -------         ENDPROC       ERROR_RX_PTO
  -------         PROC          _RTA_CMD_TRANSPORTE
  X:0002H         SYMBOL        secuencia_Expedidor
  -------         DO            
  X:0005H         SYMBOL        temp
  X:0006H         SYMBOL        EstadoComSeqMF
  -------         ENDDO         
  C:8666H         LINE#         714
  C:8671H         LINE#         715
  C:8671H         LINE#         721
  C:867EH         LINE#         722
  C:867EH         LINE#         723
BL51 BANKED LINKER/LOCATER V6.22.2.0                                                  09/02/2021  16:32:27  PAGE 110


  C:8686H         LINE#         724
  C:8686H         LINE#         725
  C:8694H         LINE#         726
  C:8697H         LINE#         727
  C:869DH         LINE#         728
  C:869DH         LINE#         729
  C:86A6H         LINE#         730
  C:86BAH         LINE#         731
  C:86C2H         LINE#         732
  C:86C2H         LINE#         733
  C:86CBH         LINE#         734
  C:86CBH         LINE#         736
  C:86DCH         LINE#         738
  C:86DEH         LINE#         740
  C:86DEH         LINE#         743
  C:86F6H         LINE#         744
  C:86F6H         LINE#         745
  C:8701H         LINE#         746
  C:8703H         LINE#         748
  C:8703H         LINE#         749
  C:8711H         LINE#         750
  C:8711H         LINE#         751
  C:8711H         LINE#         752
  C:8713H         LINE#         754
  C:8713H         LINE#         756
  C:8727H         LINE#         757
  C:873CH         LINE#         758
  C:873CH         LINE#         759
  C:8741H         LINE#         760
  -------         ENDPROC       _RTA_CMD_TRANSPORTE
  -------         PROC          ANALIZA_PRESENCIA_ROTACION
  -------         DO            
  X:0002H         SYMBOL        Estado_expedidor
  -------         ENDDO         
  C:BAC5H         LINE#         821
  C:BAC5H         LINE#         822
  C:BAC5H         LINE#         824
  C:BACBH         LINE#         825
  C:BACBH         LINE#         827
  C:BAD1H         LINE#         828
  C:BAD3H         LINE#         830
  C:BAD3H         LINE#         832
  C:BAD8H         LINE#         833
  C:BADDH         LINE#         834
  C:BAE3H         LINE#         835
  C:BAE9H         LINE#         837
  C:BAE9H         LINE#         838
  C:BAEEH         LINE#         839
  -------         ENDPROC       ANALIZA_PRESENCIA_ROTACION
  -------         PROC          _ANALIZA_UID_CARD
  X:0002H         SYMBOL        Atributos_Expedidor
  -------         DO            
  X:0005H         SYMBOL        Estado_expedidor
  D:0007H         SYMBOL        temp
  X:0006H         SYMBOL        buffer_UID
  -------         ENDDO         
  C:89D1H         LINE#         843
BL51 BANKED LINKER/LOCATER V6.22.2.0                                                  09/02/2021  16:32:27  PAGE 111


  C:89DCH         LINE#         844
  C:89DCH         LINE#         848
  C:89ECH         LINE#         849
  C:89ECH         LINE#         851
  C:89F8H         LINE#         852
  C:89F8H         LINE#         853
  C:8A10H         LINE#         855
  C:8A13H         LINE#         857
  C:8A1CH         LINE#         858
  C:8A2DH         LINE#         861
  C:8A36H         LINE#         862
  C:8A3EH         LINE#         863
  C:8A46H         LINE#         864
  C:8A4EH         LINE#         865
  C:8A56H         LINE#         866
  C:8A5FH         LINE#         868
  C:8A76H         LINE#         869
  C:8A80H         LINE#         870
  C:8A8AH         LINE#         871
  C:8A94H         LINE#         872
  C:8A9AH         LINE#         873
  C:8A9CH         LINE#         875
  C:8A9CH         LINE#         876
  C:8AA2H         LINE#         877
  C:8AA2H         LINE#         878
  C:8AA7H         LINE#         879
  -------         ENDPROC       _ANALIZA_UID_CARD
  -------         PROC          INGRESO_VEHICULO
  -------         DO            
  X:0002H         SYMBOL        CardAutomatic
  X:00B9H         SYMBOL        pulseboton
  -------         ENDDO         
  C:9A9BH         LINE#         883
  C:9A9BH         LINE#         884
  C:9A9BH         LINE#         887
  C:9AA4H         LINE#         889
  C:9AADH         LINE#         890
  C:9AADH         LINE#         892
  C:9ABBH         LINE#         894
  C:9ABEH         LINE#         895
  C:9ABEH         LINE#         897
  C:9AC1H         LINE#         899
  C:9AC1H         LINE#         901
  C:9AC9H         LINE#         902
  C:9AC9H         LINE#         903
  C:9AD2H         LINE#         904
  C:9AD7H         LINE#         905
  C:9AD7H         LINE#         906
  C:9AD9H         LINE#         908
  C:9AD9H         LINE#         910
  C:9ADCH         LINE#         911
  C:9ADCH         LINE#         913
  C:9ADFH         LINE#         915
  C:9ADFH         LINE#         917
  C:9AECH         LINE#         918
  C:9AF1H         LINE#         919
  C:9AF6H         LINE#         920
BL51 BANKED LINKER/LOCATER V6.22.2.0                                                  09/02/2021  16:32:27  PAGE 112


  C:9AF8H         LINE#         922
  C:9AF8H         LINE#         923
  C:9AFEH         LINE#         926
  C:9AFEH         LINE#         927
  C:9B01H         LINE#         928
  C:9B04H         LINE#         929
  C:9B04H         LINE#         930
  C:9B06H         LINE#         931
  C:9B0BH         LINE#         932
  C:9B0FH         LINE#         933
  C:9B15H         LINE#         934
  C:9B17H         LINE#         936
  C:9B17H         LINE#         937
  C:9B1AH         LINE#         938
  C:9B1AH         LINE#         940
  C:9B1DH         LINE#         942
  C:9B1DH         LINE#         943
  C:9B23H         LINE#         944
  C:9B29H         LINE#         945
  C:9B29H         LINE#         948
  C:9B29H         LINE#         949
  C:9B2BH         LINE#         951
  C:9B2BH         LINE#         954
  C:9B2DH         LINE#         955
  C:9B33H         LINE#         956
  C:9B33H         LINE#         957
  C:9B38H         LINE#         958
  -------         ENDPROC       INGRESO_VEHICULO
  -------         PROC          RESPONDE_ESTADO_SENSORES_TRANSPORTE
  -------         DO            
  X:0002H         SYMBOL        Estado_expedidor
  -------         ENDDO         
  C:AAE9H         LINE#         965
  C:AAE9H         LINE#         966
  C:AAE9H         LINE#         969
  C:AAF2H         LINE#         971
  C:AAFAH         LINE#         972
  C:AAFAH         LINE#         974
  C:AB05H         LINE#         975
  C:AB05H         LINE#         976
  C:AB09H         LINE#         977
  C:AB09H         LINE#         978
  C:AB12H         LINE#         979
  C:AB17H         LINE#         981
  C:AB17H         LINE#         983
  C:AB19H         LINE#         985
  C:AB19H         LINE#         988
  C:AB1FH         LINE#         990
  C:AB1FH         LINE#         991
  C:AB21H         LINE#         993
  C:AB21H         LINE#         995
  C:AB2AH         LINE#         997
  C:AB2FH         LINE#         1000
  C:AB34H         LINE#         1001
  C:AB34H         LINE#         1002
  C:AB36H         LINE#         1003
  C:AB3DH         LINE#         1004
BL51 BANKED LINKER/LOCATER V6.22.2.0                                                  09/02/2021  16:32:27  PAGE 113


  C:AB3DH         LINE#         1006
  C:AB43H         LINE#         1008
  C:AB43H         LINE#         1009
  C:AB45H         LINE#         1010
  C:AB4CH         LINE#         1012
  C:AB4CH         LINE#         1013
  C:AB55H         LINE#         1014
  C:AB5BH         LINE#         1015
  C:AB5BH         LINE#         1020
  C:AB60H         LINE#         1021
  -------         ENDPROC       RESPONDE_ESTADO_SENSORES_TRANSPORTE
  -------         PROC          RESPONDE_TIPO_TARJETA
  -------         DO            
  X:0002H         SYMBOL        Estado_expedidor
  -------         ENDDO         
  C:A768H         LINE#         1037
  C:A768H         LINE#         1038
  C:A768H         LINE#         1041
  C:A771H         LINE#         1043
  C:A779H         LINE#         1044
  C:A779H         LINE#         1045
  C:A784H         LINE#         1046
  C:A784H         LINE#         1047
  C:A78DH         LINE#         1048
  C:A793H         LINE#         1049
  C:A793H         LINE#         1050
  C:A793H         LINE#         1051
  C:A795H         LINE#         1053
  C:A795H         LINE#         1054
  C:A798H         LINE#         1055
  C:A798H         LINE#         1056
  C:A79AH         LINE#         1058
  C:A79AH         LINE#         1059
  C:A7A1H         LINE#         1060
  C:A7A1H         LINE#         1062
  C:A7AAH         LINE#         1064
  C:A7AFH         LINE#         1065
  C:A7B4H         LINE#         1067
  C:A7B7H         LINE#         1069
  C:A7B9H         LINE#         1071
  C:A7B9H         LINE#         1073
  C:A7B9H         LINE#         1074
  C:A7B9H         LINE#         1075
  C:A7B9H         LINE#         1076
  C:A7B9H         LINE#         1077
  C:A7BBH         LINE#         1079
  C:A7BBH         LINE#         1080
  C:A7C2H         LINE#         1081
  C:A7C2H         LINE#         1084
  C:A7CBH         LINE#         1086
  C:A7D0H         LINE#         1087
  C:A7D5H         LINE#         1089
  C:A7DBH         LINE#         1092
  C:A7DDH         LINE#         1094
  C:A7DDH         LINE#         1096
  C:A7DFH         LINE#         1097
  C:A7E4H         LINE#         1098
BL51 BANKED LINKER/LOCATER V6.22.2.0                                                  09/02/2021  16:32:27  PAGE 114


  C:A7E4H         LINE#         1099
  C:A7E4H         LINE#         1101
  C:A7E9H         LINE#         1102
  -------         ENDPROC       RESPONDE_TIPO_TARJETA
  -------         PROC          _RESPONDE_LECTURA_TARJETA_SECTOR1_BLOQUE1
  X:0002H         SYMBOL        Atributos_Expedidor
  -------         DO            
  D:0007H         SYMBOL        temp
  X:0005H         SYMBOL        Estado_expedidor
  X:0006H         SYMBOL        buffer_S1_B1
  X:0017H         SYMBOL        ID_CLIENTE
  D:0007H         SYMBOL        COD_PARK
  X:00BAH         SYMBOL        falla
  -------         ENDDO         
  C:604EH         LINE#         1114
  C:6059H         LINE#         1115
  C:6059H         LINE#         1122
  C:6062H         LINE#         1126
  C:6072H         LINE#         1127
  C:6072H         LINE#         1129
  C:607EH         LINE#         1130
  C:607EH         LINE#         1131
  C:6096H         LINE#         1133
  C:6099H         LINE#         1136
  C:60A2H         LINE#         1137
  C:60B3H         LINE#         1138
  C:60C0H         LINE#         1139
  C:60C9H         LINE#         1142
  C:60E8H         LINE#         1143
  C:60E8H         LINE#         1145
  C:60F1H         LINE#         1146
  C:60F9H         LINE#         1147
  C:6102H         LINE#         1149
  C:610BH         LINE#         1150
  C:6113H         LINE#         1151
  C:611CH         LINE#         1153
  C:6125H         LINE#         1154
  C:612DH         LINE#         1155
  C:6136H         LINE#         1157
  C:613FH         LINE#         1158
  C:6147H         LINE#         1159
  C:6150H         LINE#         1161
  C:6159H         LINE#         1162
  C:6161H         LINE#         1163
  C:616AH         LINE#         1165
  C:6181H         LINE#         1167
  C:618BH         LINE#         1168
  C:6195H         LINE#         1169
  C:619FH         LINE#         1171
  C:61A4H         LINE#         1172
  C:61B7H         LINE#         1173
  C:61BCH         LINE#         1174
  C:61C2H         LINE#         1176
  C:61C4H         LINE#         1178
  C:61C4H         LINE#         1179
  C:61C9H         LINE#         1180
  C:61D2H         LINE#         1181
BL51 BANKED LINKER/LOCATER V6.22.2.0                                                  09/02/2021  16:32:27  PAGE 115


  C:61D7H         LINE#         1182
  C:61D9H         LINE#         1183
  C:61D9H         LINE#         1184
  C:61D9H         LINE#         1185
  C:61DBH         LINE#         1187
  C:61DBH         LINE#         1189
  C:61E3H         LINE#         1190
  C:61E3H         LINE#         1191
  C:61E9H         LINE#         1192
  C:61E9H         LINE#         1193
  C:61F6H         LINE#         1195
  C:61F6H         LINE#         1196
  C:61FFH         LINE#         1197
  C:6205H         LINE#         1199
  C:6207H         LINE#         1201
  C:6207H         LINE#         1202
  C:620CH         LINE#         1203
  C:6215H         LINE#         1204
  C:621AH         LINE#         1205
  C:621FH         LINE#         1206
  C:6225H         LINE#         1207
  C:6225H         LINE#         1208
  C:6225H         LINE#         1210
  C:622AH         LINE#         1211
  -------         ENDPROC       _RESPONDE_LECTURA_TARJETA_SECTOR1_BLOQUE1
  -------         PROC          _RESPONDE_LECTURA_TARJETA_SECTOR1_BLOQUE2
  X:0002H         SYMBOL        Atributos_Expedidor
  -------         DO            
  D:0007H         SYMBOL        temp
  X:0005H         SYMBOL        Estado_expedidor
  X:0006H         SYMBOL        buffer_S1_B2
  -------         ENDDO         
  C:712BH         LINE#         1216
  C:7136H         LINE#         1217
  C:7136H         LINE#         1223
  C:713FH         LINE#         1227
  C:714FH         LINE#         1228
  C:714FH         LINE#         1230
  C:715BH         LINE#         1231
  C:715BH         LINE#         1232
  C:7173H         LINE#         1233
  C:7176H         LINE#         1234
  C:717FH         LINE#         1235
  C:7190H         LINE#         1239
  C:7199H         LINE#         1240
  C:71A6H         LINE#         1241
  C:71C2H         LINE#         1242
  C:71CBH         LINE#         1244
  C:71D4H         LINE#         1246
  C:71F0H         LINE#         1247
  C:71FAH         LINE#         1248
  C:7203H         LINE#         1251
  C:720CH         LINE#         1252
  C:7214H         LINE#         1253
  C:721DH         LINE#         1257
  C:7234H         LINE#         1260
  C:7240H         LINE#         1261
BL51 BANKED LINKER/LOCATER V6.22.2.0                                                  09/02/2021  16:32:27  PAGE 116


  C:7246H         LINE#         1264
  C:7248H         LINE#         1266
  C:7248H         LINE#         1267
  C:724EH         LINE#         1268
  C:724EH         LINE#         1269
  C:7253H         LINE#         1270
  -------         ENDPROC       _RESPONDE_LECTURA_TARJETA_SECTOR1_BLOQUE2
  -------         PROC          _RESPONDE_LECTURA_TARJETA_SECTOR1_BLOQUE0
  X:0002H         SYMBOL        Nombre_Mensual
  -------         DO            
  D:0007H         SYMBOL        temp
  X:0005H         SYMBOL        Estado_expedidor
  -------         ENDDO         
  C:9DA4H         LINE#         1272
  C:9DAFH         LINE#         1273
  C:9DAFH         LINE#         1279
  C:9DB8H         LINE#         1283
  C:9DC5H         LINE#         1284
  C:9DC5H         LINE#         1286
  C:9DD1H         LINE#         1287
  C:9DD1H         LINE#         1288
  C:9DF1H         LINE#         1289
  C:9DF4H         LINE#         1290
  C:9E08H         LINE#         1291
  C:9E11H         LINE#         1292
  C:9E1FH         LINE#         1293
  C:9E28H         LINE#         1294
  C:9E2EH         LINE#         1297
  C:9E30H         LINE#         1299
  C:9E30H         LINE#         1300
  C:9E36H         LINE#         1301
  C:9E36H         LINE#         1302
  C:9E3BH         LINE#         1303
  -------         ENDPROC       _RESPONDE_LECTURA_TARJETA_SECTOR1_BLOQUE0
  -------         PROC          _RESPONDE_REELECTURA_TARJETA_SECTOR1_BLOQUE2
  X:0002H         SYMBOL        lectura_anterior
  X:0005H         SYMBOL        Atributos_Expedidor
  -------         DO            
  D:0007H         SYMBOL        temp
  X:0008H         SYMBOL        Estado_expedidor
  X:0009H         SYMBOL        reelectura
  X:00BBH         SYMBOL        error_lectura
  -------         ENDDO         
  C:687AH         LINE#         1304
  C:6885H         LINE#         1305
  C:6885H         LINE#         1311
  C:688EH         LINE#         1314
  C:689EH         LINE#         1315
  C:689EH         LINE#         1317
  C:68AAH         LINE#         1318
  C:68AAH         LINE#         1319
  C:68CAH         LINE#         1320
  C:68CDH         LINE#         1321
  C:68E1H         LINE#         1322
  C:68EAH         LINE#         1323
  C:6900H         LINE#         1324
  C:6909H         LINE#         1326
BL51 BANKED LINKER/LOCATER V6.22.2.0                                                  09/02/2021  16:32:27  PAGE 117


  C:692DH         LINE#         1327
  C:692DH         LINE#         1328
  C:6931H         LINE#         1329
  C:693AH         LINE#         1330
  C:6943H         LINE#         1331
  C:6953H         LINE#         1332
  C:6965H         LINE#         1333
  C:696BH         LINE#         1334
  C:696BH         LINE#         1335
  C:696DH         LINE#         1337
  C:696DH         LINE#         1338
  C:6973H         LINE#         1339
  C:6983H         LINE#         1340
  C:6983H         LINE#         1341
  C:6986H         LINE#         1342
  C:698CH         LINE#         1344
  C:698EH         LINE#         1346
  C:698EH         LINE#         1347
  C:6991H         LINE#         1348
  C:699AH         LINE#         1349
  C:69AAH         LINE#         1350
  C:69BDH         LINE#         1351
  C:69C3H         LINE#         1353
  C:69C3H         LINE#         1354
  C:69C3H         LINE#         1356
  C:69C3H         LINE#         1357
  C:69C8H         LINE#         1358
  -------         ENDPROC       _RESPONDE_REELECTURA_TARJETA_SECTOR1_BLOQUE2
  -------         PROC          _RESPONDE_WRITE_TARJETA_SECTOR1_BLOQUE1
  X:0002H         SYMBOL        Buffer_Write_MF
  -------         DO            
  D:0007H         SYMBOL        Estado_expedidor
  -------         ENDDO         
  C:B908H         LINE#         1359
  C:B913H         LINE#         1360
  C:B913H         LINE#         1362
  C:B91CH         LINE#         1363
  C:B925H         LINE#         1364
  C:B93BH         LINE#         1365
  C:B93DH         LINE#         1366
  C:B93DH         LINE#         1367
  -------         ENDPROC       _RESPONDE_WRITE_TARJETA_SECTOR1_BLOQUE1
  -------         PROC          _RESPONDE_WRITE_TARJETA_SECTOR1_BLOQUE2
  X:0002H         SYMBOL        Atributos_Expedidor
  X:0005H         SYMBOL        Buffer_Write_MF
  -------         DO            
  X:0008H         SYMBOL        Estado_expedidor
  -------         ENDDO         
  C:A44CH         LINE#         1368
  C:A457H         LINE#         1369
  C:A457H         LINE#         1371
  C:A460H         LINE#         1372
  C:A469H         LINE#         1373
  C:A47FH         LINE#         1374
  C:A48FH         LINE#         1375
  C:A48FH         LINE#         1378
  C:A492H         LINE#         1379
BL51 BANKED LINKER/LOCATER V6.22.2.0                                                  09/02/2021  16:32:27  PAGE 118


  C:A4A4H         LINE#         1380
  C:A4AAH         LINE#         1381
  C:A4B0H         LINE#         1382
  C:A4B2H         LINE#         1384
  C:A4B2H         LINE#         1385
  C:A4B5H         LINE#         1386
  C:A4C7H         LINE#         1387
  C:A4CDH         LINE#         1389
  C:A4CDH         LINE#         1390
  C:A4D2H         LINE#         1391
  -------         ENDPROC       _RESPONDE_WRITE_TARJETA_SECTOR1_BLOQUE2
  -------         PROC          _RESPONDE_WRITE_TARJETA_SECTOR1_BLOQUE0
  X:0002H         SYMBOL        Buffer_Write_MF
  C:B93EH         LINE#         1394
  C:B949H         LINE#         1395
  C:B949H         LINE#         1397
  C:B952H         LINE#         1398
  C:B95BH         LINE#         1399
  C:B971H         LINE#         1401
  C:B973H         LINE#         1402
  -------         ENDPROC       _RESPONDE_WRITE_TARJETA_SECTOR1_BLOQUE0
  -------         PROC          _RESPONDE_WRITE_TARJETA_SECTOR2_BLOQUE0
  X:0002H         SYMBOL        Buffer_Write_MF
  C:B2A0H         LINE#         1405
  C:B2ABH         LINE#         1406
  C:B2ABH         LINE#         1408
  C:B2B4H         LINE#         1409
  C:B2BDH         LINE#         1410
  C:B2C6H         LINE#         1411
  C:B2CFH         LINE#         1412
  C:B2E4H         LINE#         1413
  C:B2E6H         LINE#         1414
  -------         ENDPROC       _RESPONDE_WRITE_TARJETA_SECTOR2_BLOQUE0
  -------         PROC          _PREGUNTA_LPR
  X:0002H         SYMBOL        Atributos_Expedidor
  -------         DO            
  D:0007H         SYMBOL        Estado_expedidor
  X:0005H         SYMBOL        contador
  X:0007H         SYMBOL        time_out
  -------         ENDDO         
  C:AE4AH         LINE#         1418
  C:AE55H         LINE#         1419
  C:AE55H         LINE#         1421
  C:AE5AH         LINE#         1422
  C:AE5EH         LINE#         1423
  C:AE67H         LINE#         1424
  C:AE75H         LINE#         1425
  C:AE83H         LINE#         1426
  C:AE83H         LINE#         1428
  C:AE94H         LINE#         1429
  C:AEA0H         LINE#         1430
  C:AEA0H         LINE#         1431
  C:AEA4H         LINE#         1433
  C:AEA4H         LINE#         1434
  C:AEA4H         LINE#         1437
  C:AEA6H         LINE#         1439
  C:AEA6H         LINE#         1440
BL51 BANKED LINKER/LOCATER V6.22.2.0                                                  09/02/2021  16:32:27  PAGE 119


  -------         ENDPROC       _PREGUNTA_LPR
  -------         PROC          PREGUNTA_PLACA_HABILITADA
  -------         DO            
  X:0002H         SYMBOL        Estado_expedidor
  -------         ENDDO         
  C:BA0DH         LINE#         1442
  C:BA0DH         LINE#         1443
  C:BA0DH         LINE#         1445
  C:BA16H         LINE#         1446
  C:BA25H         LINE#         1447
  C:BA25H         LINE#         1449
  C:BA28H         LINE#         1450
  C:BA2DH         LINE#         1451
  C:BA32H         LINE#         1452
  C:BA34H         LINE#         1454
  C:BA34H         LINE#         1455
  C:BA37H         LINE#         1456
  C:BA37H         LINE#         1457
  C:BA3CH         LINE#         1458
  -------         ENDPROC       PREGUNTA_PLACA_HABILITADA
  -------         PROC          _RESPUESTA_SEGUNDA_CLAVE
  X:0002H         SYMBOL        Atributos_Expedidor
  X:0005H         SYMBOL        Buffer_Write_MF
  C:AEA7H         LINE#         1459
  C:AEB2H         LINE#         1460
  C:AEB2H         LINE#         1462
  C:AEBBH         LINE#         1463
  C:AED1H         LINE#         1466
  C:AEE1H         LINE#         1467
  C:AEF3H         LINE#         1468
  C:AF01H         LINE#         1470
  C:AF03H         LINE#         1471
  -------         ENDPROC       _RESPUESTA_SEGUNDA_CLAVE
  -------         PROC          RESPUESTA_PLACA_CANCEL
  -------         DO            
  X:0003H         SYMBOL        Estado_expedidor
  X:0004H         SYMBOL        Cancel
  -------         ENDDO         
  C:AB61H         LINE#         1472
  C:AB61H         LINE#         1473
  C:AB61H         LINE#         1475
  C:AB6FH         LINE#         1476
  C:AB78H         LINE#         1477
  C:AB81H         LINE#         1478
  C:AB8AH         LINE#         1487
  C:ABA0H         LINE#         1488
  C:ABA0H         LINE#         1489
  C:ABA8H         LINE#         1490
  C:ABA8H         LINE#         1491
  C:ABAAH         LINE#         1492
  C:ABC0H         LINE#         1493
  C:ABC0H         LINE#         1494
  C:ABC8H         LINE#         1495
  C:ABC8H         LINE#         1496
  C:ABCAH         LINE#         1498
  C:ABCAH         LINE#         1506
  C:ABD0H         LINE#         1508
BL51 BANKED LINKER/LOCATER V6.22.2.0                                                  09/02/2021  16:32:27  PAGE 120


  C:ABD0H         LINE#         1509
  C:ABD5H         LINE#         1510
  -------         ENDPROC       RESPUESTA_PLACA_CANCEL
  -------         PROC          _ARMAR_TRAMA_TARJETA_SECTOR1_BLOQUE2
  X:000FH         SYMBOL        Atributos_Expedidor
  X:0012H         SYMBOL        Buffer_Write_MF
  C:5E63H         LINE#         1542
  C:5E6EH         LINE#         1543
  C:5E6EH         LINE#         1548
  C:5E92H         LINE#         1549
  C:5EB9H         LINE#         1550
  C:5EE0H         LINE#         1551
  C:5F07H         LINE#         1552
  C:5F2EH         LINE#         1555
  C:5F35H         LINE#         1556
  C:5F3CH         LINE#         1557
  C:5F43H         LINE#         1559
  C:5F58H         LINE#         1560
  C:5F58H         LINE#         1561
  C:5F6FH         LINE#         1562
  C:5F88H         LINE#         1563
  C:5F88H         LINE#         1564
  C:5F8BH         LINE#         1568
  C:5F8BH         LINE#         1570
  C:5FBAH         LINE#         1571
  C:5FE9H         LINE#         1573
  C:6001H         LINE#         1574
  C:6001H         LINE#         1575
  C:600EH         LINE#         1576
  C:6010H         LINE#         1578
  C:6010H         LINE#         1579
  C:6020H         LINE#         1580
  C:6020H         LINE#         1581
  C:6020H         LINE#         1583
  C:6032H         LINE#         1584
  C:6039H         LINE#         1585
  C:6040H         LINE#         1586
  C:6047H         LINE#         1587
  -------         ENDPROC       _ARMAR_TRAMA_TARJETA_SECTOR1_BLOQUE2
  -------         PROC          L?0350
  -------         ENDPROC       L?0350
  -------         PROC          _ARMAR_TRAMA_TARJETA_SECTOR1_BLOQUE0
  X:000CH         SYMBOL        Buffer_Write_MF
  C:BA45H         LINE#         1589
  C:BA50H         LINE#         1590
  C:BA50H         LINE#         1592
  -------         ENDPROC       _ARMAR_TRAMA_TARJETA_SECTOR1_BLOQUE0
  -------         PROC          _ARMAR_TRAMA_PTO_PARALELO_EXPEDIDOR
  X:0009H         SYMBOL        Atributos_Expedidor
  X:000CH         SYMBOL        longitud_trama_pto_paralelo
  -------         DO            
  X:00BCH         SYMBOL        buffer
  X:000FH         SYMBOL        ticket
  X:001AH         SYMBOL        j
  -------         ENDDO         
  C:51CDH         LINE#         1594
  C:51D8H         LINE#         1595
BL51 BANKED LINKER/LOCATER V6.22.2.0                                                  09/02/2021  16:32:27  PAGE 121


  C:51D8H         LINE#         1602
  C:51DEH         LINE#         1603
  C:51E2H         LINE#         1604
  C:51E5H         LINE#         1605
  C:51F1H         LINE#         1606
  C:5208H         LINE#         1607
  C:5216H         LINE#         1609
  C:5227H         LINE#         1611
  C:5253H         LINE#         1612
  C:527FH         LINE#         1613
  C:52ABH         LINE#         1614
  C:52D7H         LINE#         1615
  C:5303H         LINE#         1616
  C:5317H         LINE#         1626
  C:5326H         LINE#         1627
  C:5326H         LINE#         1628
  C:532CH         LINE#         1629
  C:532CH         LINE#         1630
  C:5343H         LINE#         1631
  C:5359H         LINE#         1632
  C:536FH         LINE#         1633
  C:5385H         LINE#         1634
  C:539BH         LINE#         1635
  C:53B0H         LINE#         1636
  C:53B0H         LINE#         1637
  C:53B2H         LINE#         1639
  C:53B2H         LINE#         1640
  C:53C5H         LINE#         1641
  C:53C5H         LINE#         1642
  C:53C5H         LINE#         1643
  C:53C7H         LINE#         1645
  C:53C7H         LINE#         1646
  C:53DBH         LINE#         1647
  C:53EEH         LINE#         1648
  C:53EEH         LINE#         1649
  C:53FCH         LINE#         1650
  C:540AH         LINE#         1651
  C:541CH         LINE#         1653
  C:5422H         LINE#         1654
  -------         ENDPROC       _ARMAR_TRAMA_PTO_PARALELO_EXPEDIDOR
  -------         PROC          _ARMAR_TRAMA_PTO_PARALELO_EXPEDIDOR_MENSUAL
  X:0009H         SYMBOL        Atributos_Expedidor
  X:000CH         SYMBOL        longitud_trama_pto_paralelo
  -------         DO            
  X:00D8H         SYMBOL        buffer
  -------         ENDDO         
  C:6FFDH         LINE#         1655
  C:7008H         LINE#         1656
  C:7008H         LINE#         1662
  C:700EH         LINE#         1663
  C:7012H         LINE#         1664
  C:7027H         LINE#         1665
  C:7031H         LINE#         1666
  C:703BH         LINE#         1667
  C:7045H         LINE#         1671
  C:7056H         LINE#         1672
  C:7072H         LINE#         1673
BL51 BANKED LINKER/LOCATER V6.22.2.0                                                  09/02/2021  16:32:27  PAGE 122


  C:708EH         LINE#         1674
  C:70AAH         LINE#         1675
  C:70C6H         LINE#         1685
  C:70D2H         LINE#         1686
  C:70D2H         LINE#         1688
  C:70D9H         LINE#         1689
  C:70DDH         LINE#         1690
  C:70E1H         LINE#         1691
  C:70E5H         LINE#         1692
  C:70E9H         LINE#         1693
  C:70EDH         LINE#         1695
  C:70EDH         LINE#         1697
  C:7103H         LINE#         1698
  C:7103H         LINE#         1699
  C:7106H         LINE#         1700
  C:7108H         LINE#         1702
  C:7108H         LINE#         1703
  C:710BH         LINE#         1704
  C:710BH         LINE#         1706
  C:7111H         LINE#         1707
  C:7114H         LINE#         1708
  C:7124H         LINE#         1709
  C:712AH         LINE#         1710
  -------         ENDPROC       _ARMAR_TRAMA_PTO_PARALELO_EXPEDIDOR_MENSUAL
  -------         PROC          _ARMAR_TRAMA_MONITOR
  X:0009H         SYMBOL        Atributos_Expedidor
  -------         DO            
  X:00F4H         SYMBOL        buffer
  X:000CH         SYMBOL        ticket
  X:0017H         SYMBOL        j
  -------         ENDDO         
  C:4F2AH         LINE#         1711
  C:4F35H         LINE#         1712
  C:4F35H         LINE#         1718
  C:4F3AH         LINE#         1719
  C:4F40H         LINE#         1720
  C:4F48H         LINE#         1721
  C:4F4CH         LINE#         1722
  C:4F55H         LINE#         1723
  C:4F55H         LINE#         1724
  C:4F58H         LINE#         1725
  C:4F5AH         LINE#         1727
  C:4F5AH         LINE#         1728
  C:4F5DH         LINE#         1729
  C:4F5DH         LINE#         1732
  C:4F60H         LINE#         1733
  C:4F60H         LINE#         1734
  C:4F65H         LINE#         1735
  C:4F71H         LINE#         1736
  C:4F88H         LINE#         1737
  C:4F8BH         LINE#         1739
  C:4F8BH         LINE#         1740
  C:4FA6H         LINE#         1741
  C:4FB4H         LINE#         1742
  C:4FC2H         LINE#         1743
  C:4FCEH         LINE#         1744
  C:4FDCH         LINE#         1745
BL51 BANKED LINKER/LOCATER V6.22.2.0                                                  09/02/2021  16:32:27  PAGE 123


  C:5015H         LINE#         1747
  C:5015H         LINE#         1748
  C:5023H         LINE#         1749
  C:5034H         LINE#         1752
  C:5060H         LINE#         1753
  C:507EH         LINE#         1756
  C:509FH         LINE#         1757
  C:50BDH         LINE#         1760
  C:50DEH         LINE#         1761
  C:50FCH         LINE#         1764
  C:511DH         LINE#         1765
  C:513BH         LINE#         1768
  C:515CH         LINE#         1769
  C:517AH         LINE#         1770
  C:518DH         LINE#         1773
  C:519BH         LINE#         1775
  C:51A9H         LINE#         1776
  C:51B6H         LINE#         1777
  C:51C2H         LINE#         1778
  C:51C7H         LINE#         1779
  C:51CCH         LINE#         1780
  -------         ENDPROC       _ARMAR_TRAMA_MONITOR
  -------         PROC          _ARMAR_TRAMA_PLACA
  X:0008H         SYMBOL        Buffer_Write_MF
  -------         DO            
  D:0007H         SYMBOL        j
  X:000BH         SYMBOL        len_placa
  -------         ENDDO         
  C:A5DDH         LINE#         1781
  C:A5E8H         LINE#         1782
  C:A5E8H         LINE#         1785
  C:A5F6H         LINE#         1786
  C:A5F8H         LINE#         1787
  C:A5F8H         LINE#         1788
  C:A606H         LINE#         1789
  C:A606H         LINE#         1790
  C:A614H         LINE#         1791
  C:A620H         LINE#         1792
  C:A620H         LINE#         1793
  C:A63AH         LINE#         1794
  C:A63DH         LINE#         1795
  C:A649H         LINE#         1796
  C:A649H         LINE#         1797
  C:A65DH         LINE#         1798
  C:A660H         LINE#         1799
  -------         ENDPROC       _ARMAR_TRAMA_PLACA
  C:B737H         SYMBOL        L?0349
  -------         PROC          L?0348
  -------         ENDPROC       L?0348
  C:B737H         SYMBOL        L?0349
  -------         PROC          _LOAD_SECUENCIA_EXPEDIDOR
  D:0001H         SYMBOL        Secuencia_Expedidor
  D:0004H         SYMBOL        estadoactivo
  X:0007H         SYMBOL        estadoactual
  X:0009H         SYMBOL        estadofuturo
  C:B753H         LINE#         1800
  C:B753H         LINE#         1801
BL51 BANKED LINKER/LOCATER V6.22.2.0                                                  09/02/2021  16:32:27  PAGE 124


  C:B753H         LINE#         1802
  C:B75AH         LINE#         1803
  C:B762H         LINE#         1804
  C:B76DH         LINE#         1805
  C:B773H         LINE#         1806
  -------         ENDPROC       _LOAD_SECUENCIA_EXPEDIDOR
  -------         PROC          _DISPARO_LOCK_ENTRADA_VEHICULO
  X:0002H         SYMBOL        Nombre_Mensual
  -------         DO            
  X:0005H         SYMBOL        Estado_expedidor
  X:010CH         SYMBOL        take_card
  -------         ENDDO         
  C:A07EH         LINE#         1807
  C:A089H         LINE#         1808
  C:A089H         LINE#         1813
  C:A092H         LINE#         1817
  C:A099H         LINE#         1818
  C:A099H         LINE#         1820
  C:A0A2H         LINE#         1822
  C:A0A8H         LINE#         1823
  C:A0AAH         LINE#         1824
  C:A0AFH         LINE#         1826
  C:A0BFH         LINE#         1827
  C:A0C5H         LINE#         1830
  C:A0C7H         LINE#         1831
  C:A0CFH         LINE#         1832
  C:A0CFH         LINE#         1833
  C:A0D5H         LINE#         1834
  C:A0D5H         LINE#         1835
  C:A0E2H         LINE#         1836
  C:A0E7H         LINE#         1837
  C:A0ECH         LINE#         1838
  C:A0EEH         LINE#         1840
  C:A0EEH         LINE#         1841
  C:A0F4H         LINE#         1843
  C:A0F4H         LINE#         1845
  C:A0FAH         LINE#         1846
  C:A100H         LINE#         1848
  C:A102H         LINE#         1850
  C:A102H         LINE#         1851
  C:A108H         LINE#         1852
  C:A108H         LINE#         1854
  C:A108H         LINE#         1859
  C:A10DH         LINE#         1860
  -------         ENDPROC       _DISPARO_LOCK_ENTRADA_VEHICULO
  -------         PROC          _SEND_PTO_PARALELO
  X:0002H         SYMBOL        Atributos_Expedidor
  -------         DO            
  X:0005H         SYMBOL        Trama_Expedidor
  X:0008H         SYMBOL        leng_trama_pto
  -------         ENDDO         
  C:98B3H         LINE#         1861
  C:98BEH         LINE#         1862
  C:98BEH         LINE#         1865
  C:98C1H         LINE#         1866
  C:98C1H         LINE#         1867
  C:98E8H         LINE#         1868
BL51 BANKED LINKER/LOCATER V6.22.2.0                                                  09/02/2021  16:32:27  PAGE 125


  C:98EAH         LINE#         1870
  C:98EAH         LINE#         1871
  C:9911H         LINE#         1872
  C:9914H         LINE#         1873
  C:9914H         LINE#         1875
  C:9925H         LINE#         1876
  C:992EH         LINE#         1877
  C:9945H         LINE#         1881
  C:9948H         LINE#         1882
  C:994EH         LINE#         1883
  C:9953H         LINE#         1884
  C:9955H         LINE#         1885
  C:9957H         LINE#         1886
  -------         ENDPROC       _SEND_PTO_PARALELO
  -------         PROC          ENTREGA_CARD_CAPTURA
  -------         DO            
  X:0002H         SYMBOL        Estado_expedidor
  -------         ENDDO         
  C:9BD6H         LINE#         1890
  C:9BD6H         LINE#         1891
  C:9BD6H         LINE#         1895
  C:9BDFH         LINE#         1896
  C:9BE2H         LINE#         1897
  C:9BE5H         LINE#         1898
  C:9BE5H         LINE#         1899
  C:9BEFH         LINE#         1900
  C:9BEFH         LINE#         1901
  C:9BF1H         LINE#         1902
  C:9BF3H         LINE#         1903
  C:9BFCH         LINE#         1904
  C:9BFCH         LINE#         1905
  C:9BFCH         LINE#         1907
  C:9BFEH         LINE#         1909
  C:9BFEH         LINE#         1910
  C:9C04H         LINE#         1911
  C:9C04H         LINE#         1913
  C:9C0AH         LINE#         1915
  C:9C1DH         LINE#         1916
  C:9C1DH         LINE#         1917
  C:9C2AH         LINE#         1918
  C:9C2AH         LINE#         1919
  C:9C2CH         LINE#         1920
  C:9C35H         LINE#         1922
  C:9C37H         LINE#         1923
  C:9C3CH         LINE#         1924
  C:9C42H         LINE#         1926
  C:9C44H         LINE#         1927
  C:9C51H         LINE#         1928
  C:9C51H         LINE#         1929
  C:9C57H         LINE#         1930
  C:9C57H         LINE#         1931
  C:9C57H         LINE#         1933
  C:9C59H         LINE#         1935
  C:9C59H         LINE#         1936
  C:9C5BH         LINE#         1937
  C:9C64H         LINE#         1938
  C:9C66H         LINE#         1939
BL51 BANKED LINKER/LOCATER V6.22.2.0                                                  09/02/2021  16:32:27  PAGE 126


  C:9C6BH         LINE#         1940
  C:9C6BH         LINE#         1941
  C:9C6BH         LINE#         1943
  C:9C70H         LINE#         1944
  -------         ENDPROC       ENTREGA_CARD_CAPTURA
  -------         PROC          WAIT_PLACA
  -------         DO            
  X:0002H         SYMBOL        Estado_expedidor
  -------         ENDDO         
  C:A19BH         LINE#         1945
  C:A19BH         LINE#         1946
  C:A19BH         LINE#         1950
  C:A1A4H         LINE#         1952
  C:A1BAH         LINE#         1953
  C:A1BAH         LINE#         1954
  C:A1BDH         LINE#         1955
  C:A1BDH         LINE#         1957
  C:A1C0H         LINE#         1958
  C:A1C0H         LINE#         1959
  C:A1C2H         LINE#         1961
  C:A1C8H         LINE#         1962
  C:A1C8H         LINE#         1965
  C:A1D0H         LINE#         1966
  C:A1D2H         LINE#         1969
  C:A1D2H         LINE#         1970
  C:A1D8H         LINE#         1971
  C:A1EBH         LINE#         1972
  C:A1EBH         LINE#         1973
  C:A1F8H         LINE#         1974
  C:A1F8H         LINE#         1976
  C:A207H         LINE#         1977
  C:A20DH         LINE#         1978
  C:A20FH         LINE#         1979
  C:A21CH         LINE#         1980
  C:A21CH         LINE#         1981
  C:A222H         LINE#         1982
  C:A222H         LINE#         1983
  C:A222H         LINE#         1984
  C:A222H         LINE#         1985
  C:A227H         LINE#         1986
  -------         ENDPROC       WAIT_PLACA
  -------         PROC          _TARJETA_ROTACION
  D:0001H         SYMBOL        Atributos_Expedidor
  X:000CH         SYMBOL        Buffer_Write_MF
  C:B9DCH         LINE#         2064
  C:B9DCH         LINE#         2065
  C:B9DCH         LINE#         2066
  C:B9E1H         LINE#         2067
  C:B9EAH         LINE#         2068
  C:BA0AH         LINE#         2069
  C:BA0CH         LINE#         2072
  -------         ENDPROC       _TARJETA_ROTACION
  -------         PROC          _VALIDA_TIPO_TARJETA
  X:0002H         SYMBOL        Atributos_Expedidor
  X:0005H         SYMBOL        Buffer_Write_MF
  -------         DO            
  X:0008H         SYMBOL        Estado_expedidor
BL51 BANKED LINKER/LOCATER V6.22.2.0                                                  09/02/2021  16:32:27  PAGE 127


  -------         ENDDO         
  C:88F7H         LINE#         2073
  C:8902H         LINE#         2074
  C:8902H         LINE#         2115
  C:890FH         LINE#         2116
  C:890FH         LINE#         2118
  C:8918H         LINE#         2119
  C:891EH         LINE#         2120
  C:891EH         LINE#         2121
  C:892AH         LINE#         2122
  C:892AH         LINE#         2123
  C:8947H         LINE#         2125
  C:8947H         LINE#         2126
  C:8964H         LINE#         2127
  C:8966H         LINE#         2129
  C:8966H         LINE#         2130
  C:896FH         LINE#         2131
  C:8974H         LINE#         2132
  C:8976H         LINE#         2133
  C:8976H         LINE#         2134
  C:8976H         LINE#         2135
  C:8978H         LINE#         2137
  C:8978H         LINE#         2138
  C:8981H         LINE#         2139
  C:89A9H         LINE#         2140
  C:89A9H         LINE#         2141
  C:89ABH         LINE#         2143
  C:89ABH         LINE#         2145
  C:89B0H         LINE#         2146
  C:89B5H         LINE#         2147
  C:89B5H         LINE#         2148
  C:89B5H         LINE#         2149
  C:89B7H         LINE#         2151
  C:89B7H         LINE#         2152
  C:89C0H         LINE#         2153
  C:89C5H         LINE#         2155
  C:89CBH         LINE#         2156
  C:89CBH         LINE#         2158
  C:89D0H         LINE#         2159
  -------         ENDPROC       _VALIDA_TIPO_TARJETA
  -------         PROC          SECUENCIA_INICIO_EXPEDIDOR
  -------         DO            
  X:0001H         SYMBOL        temp
  -------         ENDDO         
  C:6C4CH         LINE#         2413
  C:6C4CH         LINE#         2414
  C:6C4CH         LINE#         2416
  C:6C6CH         LINE#         2417
  C:6C6CH         LINE#         2418
  C:6C6CH         LINE#         2421
  C:6C71H         LINE#         2422
  C:6C77H         LINE#         2425
  C:6C79H         LINE#         2426
  C:6C79H         LINE#         2437
  C:6C79H         LINE#         2439
  C:6C87H         LINE#         2440
  C:6C87H         LINE#         2441
BL51 BANKED LINKER/LOCATER V6.22.2.0                                                  09/02/2021  16:32:27  PAGE 128


  C:6C93H         LINE#         2442
  C:6C93H         LINE#         2443
  C:6C99H         LINE#         2444
  C:6C9CH         LINE#         2445
  C:6CA4H         LINE#         2446
  C:6CA4H         LINE#         2447
  C:6CABH         LINE#         2448
  C:6CBFH         LINE#         2449
  C:6CBFH         LINE#         2450
  C:6CC1H         LINE#         2452
  C:6CC1H         LINE#         2453
  C:6CC8H         LINE#         2454
  C:6CCEH         LINE#         2455
  C:6CCEH         LINE#         2456
  C:6CD1H         LINE#         2458
  C:6CD1H         LINE#         2459
  C:6CDAH         LINE#         2460
  C:6CEEH         LINE#         2461
  C:6CF4H         LINE#         2462
  C:6CF4H         LINE#         2463
  C:6CF7H         LINE#         2464
  C:6CF7H         LINE#         2470
  C:6CF7H         LINE#         2472
  C:6CFAH         LINE#         2473
  C:6D00H         LINE#         2477
  C:6D02H         LINE#         2478
  C:6D02H         LINE#         2488
  C:6D02H         LINE#         2490
  C:6D10H         LINE#         2491
  C:6D10H         LINE#         2492
  C:6D1CH         LINE#         2493
  C:6D1CH         LINE#         2494
  C:6D22H         LINE#         2495
  C:6D24H         LINE#         2496
  C:6D2CH         LINE#         2497
  C:6D2CH         LINE#         2498
  C:6D33H         LINE#         2499
  C:6D47H         LINE#         2500
  C:6D47H         LINE#         2501
  C:6D49H         LINE#         2503
  C:6D49H         LINE#         2504
  C:6D50H         LINE#         2505
  C:6D56H         LINE#         2506
  C:6D56H         LINE#         2507
  C:6D58H         LINE#         2509
  C:6D58H         LINE#         2510
  C:6D61H         LINE#         2511
  C:6D75H         LINE#         2512
  C:6D7AH         LINE#         2513
  C:6D7AH         LINE#         2515
  C:6D7CH         LINE#         2516
  C:6D7CH         LINE#         2522
  C:6D7CH         LINE#         2524
  C:6D82H         LINE#         2525
  C:6D82H         LINE#         2528
  C:6D82H         LINE#         2529
  C:6D89H         LINE#         2530
BL51 BANKED LINKER/LOCATER V6.22.2.0                                                  09/02/2021  16:32:27  PAGE 129


  C:6D89H         LINE#         2531
  C:6D89H         LINE#         2532
  -------         ENDPROC       SECUENCIA_INICIO_EXPEDIDOR
  -------         PROC          _SECUENCIAEXPEDIDORMF
  X:0001H         SYMBOL        EstadoActivo
  -------         DO            
  X:010DH         SYMBOL        Buffer_Write_MF
  X:011EH         SYMBOL        Atributos_Expedidor
  X:0132H         SYMBOL        Secuencia_Expedidor
  X:0136H         SYMBOL        Nombre_Mensual
  -------         ENDDO         
  C:39E4H         LINE#         2542
  C:39E9H         LINE#         2543
  C:39E9H         LINE#         2551
  C:3A55H         LINE#         2552
  C:3A55H         LINE#         2555
  C:3A55H         LINE#         2557
  C:3A68H         LINE#         2558
  C:3A68H         LINE#         2559
  C:3A6AH         LINE#         2560
  C:3A6CH         LINE#         2561
  C:3A71H         LINE#         2562
  C:3A79H         LINE#         2563
  C:3A7EH         LINE#         2564
  C:3A7EH         LINE#         2566
  C:3A81H         LINE#         2567
  C:3A81H         LINE#         2569
  C:3A8AH         LINE#         2570
  C:3A8DH         LINE#         2571
  C:3A8DH         LINE#         2572
  C:3A92H         LINE#         2573
  C:3AB2H         LINE#         2574
  C:3AB5H         LINE#         2575
  C:3AB5H         LINE#         2576
  C:3AB8H         LINE#         2577
  C:3AC0H         LINE#         2578
  C:3AC6H         LINE#         2579
  C:3AC9H         LINE#         2581
  C:3AC9H         LINE#         2582
  C:3ACCH         LINE#         2583
  C:3AF1H         LINE#         2584
  C:3AF7H         LINE#         2585
  C:3AF9H         LINE#         2586
  C:3AFCH         LINE#         2587
  C:3AFCH         LINE#         2588
  C:3B07H         LINE#         2589
  C:3B0FH         LINE#         2590
  C:3B15H         LINE#         2591
  C:3B18H         LINE#         2592
  C:3B18H         LINE#         2593
  C:3B29H         LINE#         2594
  C:3B31H         LINE#         2595
  C:3B37H         LINE#         2596
  C:3B3AH         LINE#         2597
  C:3B3AH         LINE#         2598
  C:3B3FH         LINE#         2599
  C:3B5DH         LINE#         2600
BL51 BANKED LINKER/LOCATER V6.22.2.0                                                  09/02/2021  16:32:27  PAGE 130


  C:3B60H         LINE#         2601
  C:3B60H         LINE#         2602
  C:3B65H         LINE#         2603
  C:3B85H         LINE#         2604
  C:3B88H         LINE#         2605
  C:3B88H         LINE#         2606
  C:3B8DH         LINE#         2607
  C:3B8FH         LINE#         2608
  C:3BADH         LINE#         2609
  C:3BB0H         LINE#         2610
  C:3BB0H         LINE#         2611
  C:3BB5H         LINE#         2612
  C:3BD5H         LINE#         2613
  C:3BD8H         LINE#         2614
  C:3BD8H         LINE#         2615
  C:3BEBH         LINE#         2616
  C:3BEBH         LINE#         2617
  C:3BF0H         LINE#         2618
  C:3BF8H         LINE#         2619
  C:3BFBH         LINE#         2620
  C:3BFBH         LINE#         2621
  C:3BFEH         LINE#         2623
  C:3BFEH         LINE#         2624
  C:3C01H         LINE#         2625
  C:3C21H         LINE#         2626
  C:3C24H         LINE#         2627
  C:3C24H         LINE#         2628
  C:3C26H         LINE#         2629
  C:3C29H         LINE#         2630
  C:3C2CH         LINE#         2631
  C:3C2CH         LINE#         2632
  C:3C35H         LINE#         2633
  C:3C38H         LINE#         2634
  C:3C38H         LINE#         2636
  C:3C3EH         LINE#         2637
  C:3C41H         LINE#         2638
  C:3C44H         LINE#         2639
  C:3C44H         LINE#         2640
  C:3C47H         LINE#         2641
  C:3C4FH         LINE#         2642
  C:3C55H         LINE#         2643
  C:3C58H         LINE#         2644
  C:3C58H         LINE#         2645
  C:3C61H         LINE#         2646
  C:3C64H         LINE#         2647
  C:3C64H         LINE#         2648
  C:3C66H         LINE#         2649
  C:3C69H         LINE#         2650
  C:3C6CH         LINE#         2651
  C:3C6CH         LINE#         2652
  C:3C83H         LINE#         2653
  C:3C86H         LINE#         2654
  C:3C86H         LINE#         2657
  C:3C8BH         LINE#         2658
  C:3C93H         LINE#         2659
  C:3C99H         LINE#         2661
  C:3C9CH         LINE#         2662
BL51 BANKED LINKER/LOCATER V6.22.2.0                                                  09/02/2021  16:32:27  PAGE 131


  C:3C9CH         LINE#         2663
  C:3C9FH         LINE#         2664
  C:3CBFH         LINE#         2665
  C:3CC2H         LINE#         2666
  C:3CC2H         LINE#         2667
  C:3CC5H         LINE#         2668
  C:3CE5H         LINE#         2669
  C:3CE8H         LINE#         2670
  C:3CE8H         LINE#         2671
  C:3CEBH         LINE#         2672
  C:3CF3H         LINE#         2673
  C:3CF9H         LINE#         2674
  C:3CFCH         LINE#         2675
  C:3CFCH         LINE#         2677
  C:3D07H         LINE#         2678
  C:3D0FH         LINE#         2679
  C:3D23H         LINE#         2680
  C:3D26H         LINE#         2681
  C:3D26H         LINE#         2682
  C:3D39H         LINE#         2683
  C:3D39H         LINE#         2684
  C:3D3CH         LINE#         2685
  C:3D3CH         LINE#         2686
  C:3D3FH         LINE#         2687
  C:3D3FH         LINE#         2688
  C:3D52H         LINE#         2689
  C:3D52H         LINE#         2690
  C:3D55H         LINE#         2691
  C:3D55H         LINE#         2692
  C:3D58H         LINE#         2693
  C:3D58H         LINE#         2694
  C:3D5BH         LINE#         2695
  C:3D5EH         LINE#         2697
  C:3D5EH         LINE#         2698
  C:3D64H         LINE#         2699
  C:3D64H         LINE#         2700
  C:3D67H         LINE#         2701
  C:3D67H         LINE#         2702
  C:3D67H         LINE#         2703
  C:3D6AH         LINE#         2707
  C:3D6AH         LINE#         2708
  C:3D70H         LINE#         2709
  C:3D76H         LINE#         2710
  C:3D76H         LINE#         2711
  C:3D7EH         LINE#         2712
  C:3D84H         LINE#         2714
  C:3D87H         LINE#         2715
  C:3D8FH         LINE#         2716
  C:3D8FH         LINE#         2718
  C:3D92H         LINE#         2719
  C:3D95H         LINE#         2720
  C:3D9DH         LINE#         2721
  C:3D9DH         LINE#         2722
  C:3DABH         LINE#         2723
  C:3DABH         LINE#         2724
  C:3DB4H         LINE#         2725
  C:3DB7H         LINE#         2726
BL51 BANKED LINKER/LOCATER V6.22.2.0                                                  09/02/2021  16:32:27  PAGE 132


  C:3DC3H         LINE#         2727
  C:3DC3H         LINE#         2728
  C:3DCCH         LINE#         2729
  C:3DCFH         LINE#         2731
  C:3DCFH         LINE#         2732
  C:3DD8H         LINE#         2733
  C:3DD8H         LINE#         2734
  C:3DDBH         LINE#         2735
  C:3DE3H         LINE#         2736
  C:3DE3H         LINE#         2737
  C:3DF1H         LINE#         2738
  C:3DF1H         LINE#         2739
  C:3E07H         LINE#         2740
  C:3E0AH         LINE#         2741
  C:3E16H         LINE#         2742
  C:3E16H         LINE#         2743
  C:3E1FH         LINE#         2744
  C:3E21H         LINE#         2745
  C:3E2FH         LINE#         2746
  C:3E2FH         LINE#         2747
  C:3E38H         LINE#         2748
  C:3E3AH         LINE#         2750
  C:3E3AH         LINE#         2751
  C:3E43H         LINE#         2752
  C:3E43H         LINE#         2753
  C:3E45H         LINE#         2754
  C:3E4DH         LINE#         2755
  C:3E4DH         LINE#         2756
  C:3E56H         LINE#         2757
  C:3E58H         LINE#         2758
  C:3E60H         LINE#         2759
  C:3E60H         LINE#         2760
  C:3E76H         LINE#         2761
  C:3E78H         LINE#         2763
  C:3E80H         LINE#         2764
  C:3E80H         LINE#         2765
  C:3E89H         LINE#         2766
  C:3E8BH         LINE#         2769
  C:3E93H         LINE#         2770
  C:3E93H         LINE#         2771
  C:3E9BH         LINE#         2772
  C:3E9DH         LINE#         2774
  C:3E9DH         LINE#         2775
  C:3EA6H         LINE#         2776
  C:3EA6H         LINE#         2777
  C:3EA8H         LINE#         2778
  C:3EA8H         LINE#         2779
  C:3EADH         LINE#         2780
  C:3EADH         LINE#         2782
  C:3EADH         LINE#         2783
  C:3EB2H         LINE#         2784
  -------         ENDPROC       _SECUENCIAEXPEDIDORMF
  -------         ENDMOD        VERIFICADOR

  -------         MODULE        MONITOR
  C:0000H         SYMBOL        _ICE_DUMMY_
  D:0080H         PUBLIC        P0
BL51 BANKED LINKER/LOCATER V6.22.2.0                                                  09/02/2021  16:32:27  PAGE 133


  D:0090H         PUBLIC        P1
  I:0011H         PUBLIC        placa
  B:0080H.2       PUBLIC        led_err_imp
  C:B85FH         PUBLIC        Rx_Monitor
  B:0080H.0       PUBLIC        rx_ip
  B:0090H.7       PUBLIC        lock
  C:8B7EH         PUBLIC        _recibe_cmd_Monitor
  C:BC61H         PUBLIC        clear_placa
  C:932DH         PUBLIC        _Valida_Trama_Monitor
  -------         PROC          _RECIBE_CMD_MONITOR
  X:0011H         SYMBOL        buffer_cmd
  -------         DO            
  X:0014H         SYMBOL        j
  X:0015H         SYMBOL        NumDatos
  X:0016H         SYMBOL        time_out
  X:0017H         SYMBOL        MaxChrRx
  X:0018H         SYMBOL        contador
  -------         ENDDO         
  C:8B7EH         LINE#         51
  C:8B89H         LINE#         52
  C:8B89H         LINE#         56
  C:8B8EH         LINE#         57
  C:8B94H         LINE#         58
  C:8B98H         LINE#         61
  C:8BACH         LINE#         62
  C:8BACH         LINE#         63
  C:8BB3H         LINE#         64
  C:8BB7H         LINE#         65
  C:8BC0H         LINE#         66
  C:8BC0H         LINE#         67
  C:8BCEH         LINE#         68
  C:8BE5H         LINE#         69
  C:8BE5H         LINE#         70
  C:8BEBH         LINE#         71
  C:8BF1H         LINE#         72
  C:8BF1H         LINE#         73
  C:8BF3H         LINE#         74
  C:8BFBH         LINE#         75
  C:8C01H         LINE#         77
  C:8C13H         LINE#         78
  C:8C25H         LINE#         79
  C:8C25H         LINE#         80
  C:8C2FH         LINE#         81
  C:8C2FH         LINE#         82
  C:8C38H         LINE#         84
  C:8C47H         LINE#         88
  C:8C4CH         LINE#         89
  -------         ENDPROC       _RECIBE_CMD_MONITOR
  -------         PROC          _VALIDA_TRAMA_MONITOR
  X:0011H         SYMBOL        buffer
  D:0005H         SYMBOL        length_trama
  -------         DO            
  X:0014H         SYMBOL        j
  X:0015H         SYMBOL        p
  X:0016H         SYMBOL        cont
  -------         ENDDO         
  C:932DH         LINE#         94
BL51 BANKED LINKER/LOCATER V6.22.2.0                                                  09/02/2021  16:32:27  PAGE 134


  C:9338H         LINE#         95
  C:9338H         LINE#         96
  C:933BH         LINE#         97
  C:933FH         LINE#         98
  C:9342H         LINE#         99
  C:9344H         LINE#         102
  C:9358H         LINE#         103
  C:9358H         LINE#         105
  C:935AH         LINE#         107
  C:9361H         LINE#         108
  C:9366H         LINE#         110
  C:9366H         LINE#         112
  C:9381H         LINE#         113
  C:9381H         LINE#         116
  C:9381H         LINE#         117
  C:93A2H         LINE#         118
  C:93A6H         LINE#         119
  C:93ACH         LINE#         120
  C:93BEH         LINE#         121
  C:93D6H         LINE#         122
  C:93DFH         LINE#         123
  C:93E1H         LINE#         124
  C:93E7H         LINE#         125
  C:93E9H         LINE#         127
  C:93E9H         LINE#         130
  -------         ENDPROC       _VALIDA_TRAMA_MONITOR
  -------         PROC          CLEAR_PLACA
  -------         DO            
  D:0007H         SYMBOL        i
  -------         ENDDO         
  C:BC61H         LINE#         131
  C:BC61H         LINE#         132
  C:BC61H         LINE#         134
  C:BC6DH         LINE#         135
  C:BC6DH         LINE#         136
  C:BC73H         LINE#         137
  C:BC76H         LINE#         138
  C:BC78H         LINE#         139
  C:BC7AH         LINE#         140
  -------         ENDPROC       CLEAR_PLACA
  -------         PROC          RX_MONITOR
  -------         DO            
  X:0003H         SYMBOL        Length_trama
  X:0004H         SYMBOL        buffer1
  -------         ENDDO         
  C:B85FH         LINE#         141
  C:B85FH         LINE#         142
  C:B85FH         LINE#         145
  C:B864H         LINE#         146
  C:B873H         LINE#         147
  C:B87CH         LINE#         148
  C:B88AH         LINE#         149
  -------         ENDPROC       RX_MONITOR
  -------         ENDMOD        MONITOR

  -------         MODULE        ?C?FPADD
  C:145DH         PUBLIC        ?C?FPADD
BL51 BANKED LINKER/LOCATER V6.22.2.0                                                  09/02/2021  16:32:27  PAGE 135


  C:1459H         PUBLIC        ?C?FPSUB
  -------         ENDMOD        ?C?FPADD

  -------         MODULE        ?C?FPMUL
  C:154EH         PUBLIC        ?C?FPMUL
  -------         ENDMOD        ?C?FPMUL

  -------         MODULE        ?C?FCAST
  C:165EH         PUBLIC        ?C?FCASTC
  C:1659H         PUBLIC        ?C?FCASTI
  C:1654H         PUBLIC        ?C?FCASTL
  -------         ENDMOD        ?C?FCAST

  -------         MODULE        ?C?CASTF
  C:1692H         PUBLIC        ?C?CASTF
  -------         ENDMOD        ?C?CASTF

  -------         MODULE        PRINTF
  X:0077H         PUBLIC        ?_PRINTF?BYTE
  X:0077H         PUBLIC        ?_SPRINTF?BYTE
  C:3F1EH         PUBLIC        _PRINTF
  C:3F18H         PUBLIC        _SPRINTF
  -------         ENDMOD        PRINTF

  -------         MODULE        POW
  X:0024H         PUBLIC        ?_pow?BYTE
  C:6714H         PUBLIC        _pow
  -------         ENDMOD        POW

  -------         MODULE        ?C?CHKFLOAT
  C:1713H         PUBLIC        ?C?CHKFLOAT
  -------         ENDMOD        ?C?CHKFLOAT

  -------         MODULE        ?C?FPCMP
  C:172FH         PUBLIC        ?C?FPCMP
  C:172DH         PUBLIC        ?C?FPCMP3
  -------         ENDMOD        ?C?FPCMP

  -------         MODULE        ?C?FPNEG
  C:17A6H         PUBLIC        ?C?FPNEG
  -------         ENDMOD        ?C?FPNEG

  -------         MODULE        ?C?FPROUND
  C:17B7H         PUBLIC        ?C?FPROUND
  -------         ENDMOD        ?C?FPROUND

  -------         MODULE        ?C?FPCONVERT
  C:17F4H         PUBLIC        ?C?FPCONVERT
  -------         ENDMOD        ?C?FPCONVERT

  -------         MODULE        EXP
  C:9CA9H         PUBLIC        _EXP
  -------         ENDMOD        EXP

  -------         MODULE        LOG
  C:7288H         PUBLIC        _LOG
  C:7284H         PUBLIC        _LOG10
BL51 BANKED LINKER/LOCATER V6.22.2.0                                                  09/02/2021  16:32:27  PAGE 136


  -------         ENDMOD        LOG

  -------         MODULE        ?C?FPDIV
  C:18FCH         PUBLIC        ?C?FPDIV
  -------         ENDMOD        ?C?FPDIV

  -------         MODULE        ?C?FTNPWR
  C:19C9H         PUBLIC        ?C?FTNPWR
  -------         ENDMOD        ?C?FTNPWR

  -------         MODULE        ?C?COPY
  C:1B26H         PUBLIC        ?C?COPY
  -------         ENDMOD        ?C?COPY

  -------         MODULE        ?C?CLDPTR
  C:1B4CH         PUBLIC        ?C?CLDPTR
  -------         ENDMOD        ?C?CLDPTR

  -------         MODULE        ?C?CLDOPTR
  C:1B65H         PUBLIC        ?C?CLDOPTR
  -------         ENDMOD        ?C?CLDOPTR

  -------         MODULE        ?C?CSTPTR
  C:1B92H         PUBLIC        ?C?CSTPTR
  -------         ENDMOD        ?C?CSTPTR

  -------         MODULE        ?C?CSTOPTR
  C:1BA4H         PUBLIC        ?C?CSTOPTR
  -------         ENDMOD        ?C?CSTOPTR

  -------         MODULE        ?C?IMUL
  C:1BC6H         PUBLIC        ?C?IMUL
  -------         ENDMOD        ?C?IMUL

  -------         MODULE        ?C?IILDX
  C:1BD8H         PUBLIC        ?C?IILDX
  -------         ENDMOD        ?C?IILDX

  -------         MODULE        ?C?LNEG
  C:1BEEH         PUBLIC        ?C?LNEG
  -------         ENDMOD        ?C?LNEG

  -------         MODULE        ?C?SLCMP
  C:1BFCH         PUBLIC        ?C?SLCMP
  -------         ENDMOD        ?C?SLCMP

  -------         MODULE        ?C?ULCMP
  C:1C12H         PUBLIC        ?C?ULCMP
  -------         ENDMOD        ?C?ULCMP

  -------         MODULE        ?C?ULSHR
  C:1C23H         PUBLIC        ?C?ULSHR
  -------         ENDMOD        ?C?ULSHR

  -------         MODULE        ?C?LSHL
  C:1C36H         PUBLIC        ?C?LSHL
  -------         ENDMOD        ?C?LSHL
BL51 BANKED LINKER/LOCATER V6.22.2.0                                                  09/02/2021  16:32:27  PAGE 137



  -------         MODULE        ?C?LLDCODE
  C:1C49H         PUBLIC        ?C?LLDCODE
  -------         ENDMOD        ?C?LLDCODE

  -------         MODULE        ?C?LLDXDATA0
  C:1C59H         PUBLIC        ?C?LLDXDATA0
  -------         ENDMOD        ?C?LLDXDATA0

  -------         MODULE        ?C?LLDCODE0
  C:1C65H         PUBLIC        ?C?LLDCODE0
  -------         ENDMOD        ?C?LLDCODE0

  -------         MODULE        ?C?LSTXDATA
  C:1C75H         PUBLIC        ?C?LSTXDATA
  -------         ENDMOD        ?C?LSTXDATA

  -------         MODULE        ?C?LSTKXDATA
  C:1C81H         PUBLIC        ?C?LSTKXDATA
  -------         ENDMOD        ?C?LSTKXDATA

  -------         MODULE        ?C?PLDIXDATA
  C:1CB2H         PUBLIC        ?C?PLDIXDATA
  -------         ENDMOD        ?C?PLDIXDATA

  -------         MODULE        ?C?PSTXDATA
  C:1CC9H         PUBLIC        ?C?PSTXDATA
  -------         ENDMOD        ?C?PSTXDATA

  -------         MODULE        ?C?CCASE
  C:1CD2H         PUBLIC        ?C?CCASE
  -------         ENDMOD        ?C?CCASE

  -------         MODULE        STRCAT
  X:0046H         PUBLIC        ?_strcat?BYTE
  C:ACB9H         PUBLIC        _strcat
  -------         ENDMOD        STRCAT

  -------         MODULE        ?C?STRCMP
  C:1E76H         PUBLIC        ?C?STRCMP
  -------         ENDMOD        ?C?STRCMP

  -------         MODULE        ?C?STRCPY
  C:1F5FH         PUBLIC        ?C?STRCPY
  -------         ENDMOD        ?C?STRCPY

  -------         MODULE        STRLEN
  C:000EH         PUBLIC        _STRLEN
  -------         ENDMOD        STRLEN

  -------         MODULE        STRTOK
  X:0064H         PUBLIC        ?_strtok?BYTE
  C:84A4H         PUBLIC        _strtok
  -------         ENDMOD        STRTOK

  -------         MODULE        ATOL
  C:77EDH         PUBLIC        _atol
BL51 BANKED LINKER/LOCATER V6.22.2.0                                                  09/02/2021  16:32:27  PAGE 138


  -------         ENDMOD        ATOL

  -------         MODULE        ATOI
  C:8742H         PUBLIC        _atoi
  -------         ENDMOD        ATOI

  -------         MODULE        ?C?ILDIX
  C:1F7CH         PUBLIC        ?C?ILDIX
  -------         ENDMOD        ?C?ILDIX

  -------         MODULE        ?C?LMUL
  C:1F92H         PUBLIC        ?C?LMUL
  -------         ENDMOD        ?C?LMUL

  -------         MODULE        ISDIGIT
  C:BD82H         PUBLIC        _isdigit
  -------         ENDMOD        ISDIGIT

  -------         MODULE        ISSPACE
  C:BCD2H         PUBLIC        _isspace
  -------         ENDMOD        ISSPACE

  -------         MODULE        STRSPN
  X:006AH         PUBLIC        ?_strspn?BYTE
  C:A661H         PUBLIC        _strspn
  -------         ENDMOD        STRSPN

  -------         MODULE        STRPBRK
  X:006AH         PUBLIC        ?_strpbrk?BYTE
  C:A86BH         PUBLIC        _strpbrk
  -------         ENDMOD        STRPBRK

Program Size: data=99.1 xdata=543 code=48646
LINK/LOCATE RUN COMPLETE.  0 WARNING(S),  0 ERROR(S)
