BL51 BANKED LINKER/LOCATER V6.22.2.0                                                    09/03/2021  14:20:36  PAGE 1


BL51 BANKED LINKER/LOCATER V6.22.2.0, INVOKED BY:
C:\KEIL_V5\C51\BIN\BL51.EXE .\Objects\main.obj, .\Objects\Accescan.obj, .\Objects\Clock.obj, .\Objects\delay.obj, .\Obje
>> cts\eeprom.obj, .\Objects\io_sensores.obj, .\Objects\pantallas.obj, .\Objects\prog.obj, .\Objects\pto_paralelo.obj, .
>> \Objects\tibbo.obj, .\Objects\uart.obj, .\Objects\lintech.obj, .\Objects\verificador.obj, .\Objects\Monitor.obj TO .\
>> Objects\expedidor_v_101 PRINT (.\Listings\expedidor_v_101.m51) RAMSIZE (256)


MEMORY MODEL: LARGE WITH FLOATING POINT ARITHMETIC


INPUT MODULES INCLUDED:
  .\Objects\main.obj (MAIN)
  .\Objects\Accescan.obj (ACCESCAN)
  .\Objects\Clock.obj (CLOCK)
  .\Objects\delay.obj (DELAY)
  .\Objects\eeprom.obj (EEPROM)
  .\Objects\io_sensores.obj (IO_SENSORES)
  .\Objects\pantallas.obj (PANTALLAS)
  .\Objects\prog.obj (PROG)
  .\Objects\pto_paralelo.obj (PTO_PARALELO)
  .\Objects\tibbo.obj (TIBBO)
  .\Objects\uart.obj (UART)
  .\Objects\lintech.obj (LINTECH)
  .\Objects\verificador.obj (VERIFICADOR)
  .\Objects\Monitor.obj (MONITOR)
  C:\KEIL_V5\C51\LIB\C51FPL.LIB (?C?FPADD)
  C:\KEIL_V5\C51\LIB\C51FPL.LIB (?C?FPMUL)
  C:\KEIL_V5\C51\LIB\C51FPL.LIB (?C?FCAST)
  C:\KEIL_V5\C51\LIB\C51FPL.LIB (?C?CASTF)
  C:\KEIL_V5\C51\LIB\C51FPL.LIB (PRINTF)
  C:\KEIL_V5\C51\LIB\C51FPL.LIB (POW)
  C:\KEIL_V5\C51\LIB\C51FPL.LIB (?C?FPGETOPN)
  C:\KEIL_V5\C51\LIB\C51FPL.LIB (?C?CHKFLOAT)
  C:\KEIL_V5\C51\LIB\C51FPL.LIB (?C?FPCMP)
  C:\KEIL_V5\C51\LIB\C51FPL.LIB (?C?FPNEG)
  C:\KEIL_V5\C51\LIB\C51FPL.LIB (?C?FPROUND)
  C:\KEIL_V5\C51\LIB\C51FPL.LIB (?C?FPCONVERT)
  C:\KEIL_V5\C51\LIB\C51FPL.LIB (EXP)
  C:\KEIL_V5\C51\LIB\C51FPL.LIB (LOG)
  C:\KEIL_V5\C51\LIB\C51FPL.LIB (?C?FPDIV)
  C:\KEIL_V5\C51\LIB\C51FPL.LIB (?C?FTNPWR)
  C:\KEIL_V5\C51\LIB\C51FPL.LIB (?C?FPSERIES)
  C:\KEIL_V5\C51\LIB\C51L.LIB (?C_STARTUP)
  C:\KEIL_V5\C51\LIB\C51L.LIB (?C?COPY)
  C:\KEIL_V5\C51\LIB\C51L.LIB (?C?CLDPTR)
  C:\KEIL_V5\C51\LIB\C51L.LIB (?C?CLDOPTR)
  C:\KEIL_V5\C51\LIB\C51L.LIB (?C?CSTPTR)
  C:\KEIL_V5\C51\LIB\C51L.LIB (?C?CSTOPTR)
  C:\KEIL_V5\C51\LIB\C51L.LIB (?C?IMUL)
  C:\KEIL_V5\C51\LIB\C51L.LIB (?C?IILDX)
  C:\KEIL_V5\C51\LIB\C51L.LIB (?C?LNEG)
  C:\KEIL_V5\C51\LIB\C51L.LIB (?C?SLCMP)
  C:\KEIL_V5\C51\LIB\C51L.LIB (?C?ULCMP)
  C:\KEIL_V5\C51\LIB\C51L.LIB (?C?ULSHR)
  C:\KEIL_V5\C51\LIB\C51L.LIB (?C?LSHL)
  C:\KEIL_V5\C51\LIB\C51L.LIB (?C?LLDCODE)
  C:\KEIL_V5\C51\LIB\C51L.LIB (?C?LLDXDATA0)
  C:\KEIL_V5\C51\LIB\C51L.LIB (?C?LLDCODE0)
BL51 BANKED LINKER/LOCATER V6.22.2.0                                                  09/03/2021  14:20:36  PAGE 2


  C:\KEIL_V5\C51\LIB\C51L.LIB (?C?LSTXDATA)
  C:\KEIL_V5\C51\LIB\C51L.LIB (?C?LSTKXDATA)
  C:\KEIL_V5\C51\LIB\C51L.LIB (?C?PLDIXDATA)
  C:\KEIL_V5\C51\LIB\C51L.LIB (?C?PSTXDATA)
  C:\KEIL_V5\C51\LIB\C51L.LIB (?C?CCASE)
  C:\KEIL_V5\C51\LIB\C51L.LIB (STRCAT)
  C:\KEIL_V5\C51\LIB\C51L.LIB (?C?STRCMP)
  C:\KEIL_V5\C51\LIB\C51L.LIB (?C?STRCPY)
  C:\KEIL_V5\C51\LIB\C51L.LIB (STRLEN)
  C:\KEIL_V5\C51\LIB\C51L.LIB (STRTOK)
  C:\KEIL_V5\C51\LIB\C51L.LIB (ATOL)
  C:\KEIL_V5\C51\LIB\C51L.LIB (ATOI)
  C:\KEIL_V5\C51\LIB\C51L.LIB (?C_INIT)
  C:\KEIL_V5\C51\LIB\C51L.LIB (?C?ILDIX)
  C:\KEIL_V5\C51\LIB\C51L.LIB (?C?LMUL)
  C:\KEIL_V5\C51\LIB\C51L.LIB (ISDIGIT)
  C:\KEIL_V5\C51\LIB\C51L.LIB (ISSPACE)
  C:\KEIL_V5\C51\LIB\C51L.LIB (STRSPN)
  C:\KEIL_V5\C51\LIB\C51L.LIB (STRPBRK)


LINK MAP OF MODULE:  .\Objects\expedidor_v_101 (MAIN)


            TYPE    BASE      LENGTH    RELOCATION   SEGMENT NAME
            -----------------------------------------------------

            * * * * * * *   D A T A   M E M O R Y   * * * * * * *
            REG     0000H     0008H     ABSOLUTE     "REG BANK 0"
            DATA    0008H     0005H     UNIT         _DATA_GROUP_
            DATA    000DH     0004H     UNIT         ?DT?UART
            IDATA   0011H     0009H     UNIT         ?ID?MONITOR
                    001AH     0006H                  *** GAP ***
            BIT     0020H.0   0001H.1   UNIT         _BIT_GROUP_
            BIT     0021H.1   0000H.3   UNIT         ?BI?MAIN
            BIT     0021H.4   0000H.2   UNIT         ?BI?UART
            BIT     0021H.6   0000H.1   UNIT         ?BI?EEPROM
            BIT     0021H.7   0000H.1   UNIT         ?BI?IO_SENSORES
            BIT     0022H.0   0000H.1   UNIT         ?BI?VERIFICADOR
                    0022H.1   0000H.7                *** GAP ***
            IDATA   0023H     0046H     UNIT         ?ID?MAIN
            IDATA   0069H     0001H     UNIT         ?STACK

            * * * * * * *  X D A T A   M E M O R Y  * * * * * * *
            XDATA   0000H     00B7H     UNIT         _XDATA_GROUP_
            XDATA   00B7H     0091H     UNIT         ?XD?VERIFICADOR
            XDATA   0148H     006EH     UNIT         ?XD?MAIN
            XDATA   01B6H     005CH     UNIT         ?XD?PROG
            XDATA   0212H     0003H     UNIT         ?XD?EEPROM
            XDATA   0215H     0003H     UNIT         ?XD?UART
            XDATA   0218H     0003H     UNIT         ?XD?STRTOK
            XDATA   021BH     0002H     UNIT         ?XD?IO_SENSORES
            XDATA   021DH     0001H     UNIT         ?XD?ACCESCAN
            XDATA   021EH     0001H     UNIT         ?XD?CLOCK

            * * * * * * *   C O D E   M E M O R Y   * * * * * * *
            CODE    0000H     0003H     ABSOLUTE     
BL51 BANKED LINKER/LOCATER V6.22.2.0                                                  09/03/2021  14:20:36  PAGE 3


            CODE    0003H     0008H     UNIT         ?PR?P_CK?CLOCK
            CODE    000BH     0003H     ABSOLUTE     
            CODE    000EH     0015H     UNIT         ?PR?_STRLEN?STRLEN
            CODE    0023H     0003H     ABSOLUTE     
            CODE    0026H     1430H     UNIT         ?CO?PROG
            CODE    1456H     0B8BH     UNIT         ?C?LIB_CODE
            CODE    1FE1H     06EFH     UNIT         ?CO?PANTALLAS
            CODE    26D0H     0690H     UNIT         ?CO?VERIFICADOR
            CODE    2D60H     062CH     UNIT         ?PR?_PANTALLALCD?PANTALLAS
            CODE    338CH     053DH     UNIT         ?PR?_VALIDA_TRAMA_PTO?ACCESCAN
            CODE    38C9H     04D6H     UNIT         ?PR?_SECUENCIAEXPEDIDORMF?VERIFICADOR
            CODE    3D9FH     0483H     UNIT         ?PR?PRINTF?PRINTF
            CODE    4222H     03C8H     UNIT         ?PR?VER_PROG?PROG
            CODE    45EAH     02D0H     UNIT         ?PR?_TWO_BYTEHEX_DECIMAL?CLOCK
            CODE    48BAH     02B7H     UNIT         ?PR?_PROG_HORARIO_DIAS?PROG
            CODE    4B71H     02A5H     UNIT         ?PR?_PANTALLALCD_LINEA_2?PANTALLAS
            CODE    4E16H     02A3H     UNIT         ?PR?_ARMAR_TRAMA_MONITOR?VERIFICADOR
            CODE    50B9H     0256H     UNIT         ?PR?_ARMAR_TRAMA_PTO_PARALELO_EXPEDIDOR?VERIFICADOR
            CODE    530FH     0254H     UNIT         ?PR?MENU?PROG
            CODE    5563H     0208H     UNIT         ?PR?_HASH_ID?PROG
            CODE    576BH     01FAH     UNIT         ?PR?_PROG_HORARIO_DESDE_HASTA?PROG
            CODE    5965H     01F5H     UNIT         ?PR?PROG_FECHA_VENCIMIENTO?PROG
            CODE    5B5AH     01F5H     UNIT         ?PR?COM_ISR?UART
            CODE    5D4FH     01EBH     UNIT         ?PR?_ARMAR_TRAMA_TARJETA_SECTOR1_BLOQUE2?VERIFICADOR
            CODE    5F3AH     01DDH     UNIT         ?PR?_RESPONDE_LECTURA_TARJETA_SECTOR1_BLOQUE1?VERIFICADOR
            CODE    6117H     01D8H     UNIT         ?PR?_BLOCK_READ_CLOCK_ASCII_RASBERRY?CLOCK
            CODE    62EFH     01A3H     UNIT         ?CO?LINTECH
            CODE    6492H     016EH     UNIT         ?PR?_BLOCK_READ_CLOCK_ASCII?CLOCK
            CODE    6600H     0166H     UNIT         ?PR?_POW?POW
            CODE    6766H     014FH     UNIT         ?PR?_RESPONDE_REELECTURA_TARJETA_SECTOR1_BLOQUE2?VERIFICADOR
            CODE    68B5H     0145H     UNIT         ?PR?PROG_HORARIOS?PROG
            CODE    69FAH     013EH     UNIT         ?PR?PROG_SIN_COBRO?PROG
            CODE    6B38H     013EH     UNIT         ?PR?SECUENCIA_INICIO_EXPEDIDOR?VERIFICADOR
            CODE    6C76H     013CH     UNIT         ?PR?LOAD_AND_SEND_ID_COD?PTO_PARALELO
            CODE    6DB2H     0137H     UNIT         ?PR?VER_HORARIO?PROG
            CODE    6EE9H     012EH     UNIT         ?PR?_ARMAR_TRAMA_PTO_PARALELO_EXPEDIDOR_MENSUAL?VERIFICADOR
            CODE    7017H     0129H     UNIT         ?PR?_RESPONDE_LECTURA_TARJETA_SECTOR1_BLOQUE2?VERIFICADOR
            CODE    7140H     0129H     UNIT         ?PR?LOG?LOG
            CODE    7269H     0128H     UNIT         ?PR?_VER_HORARIO_DIAS?PROG
            CODE    7391H     011AH     UNIT         ?PR?_PROG_HORARIOS_ON_OFF?PROG
            CODE    74ABH     0119H     UNIT         ?PR?_VER_HORARIO_DESDE_HASTA?PROG
            CODE    75C4H     0115H     UNIT         ?PR?_VALIDAR_CLK?CLOCK
            CODE    76D9H     010CH     UNIT         ?PR?_ATOL?ATOL
            CODE    77E5H     0100H     UNIT         ?PR?_WR_MF?LINTECH
            CODE    78E5H     00FCH     UNIT         ?PR?PROG_DEBUG?PROG
            CODE    79E1H     00FCH     UNIT         ?PR?PROG_USE_LPR?PROG
            CODE    7ADDH     00FCH     UNIT         ?PR?TIPO_PANTALLA?PROG
            CODE    7BD9H     00FCH     UNIT         ?PR?PROG_ANTIPASSBACK?PROG
            CODE    7CD5H     00FCH     UNIT         ?PR?PROG_PLACA?PROG
            CODE    7DD1H     00FCH     UNIT         ?PR?PROG_VALIDAR_TIPO_VEHICULO_MENSUAL?PROG
            CODE    7ECDH     00FCH     UNIT         ?PR?PROG_APB_MENSUAL?PROG
            CODE    7FC9H     00FCH     UNIT         ?PR?PROG_MENSUALES?PROG
            CODE    80C5H     00F1H     UNIT         ?PR?_WRITE_EEPROM_TICKET?EEPROM
            CODE    81B6H     00F0H     UNIT         ?CO?IO_SENSORES
            CODE    82A6H     00EAH     UNIT         ?PR?_MOV_CARD?LINTECH
            CODE    8390H     00E4H     UNIT         ?PR?_STRTOK?STRTOK
            CODE    8474H     00DEH     UNIT         ?PR?PROG_ADDRESS_HIGH_BOARD?PROG
BL51 BANKED LINKER/LOCATER V6.22.2.0                                                  09/03/2021  14:20:36  PAGE 4


            CODE    8552H     00DCH     UNIT         ?PR?_RTA_CMD_TRANSPORTE?VERIFICADOR
            CODE    862EH     00DBH     UNIT         ?PR?_ATOI?ATOI
            CODE    8709H     00DAH     UNIT         ?C_INITSEG
            CODE    87E3H     00DAH     UNIT         ?PR?_VALIDA_TIPO_TARJETA?VERIFICADOR
            CODE    88BDH     00D7H     UNIT         ?PR?_ANALIZA_UID_CARD?VERIFICADOR
            CODE    8994H     00D6H     UNIT         ?PR?_CMD_LPR_SALIDA_WIEGAND?ACCESCAN
            CODE    8A6AH     00CFH     UNIT         ?PR?_RECIBE_CMD_MONITOR?MONITOR
            CODE    8B39H     00CCH     UNIT         ?PR?_GRABA_SERIE?EEPROM
            CODE    8C05H     00CAH     UNIT         ?PR?READ_EEPROM_TICKET?EEPROM
            CODE    8CCFH     00C9H     UNIT         ?PR?_CHECK_FECHAOUT?CLOCK
            CODE    8D98H     00C4H     UNIT         ?PR?_BLOCK_READ_CLOCK?CLOCK
            CODE    8E5CH     00C3H     UNIT         ?PR?_RD_MF?LINTECH
            CODE    8F1FH     00C2H     UNIT         ?PR?PROG_TARJETA_AUTOMATICA_O_BOTON?PROG
            CODE    8FE1H     00BEH     UNIT         ?PR?ERROR_RX_PTO?VERIFICADOR
            CODE    909FH     00BDH     UNIT         ?PR?PROG_COD_PARK?PROG
            CODE    915CH     00BDH     UNIT         ?PR?PROG_TIEMPO_GRACIA?PROG
            CODE    9219H     00BDH     UNIT         ?PR?_VALIDA_TRAMA_MONITOR?MONITOR
            CODE    92D6H     00B9H     UNIT         ?CO?TIBBO
            CODE    938FH     00B6H     UNIT         ?PR?PROG_ID_CLIENTE?PROG
            CODE    9445H     00B2H     UNIT         ?PR?_SEND_PORT?PTO_PARALELO
            CODE    94F7H     00AFH     UNIT         ?PR?MSJ_LCD_INFORMATIVO?IO_SENSORES
            CODE    95A6H     00AAH     UNIT         ?PR?CLAVE_SEGURIDAD_S2?LINTECH
            CODE    9650H     00A9H     UNIT         ?PR?DWLOAD_EEPROM?LINTECH
            CODE    96F9H     00A6H     UNIT         ?PR?_BLOCK_READ_CLOCK_HEX?CLOCK
            CODE    979FH     00A5H     UNIT         ?PR?_SEND_PTO_PARALELO?VERIFICADOR
            CODE    9844H     00A2H     UNIT         ?PR?SHOW?PROG
            CODE    98E6H     00A1H     UNIT         ?PR?_BLOCK_WRITE_CLOCK_ASCII?CLOCK
            CODE    9987H     009EH     UNIT         ?PR?INGRESO_VEHICULO?VERIFICADOR
            CODE    9A25H     009DH     UNIT         ?PR?_INICIALIZA?LINTECH
            CODE    9AC2H     009BH     UNIT         ?PR?ENTREGA_CARD_CAPTURA?VERIFICADOR
            CODE    9B5DH     009AH     UNIT         ?PR?EXP?EXP
            CODE    9BF7H     0099H     UNIT         ?PR?_RECIBE_PORT?PTO_PARALELO
            CODE    9C90H     0098H     UNIT         ?PR?_RESPONDE_LECTURA_TARJETA_SECTOR1_BLOQUE0?VERIFICADOR
            CODE    9D28H     0091H     UNIT         ?PR?_HEX_ASCII?CLOCK
            CODE    9DB9H     0091H     UNIT         ?PR?_CARD_INSERCION?LINTECH
            CODE    9E4AH     0090H     UNIT         ?PR?_LEE_CLK?CLOCK
            CODE    9EDAH     0090H     UNIT         ?PR?_GETOPTION?PROG
            CODE    9F6AH     0090H     UNIT         ?PR?_DISPARO_LOCK_ENTRADA_VEHICULO?VERIFICADOR
            CODE    9FFAH     008DH     UNIT         ?PR?LOADVERIFY_EEPROM?LINTECH
            CODE    A087H     008DH     UNIT         ?PR?WAIT_PLACA?VERIFICADOR
            CODE    A114H     008CH     UNIT         ?C_C51STARTUP
            CODE    A1A0H     0088H     UNIT         ?PR?_SEND_PORTERR?PTO_PARALELO
            CODE    A228H     0088H     UNIT         ?PR?RX_DATA?TIBBO
            CODE    A2B0H     0088H     UNIT         ?PR?UNIQUE_IDENTIFIER_UID?LINTECH
            CODE    A338H     0087H     UNIT         ?PR?_RESPONDE_WRITE_TARJETA_SECTOR1_BLOQUE2?VERIFICADOR
            CODE    A3BFH     0086H     UNIT         ?PR?_CHECK_STATUS?LINTECH
            CODE    A445H     0084H     UNIT         ?PR?_DEBUGBUFFERMF?TIBBO
            CODE    A4C9H     0084H     UNIT         ?PR?_ARMAR_TRAMA_PLACA?VERIFICADOR
            CODE    A54DH     0084H     UNIT         ?PR?_STRSPN?STRSPN
            CODE    A5D1H     0083H     UNIT         ?PR?_RASPBERRY_DATA?PANTALLAS
            CODE    A654H     0082H     UNIT         ?PR?RESPONDE_TIPO_TARJETA?VERIFICADOR
            CODE    A6D6H     0081H     UNIT         ?PR?MAIN?MAIN
            CODE    A757H     0081H     UNIT         ?PR?_STRPBRK?STRPBRK
            CODE    A7D8H     0080H     UNIT         ?PR?_INGRESADATO?PROG
            CODE    A858H     0080H     UNIT         ?PR?AUT_CARD_CHECK_STATUS?LINTECH
            CODE    A8D8H     0080H     UNIT         ?PR?POWER_OFF?LINTECH
            CODE    A958H     007DH     UNIT         ?PR?RELOJ_PANTALLA_LCD?PANTALLAS
BL51 BANKED LINKER/LOCATER V6.22.2.0                                                  09/03/2021  14:20:36  PAGE 5


            CODE    A9D5H     0078H     UNIT         ?PR?RESPONDE_ESTADO_SENSORES_TRANSPORTE?VERIFICADOR
            CODE    AA4DH     0075H     UNIT         ?PR?RESPUESTA_PLACA_CANCEL?VERIFICADOR
            CODE    AAC2H     0074H     UNIT         ?PR?_HORA_ENTRADA_VEHICULO?CLOCK
            CODE    AB36H     006FH     UNIT         ?PR?_ESCRIBIRMEMORIA?EEPROM
            CODE    ABA5H     006BH     UNIT         ?PR?_STRCAT?STRCAT
            CODE    AC10H     0066H     UNIT         ?PR?_LEERMEMORIA?EEPROM
            CODE    AC76H     0062H     UNIT         ?PR?_LISTACOMANDOS?PROG
            CODE    ACD8H     005EH     UNIT         ?PR?_BYTEHEX_DECIMAL?CLOCK
            CODE    AD36H     005DH     UNIT         ?PR?_PREGUNTA_LPR?VERIFICADOR
            CODE    AD93H     005DH     UNIT         ?PR?_RESPUESTA_SEGUNDA_CLAVE?VERIFICADOR
            CODE    ADF0H     005BH     UNIT         ?PR?VALIDA_SENSOR1_AUTO?IO_SENSORES
            CODE    AE4BH     0056H     UNIT         ?PR?_WR_EEPROM?EEPROM
            CODE    AEA1H     004FH     UNIT         ?PR?_DEBUG_BUFFER_RS232_LCD?TIBBO
            CODE    AEF0H     004DH     UNIT         ?PR?VARIABLE_INICIO?MAIN
            CODE    AF3DH     004DH     UNIT         ?PR?L_D_M?EEPROM
            CODE    AF8AH     004CH     UNIT         ?PR?LEE_NO_TICKET?EEPROM
            CODE    AFD6H     004CH     UNIT         ?PR?LOAD_AND_SEND_INFO_RELOJ?PTO_PARALELO
            CODE    B022H     004BH     UNIT         ?PR?_TX_AUX?TIBBO
            CODE    B06DH     0049H     UNIT         ?PR?_DEBUG_TXT_TIBBO?TIBBO
            CODE    B0B6H     0048H     UNIT         ?PR?FIRST_CLAVE?PROG
            CODE    B0FEH     0047H     UNIT         ?PR?_DEBUG_CHR_TIBBO?TIBBO
            CODE    B145H     0047H     UNIT         ?PR?_DEBUG_CHR_RS232_LCD?TIBBO
            CODE    B18CH     0047H     UNIT         ?PR?_RESPONDE_WRITE_TARJETA_SECTOR2_BLOQUE0?VERIFICADOR
            CODE    B1D3H     0046H     UNIT         ?PR?_ESCRIBIRCADENASOFT_BUFFER?MAIN
            CODE    B219H     0046H     UNIT         ?PR?_LCD_TXT_NUM_CHAR?PANTALLAS
            CODE    B25FH     0046H     UNIT         ?PR?_DEBUG_HEXDEC?TIBBO
            CODE    B2A5H     0044H     UNIT         ?PR?_LCD_TXT?PANTALLAS
            CODE    B2E9H     0043H     UNIT         ?PR?DIR_BOARD?IO_SENSORES
            CODE    B32CH     0042H     UNIT         ?PR?_VALIDARCLAVE?PROG
            CODE    B36EH     0041H     UNIT         ?PR?_MONITOR_CHR?ACCESCAN
            CODE    B3AFH     0041H     UNIT         ?PR?_TWO_ONE?CLOCK
            CODE    B3F0H     0041H     UNIT         ?PR?COM_BAUDRATE?UART
            CODE    B431H     0040H     UNIT         ?PR?_GETCMD?PROG
            CODE    B471H     0040H     UNIT         ?PR?_DEBUG_PTO_PARALELO?TIBBO
            CODE    B4B1H     003FH     UNIT         ?PR?_EB_CLK?CLOCK
            CODE    B4F0H     003EH     UNIT         ?PR?_PUTCHAR?MAIN
            CODE    B52EH     003EH     UNIT         ?PR?TRAMA_VALIDACION_P_N?VERIFICADOR
            CODE    B56CH     003DH     UNIT         ?PR?_HEX_BCD?CLOCK
            CODE    B5A9H     003DH     UNIT         ?PR?_RD_EEPROM?EEPROM
            CODE    B5E6H     003DH     UNIT         ?PR?_DEBUG_MONITOR?TIBBO
            CODE    B623H     003DH     UNIT         ?PR?_LOAD_SECUENCIA_EXPEDIDOR?VERIFICADOR
            CODE    B660H     003BH     UNIT         ?CO?ACCESCAN
            CODE    B69BH     003BH     UNIT         ?CO?EEPROM
            CODE    B6D6H     003BH     UNIT         ?PR?_COM_PUTCHAR?UART
            CODE    B711H     003AH     UNIT         ?PR?_DELAY_10MS?DELAY
            CODE    B74BH     0039H     UNIT         ?PR?RX_MONITOR?MONITOR
            CODE    B784H     0038H     UNIT         ?PR?VALIDASENSORESPASO?IO_SENSORES
            CODE    B7BCH     0038H     UNIT         ?PR?_DEBUG_TXT_RS232?TIBBO
            CODE    B7F4H     0036H     UNIT         ?PR?_RESPONDE_WRITE_TARJETA_SECTOR1_BLOQUE1?VERIFICADOR
            CODE    B82AH     0036H     UNIT         ?PR?_RESPONDE_WRITE_TARJETA_SECTOR1_BLOQUE0?VERIFICADOR
            CODE    B860H     0034H     UNIT         ?PR?INCREMENTE_TICKET?EEPROM
            CODE    B894H     0034H     UNIT         ?PR?ADDR_HORARIOS?PROG
            CODE    B8C8H     0031H     UNIT         ?PR?_TARJETA_ROTACION?VERIFICADOR
            CODE    B8F9H     0030H     UNIT         ?PR?PREGUNTA_PLACA_HABILITADA?VERIFICADOR
            CODE    B929H     0030H     UNIT         ?PR?_ARMAR_TRAMA_TARJETA_SECTOR1_BLOQUE0?VERIFICADOR
            CODE    B959H     002EH     UNIT         ?PR?TIMER0_INT?MAIN
            CODE    B987H     002AH     UNIT         ?PR?COM_INITIALIZE?UART
BL51 BANKED LINKER/LOCATER V6.22.2.0                                                  09/03/2021  14:20:36  PAGE 6


            CODE    B9B1H     002AH     UNIT         ?PR?ANALIZA_PRESENCIA_ROTACION?VERIFICADOR
            CODE    B9DBH     0028H     UNIT         ?PR?_WR_CLK?CLOCK
            CODE    BA03H     0027H     UNIT         ?PR?_TX_CHRLCD?PANTALLAS
            CODE    BA2AH     0026H     UNIT         ?PR?COM_GETCHAR?UART
            CODE    BA50H     0022H     UNIT         ?PR?_E_D_M?EEPROM
            CODE    BA72H     0022H     UNIT         ?PR?VALIDASENSOR_CERO?IO_SENSORES
            CODE    BA94H     0021H     UNIT         ?CO?PTO_PARALELO
            CODE    BAB5H     0020H     UNIT         ?PR?ACKD?EEPROM
            CODE    BAD5H     0020H     UNIT         ?PR?ACK_LECT?EEPROM
            CODE    BAF5H     001FH     UNIT         ?PR?VALIDASENSOR?IO_SENSORES
            CODE    BB14H     001EH     UNIT         ?PR?_BCD_HEX?CLOCK
            CODE    BB32H     001BH     UNIT         ?PR?_DELAY_1MS?DELAY
            CODE    BB4DH     001AH     UNIT         ?PR?CLEAR_PLACA?MONITOR
            CODE    BB67H     0017H     UNIT         ?PR?DISPLAYCURSOR?PROG
            CODE    BB7EH     0016H     UNIT         ?PR?DIR_BOARD_MONITOR?IO_SENSORES
            CODE    BB94H     0016H     UNIT         ?PR?TIME_BIT?TIBBO
            CODE    BBAAH     0014H     UNIT         ?CO?CLOCK
            CODE    BBBEH     0014H     UNIT         ?PR?_ISSPACE?ISSPACE
            CODE    BBD2H     0012H     UNIT         ?PR?_DELAY_20US?DELAY
            CODE    BBE4H     0012H     UNIT         ?PR?START?EEPROM
            CODE    BBF6H     0012H     UNIT         ?PR?BOTTON?IO_SENSORES
            CODE    BC08H     0012H     UNIT         ?PR?PULSO_BUS?PTO_PARALELO
            CODE    BC1AH     0012H     UNIT         ?PR?COM_RBUFLEN?UART
            CODE    BC2CH     0012H     UNIT         ?PR?COM_TBUFLEN?UART
            CODE    BC3EH     0010H     UNIT         ?PR?INI_TIMER?MAIN
            CODE    BC4EH     0010H     UNIT         ?PR?INICIA_BOARD?MAIN
            CODE    BC5EH     0010H     UNIT         ?PR?TIME_MBIT?TIBBO
            CODE    BC6EH     000FH     UNIT         ?PR?_ISDIGIT?ISDIGIT
            CODE    BC7DH     000CH     UNIT         ?PR?_GETKEY?MAIN
            CODE    BC89H     000AH     UNIT         ?PR?STOP?EEPROM
            CODE    BC93H     000AH     UNIT         ?PR?COND_INI_PTO?PTO_PARALELO
            CODE    BC9DH     0009H     UNIT         ?PR?DEBUG_DIVIDIR_TEXTO?TIBBO
            CODE    BCA6H     0007H     UNIT         ?PR?COND_INI_CLOCK?CLOCK
            CODE    BCADH     0007H     UNIT         ?PR?SEL_FUNCION?IO_SENSORES
            CODE    BCB4H     0007H     UNIT         ?PR?SEL_AUTO?IO_SENSORES
            CODE    BCBBH     0007H     UNIT         ?PR?SEL_PULSA?IO_SENSORES
            CODE    BCC2H     0007H     UNIT         ?PR?SEL_SENSOR2?IO_SENSORES
            CODE    BCC9H     0007H     UNIT         ?PR?SEL_SENSOR1?IO_SENSORES
            CODE    BCD0H     0007H     UNIT         ?PR?SEL_DIR1?IO_SENSORES
            CODE    BCD7H     0007H     UNIT         ?PR?SEL_DIR2?IO_SENSORES
            CODE    BCDEH     0006H     UNIT         ?PR?P_ME?EEPROM
            CODE    BCE4H     0005H     UNIT         ?PR?ON_TIMER0_INTERRUP?MAIN
            CODE    BCE9H     0005H     UNIT         ?PR?COND_INI_TIBBO?TIBBO
            CODE    BCEEH     0003H     UNIT         ?PR?OFF_TIMER0_INTERRUP?MAIN
            CODE    BCF1H     0001H     UNIT         ?PR?DELAY?DELAY



OVERLAY MAP OF MODULE:   .\Objects\expedidor_v_101 (MAIN)


SEGMENT                                             BIT_GROUP          DATA_GROUP          XDATA_GROUP
  +--> CALLED SEGMENT                            START    LENGTH     START    LENGTH     START    LENGTH
--------------------------------------------------------------------------------------------------------
?C_C51STARTUP                                    -----    -----      -----    -----      -----    -----
  +--> ?PR?MAIN?MAIN
  +--> ?C_INITSEG
BL51 BANKED LINKER/LOCATER V6.22.2.0                                                  09/03/2021  14:20:36  PAGE 7



?PR?MAIN?MAIN                                    -----    -----      -----    -----      0000H    0001H
  +--> ?PR?INI_TIMER?MAIN
  +--> ?PR?ON_TIMER0_INTERRUP?MAIN
  +--> ?PR?COM_INITIALIZE?UART
  +--> ?PR?COM_BAUDRATE?UART
  +--> ?PR?INICIA_BOARD?MAIN
  +--> ?PR?TIME_BIT?TIBBO
  +--> ?PR?_DELAY_20US?DELAY
  +--> ?PR?TIME_MBIT?TIBBO
  +--> ?PR?_TX_AUX?TIBBO
  +--> ?PR?SEL_FUNCION?IO_SENSORES
  +--> ?PR?MENU?PROG
  +--> ?PR?VARIABLE_INICIO?MAIN
  +--> ?PR?SECUENCIA_INICIO_EXPEDIDOR?VERIFI...
  +--> ?PR?RX_MONITOR?MONITOR
  +--> ?PR?_SECUENCIAEXPEDIDORMF?VERIFICADOR
  +--> ?PR?_RECIBE_PORT?PTO_PARALELO
  +--> ?PR?_DEBUG_PTO_PARALELO?TIBBO
  +--> ?PR?_VALIDA_TRAMA_PTO?ACCESCAN
  +--> ?PR?MSJ_LCD_INFORMATIVO?IO_SENSORES

?PR?COM_INITIALIZE?UART                          -----    -----      -----    -----      -----    -----
  +--> ?PR?COM_BAUDRATE?UART

?PR?COM_BAUDRATE?UART                            -----    -----      -----    -----      -----    -----
  +--> ?PR?_RD_EEPROM?EEPROM
  +--> ?PR?_WR_EEPROM?EEPROM

?PR?_RD_EEPROM?EEPROM                            -----    -----      -----    -----      -----    -----
  +--> ?PR?START?EEPROM
  +--> ?PR?ACK_LECT?EEPROM
  +--> ?PR?_E_D_M?EEPROM
  +--> ?PR?ACKD?EEPROM
  +--> ?PR?L_D_M?EEPROM
  +--> ?PR?STOP?EEPROM

?PR?ACK_LECT?EEPROM                              -----    -----      -----    -----      -----    -----
  +--> ?PR?_E_D_M?EEPROM

?PR?_E_D_M?EEPROM                                -----    -----      -----    -----      -----    -----
  +--> ?PR?P_ME?EEPROM

?PR?ACKD?EEPROM                                  -----    -----      -----    -----      -----    -----
  +--> ?PR?_E_D_M?EEPROM

?PR?_WR_EEPROM?EEPROM                            -----    -----      -----    -----      -----    -----
  +--> ?PR?START?EEPROM
  +--> ?PR?ACKD?EEPROM
  +--> ?PR?_E_D_M?EEPROM
  +--> ?PR?STOP?EEPROM
  +--> ?PR?_DELAY_1MS?DELAY
  +--> ?PR?_DELAY_20US?DELAY

?PR?_DELAY_1MS?DELAY                             -----    -----      -----    -----      -----    -----
  +--> ?PR?_DELAY_20US?DELAY

BL51 BANKED LINKER/LOCATER V6.22.2.0                                                  09/03/2021  14:20:36  PAGE 8


?PR?INICIA_BOARD?MAIN                            -----    -----      -----    -----      -----    -----
  +--> ?PR?COND_INI_TIBBO?TIBBO
  +--> ?PR?COND_INI_CLOCK?CLOCK
  +--> ?PR?COND_INI_PTO?PTO_PARALELO

?PR?_TX_AUX?TIBBO                                -----    -----      -----    -----      -----    -----
  +--> ?PR?TIME_BIT?TIBBO

?PR?MENU?PROG                                    -----    -----      -----    -----      0001H    0045H
  +--> ?CO?PROG
  +--> ?PR?PRINTF?PRINTF
  +--> ?PR?_RD_EEPROM?EEPROM
  +--> ?PR?FIRST_CLAVE?PROG
  +--> ?PR?_WR_EEPROM?EEPROM
  +--> ?PR?_LEERMEMORIA?EEPROM
  +--> ?PR?_HASH_ID?PROG
  +--> ?PR?_INGRESADATO?PROG
  +--> ?PR?_GETCMD?PROG
  +--> ?PR?_ESCRIBIRMEMORIA?EEPROM
  +--> ?PR?_VALIDARCLAVE?PROG
  +--> ?PR?DISPLAYCURSOR?PROG
  +--> ?PR?_STRLEN?STRLEN
  +--> ?PR?_GETOPTION?PROG
  +--> ?PR?_STRCAT?STRCAT
  +--> ?PR?_LISTACOMANDOS?PROG
  +--> ?PR?PROG_ID_CLIENTE?PROG
  +--> ?PR?PROG_COD_PARK?PROG
  +--> ?PR?PROG_TIEMPO_GRACIA?PROG
  +--> ?PR?PROG_SIN_COBRO?PROG
  +--> ?PR?PROG_DEBUG?PROG
  +--> ?PR?PROG_USE_LPR?PROG
  +--> ?PR?TIPO_PANTALLA?PROG
  +--> ?PR?PROG_TARJETA_AUTOMATICA_O_BOTON?PROG
  +--> ?PR?PROG_ANTIPASSBACK?PROG
  +--> ?PR?PROG_PLACA?PROG
  +--> ?PR?PROG_ADDRESS_HIGH_BOARD?PROG
  +--> ?PR?PROG_HORARIOS?PROG
  +--> ?PR?PROG_VALIDAR_TIPO_VEHICULO_MENSUA...
  +--> ?PR?PROG_APB_MENSUAL?PROG
  +--> ?PR?PROG_MENSUALES?PROG
  +--> ?PR?VER_PROG?PROG
  +--> ?PR?SHOW?PROG
  +--> ?PR?PROG_FECHA_VENCIMIENTO?PROG

?PR?PRINTF?PRINTF                                0020H.0  0001H.1    0008H    0005H      0077H    0030H
  +--> ?PR?_PUTCHAR?MAIN

?PR?_PUTCHAR?MAIN                                -----    -----      -----    -----      00A7H    0003H
  +--> ?PR?_COM_PUTCHAR?UART

?PR?_COM_PUTCHAR?UART                            -----    -----      -----    -----      00AAH    0001H
  +--> ?PR?COM_TBUFLEN?UART

?PR?FIRST_CLAVE?PROG                             -----    -----      -----    -----      0046H    000BH
  +--> ?PR?_BLOCK_READ_CLOCK_ASCII?CLOCK
  +--> ?PR?_HASH_ID?PROG
  +--> ?PR?_ESCRIBIRMEMORIA?EEPROM
BL51 BANKED LINKER/LOCATER V6.22.2.0                                                  09/03/2021  14:20:36  PAGE 9



?PR?_BLOCK_READ_CLOCK_ASCII?CLOCK                -----    -----      -----    -----      0051H    0003H
  +--> ?PR?_LEE_CLK?CLOCK

?PR?_LEE_CLK?CLOCK                               -----    -----      -----    -----      00B1H    0003H
  +--> ?PR?_DELAY_20US?DELAY
  +--> ?PR?_EB_CLK?CLOCK
  +--> ?PR?P_CK?CLOCK

?PR?_EB_CLK?CLOCK                                -----    -----      -----    -----      00B4H    0003H
  +--> ?PR?P_CK?CLOCK

?PR?P_CK?CLOCK                                   -----    -----      -----    -----      -----    -----
  +--> ?PR?DELAY?DELAY

?PR?_HASH_ID?PROG                                -----    -----      -----    -----      005DH    003FH
  +--> ?CO?PROG
  +--> ?PR?_LEERMEMORIA?EEPROM
  +--> ?PR?_CHECK_FECHAOUT?CLOCK
  +--> ?PR?_STRLEN?STRLEN

?PR?_LEERMEMORIA?EEPROM                          -----    -----      -----    -----      009CH    0005H
  +--> ?PR?_RD_EEPROM?EEPROM

?PR?_CHECK_FECHAOUT?CLOCK                        -----    -----      -----    -----      009CH    0012H
  +--> ?PR?_BLOCK_READ_CLOCK_HEX?CLOCK

?PR?_BLOCK_READ_CLOCK_HEX?CLOCK                  -----    -----      -----    -----      00AEH    0003H
  +--> ?PR?_LEE_CLK?CLOCK
  +--> ?PR?_BCD_HEX?CLOCK

?PR?_ESCRIBIRMEMORIA?EEPROM                      -----    -----      -----    -----      005DH    0005H
  +--> ?PR?_WR_EEPROM?EEPROM

?PR?_INGRESADATO?PROG                            -----    -----      -----    -----      0071H    0004H
  +--> ?PR?_GETKEY?MAIN
  +--> ?CO?PROG
  +--> ?PR?PRINTF?PRINTF
  +--> ?PR?_PUTCHAR?MAIN

?PR?_GETKEY?MAIN                                 -----    -----      -----    -----      -----    -----
  +--> ?PR?COM_GETCHAR?UART

?PR?COM_GETCHAR?UART                             -----    -----      -----    -----      -----    -----
  +--> ?PR?COM_RBUFLEN?UART

?PR?_GETCMD?PROG                                 -----    -----      -----    -----      005DH    0007H
  +--> ?CO?PROG
  +--> ?PR?_STRTOK?STRTOK

?PR?_STRTOK?STRTOK                               -----    -----      -----    -----      0064H    0006H
  +--> ?PR?_STRSPN?STRSPN
  +--> ?PR?_STRPBRK?STRPBRK

?PR?_STRSPN?STRSPN                               -----    -----      -----    -----      006AH    0008H

?PR?_STRPBRK?STRPBRK                             -----    -----      -----    -----      006AH    0009H
BL51 BANKED LINKER/LOCATER V6.22.2.0                                                  09/03/2021  14:20:36  PAGE 10



?PR?_VALIDARCLAVE?PROG                           -----    -----      -----    -----      005DH    000EH

?PR?DISPLAYCURSOR?PROG                           -----    -----      -----    -----      -----    -----
  +--> ?CO?PROG
  +--> ?PR?PRINTF?PRINTF

?PR?_GETOPTION?PROG                              -----    -----      -----    -----      0046H    000BH
  +--> ?CO?PROG
  +--> ?PR?_STRTOK?STRTOK

?PR?_STRCAT?STRCAT                               -----    -----      -----    -----      0046H    0009H

?PR?_LISTACOMANDOS?PROG                          -----    -----      -----    -----      0046H    0007H

?PR?PROG_ID_CLIENTE?PROG                         -----    -----      -----    -----      0046H    000CH
  +--> ?PR?_RD_EEPROM?EEPROM
  +--> ?CO?PROG
  +--> ?PR?PRINTF?PRINTF
  +--> ?PR?_INGRESADATO?PROG
  +--> ?PR?_ATOI?ATOI
  +--> ?PR?_WR_EEPROM?EEPROM

?PR?_ATOI?ATOI                                   0020H.0  0000H.1    -----    -----      0071H    0005H
  +--> ?PR?_ISSPACE?ISSPACE
  +--> ?PR?_ISDIGIT?ISDIGIT

?PR?PROG_COD_PARK?PROG                           -----    -----      -----    -----      0046H    000CH
  +--> ?PR?_RD_EEPROM?EEPROM
  +--> ?CO?PROG
  +--> ?PR?PRINTF?PRINTF
  +--> ?PR?_INGRESADATO?PROG
  +--> ?PR?_ATOI?ATOI
  +--> ?PR?_WR_EEPROM?EEPROM

?PR?PROG_TIEMPO_GRACIA?PROG                      -----    -----      -----    -----      0046H    000CH
  +--> ?PR?_RD_EEPROM?EEPROM
  +--> ?CO?PROG
  +--> ?PR?PRINTF?PRINTF
  +--> ?PR?_INGRESADATO?PROG
  +--> ?PR?_ATOI?ATOI
  +--> ?PR?_WR_EEPROM?EEPROM

?PR?PROG_SIN_COBRO?PROG                          -----    -----      -----    -----      0046H    000CH
  +--> ?PR?_RD_EEPROM?EEPROM
  +--> ?CO?PROG
  +--> ?PR?PRINTF?PRINTF
  +--> ?PR?_INGRESADATO?PROG
  +--> ?PR?_ATOI?ATOI
  +--> ?PR?_WR_EEPROM?EEPROM

?PR?PROG_DEBUG?PROG                              -----    -----      -----    -----      0046H    000CH
  +--> ?PR?_RD_EEPROM?EEPROM
  +--> ?CO?PROG
  +--> ?PR?PRINTF?PRINTF
  +--> ?PR?_INGRESADATO?PROG
  +--> ?PR?_ATOI?ATOI
BL51 BANKED LINKER/LOCATER V6.22.2.0                                                  09/03/2021  14:20:36  PAGE 11


  +--> ?PR?_WR_EEPROM?EEPROM

?PR?PROG_USE_LPR?PROG                            -----    -----      -----    -----      0046H    000CH
  +--> ?PR?_RD_EEPROM?EEPROM
  +--> ?CO?PROG
  +--> ?PR?PRINTF?PRINTF
  +--> ?PR?_INGRESADATO?PROG
  +--> ?PR?_ATOI?ATOI
  +--> ?PR?_WR_EEPROM?EEPROM

?PR?TIPO_PANTALLA?PROG                           -----    -----      -----    -----      0046H    000CH
  +--> ?PR?_RD_EEPROM?EEPROM
  +--> ?CO?PROG
  +--> ?PR?PRINTF?PRINTF
  +--> ?PR?_INGRESADATO?PROG
  +--> ?PR?_ATOI?ATOI
  +--> ?PR?_WR_EEPROM?EEPROM

?PR?PROG_TARJETA_AUTOMATICA_O_BOTON?PROG         -----    -----      -----    -----      0046H    000CH
  +--> ?PR?_RD_EEPROM?EEPROM
  +--> ?CO?PROG
  +--> ?PR?PRINTF?PRINTF
  +--> ?PR?_INGRESADATO?PROG
  +--> ?PR?_ATOI?ATOI
  +--> ?PR?_WR_EEPROM?EEPROM

?PR?PROG_ANTIPASSBACK?PROG                       -----    -----      -----    -----      0046H    000CH
  +--> ?PR?_RD_EEPROM?EEPROM
  +--> ?CO?PROG
  +--> ?PR?PRINTF?PRINTF
  +--> ?PR?_INGRESADATO?PROG
  +--> ?PR?_ATOI?ATOI
  +--> ?PR?_WR_EEPROM?EEPROM

?PR?PROG_PLACA?PROG                              -----    -----      -----    -----      0046H    000CH
  +--> ?PR?_RD_EEPROM?EEPROM
  +--> ?CO?PROG
  +--> ?PR?PRINTF?PRINTF
  +--> ?PR?_INGRESADATO?PROG
  +--> ?PR?_ATOI?ATOI
  +--> ?PR?_WR_EEPROM?EEPROM

?PR?PROG_ADDRESS_HIGH_BOARD?PROG                 -----    -----      -----    -----      0046H    000CH
  +--> ?PR?_RD_EEPROM?EEPROM
  +--> ?CO?PROG
  +--> ?PR?PRINTF?PRINTF
  +--> ?PR?_INGRESADATO?PROG
  +--> ?PR?_ATOI?ATOI
  +--> ?PR?_WR_EEPROM?EEPROM

?PR?PROG_HORARIOS?PROG                           -----    -----      -----    -----      0046H    001BH
  +--> ?PR?ADDR_HORARIOS?PROG
  +--> ?CO?PROG
  +--> ?PR?PRINTF?PRINTF
  +--> ?PR?_INGRESADATO?PROG
  +--> ?PR?_ATOI?ATOI
  +--> ?PR?_PROG_HORARIOS_ON_OFF?PROG
BL51 BANKED LINKER/LOCATER V6.22.2.0                                                  09/03/2021  14:20:36  PAGE 12


  +--> ?PR?_WR_EEPROM?EEPROM
  +--> ?PR?_PROG_HORARIO_DIAS?PROG
  +--> ?PR?_PROG_HORARIO_DESDE_HASTA?PROG
  +--> ?PR?_RD_EEPROM?EEPROM

?PR?ADDR_HORARIOS?PROG                           -----    -----      -----    -----      0074H    000BH

?PR?_PROG_HORARIOS_ON_OFF?PROG                   -----    -----      -----    -----      0061H    0010H
  +--> ?PR?_RD_EEPROM?EEPROM
  +--> ?CO?PROG
  +--> ?PR?PRINTF?PRINTF
  +--> ?PR?_INGRESADATO?PROG
  +--> ?PR?_ATOI?ATOI
  +--> ?PR?_WR_EEPROM?EEPROM

?PR?_PROG_HORARIO_DIAS?PROG                      -----    -----      -----    -----      0061H    000FH
  +--> ?CO?PROG
  +--> ?PR?PRINTF?PRINTF
  +--> ?PR?_INGRESADATO?PROG
  +--> ?PR?_WR_EEPROM?EEPROM
  +--> ?PR?_RD_EEPROM?EEPROM

?PR?_PROG_HORARIO_DESDE_HASTA?PROG               -----    -----      -----    -----      0061H    000CH
  +--> ?CO?PROG
  +--> ?PR?PRINTF?PRINTF
  +--> ?PR?_INGRESADATO?PROG
  +--> ?PR?_WR_EEPROM?EEPROM
  +--> ?PR?_RD_EEPROM?EEPROM

?PR?PROG_VALIDAR_TIPO_VEHICULO_MENSUA...         -----    -----      -----    -----      0046H    000CH
  +--> ?PR?_RD_EEPROM?EEPROM
  +--> ?CO?PROG
  +--> ?PR?PRINTF?PRINTF
  +--> ?PR?_INGRESADATO?PROG
  +--> ?PR?_ATOI?ATOI
  +--> ?PR?_WR_EEPROM?EEPROM

?PR?PROG_APB_MENSUAL?PROG                        -----    -----      -----    -----      0046H    000CH
  +--> ?PR?_RD_EEPROM?EEPROM
  +--> ?CO?PROG
  +--> ?PR?PRINTF?PRINTF
  +--> ?PR?_INGRESADATO?PROG
  +--> ?PR?_ATOI?ATOI
  +--> ?PR?_WR_EEPROM?EEPROM

?PR?PROG_MENSUALES?PROG                          -----    -----      -----    -----      0046H    000CH
  +--> ?PR?_RD_EEPROM?EEPROM
  +--> ?CO?PROG
  +--> ?PR?PRINTF?PRINTF
  +--> ?PR?_INGRESADATO?PROG
  +--> ?PR?_ATOI?ATOI
  +--> ?PR?_WR_EEPROM?EEPROM

?PR?VER_PROG?PROG                                -----    -----      -----    -----      0046H    0013H
  +--> ?PR?_RD_EEPROM?EEPROM
  +--> ?CO?PROG
  +--> ?PR?PRINTF?PRINTF
BL51 BANKED LINKER/LOCATER V6.22.2.0                                                  09/03/2021  14:20:36  PAGE 13


  +--> ?PR?VER_HORARIO?PROG
  +--> ?PR?_LEERMEMORIA?EEPROM
  +--> ?PR?_HEX_ASCII?CLOCK
  +--> ?PR?LEE_NO_TICKET?EEPROM

?PR?VER_HORARIO?PROG                             -----    -----      -----    -----      0059H    001BH
  +--> ?PR?ADDR_HORARIOS?PROG
  +--> ?CO?PROG
  +--> ?PR?PRINTF?PRINTF
  +--> ?PR?_RD_EEPROM?EEPROM
  +--> ?PR?_VER_HORARIO_DIAS?PROG
  +--> ?PR?_VER_HORARIO_DESDE_HASTA?PROG

?PR?_VER_HORARIO_DIAS?PROG                       -----    -----      -----    -----      0074H    0003H
  +--> ?PR?_RD_EEPROM?EEPROM
  +--> ?CO?PROG
  +--> ?PR?PRINTF?PRINTF

?PR?_VER_HORARIO_DESDE_HASTA?PROG                -----    -----      -----    -----      0074H    0002H
  +--> ?CO?PROG
  +--> ?PR?PRINTF?PRINTF
  +--> ?PR?_RD_EEPROM?EEPROM

?PR?_HEX_ASCII?CLOCK                             -----    -----      -----    -----      005DH    0006H
  +--> ?PR?_HEX_BCD?CLOCK

?PR?LEE_NO_TICKET?EEPROM                         -----    -----      -----    -----      0059H    000BH
  +--> ?PR?READ_EEPROM_TICKET?EEPROM
  +--> ?CO?EEPROM
  +--> ?PR?PRINTF?PRINTF
  +--> ?PR?_STRLEN?STRLEN
  +--> ?PR?_DEBUG_TXT_TIBBO?TIBBO

?PR?READ_EEPROM_TICKET?EEPROM                    -----    -----      -----    -----      0064H    0007H
  +--> ?PR?_RD_EEPROM?EEPROM

?PR?_DEBUG_TXT_TIBBO?TIBBO                       -----    -----      -----    -----      0064H    0004H
  +--> ?PR?_DEBUG_CHR_TIBBO?TIBBO
  +--> ?CO?TIBBO
  +--> ?PR?_TX_AUX?TIBBO

?PR?_DEBUG_CHR_TIBBO?TIBBO                       -----    -----      -----    -----      -----    -----
  +--> ?PR?_TX_AUX?TIBBO

?PR?SHOW?PROG                                    -----    -----      -----    -----      -----    -----
  +--> ?CO?PROG
  +--> ?PR?PRINTF?PRINTF

?PR?PROG_FECHA_VENCIMIENTO?PROG                  -----    -----      -----    -----      0046H    0017H
  +--> ?PR?_LEERMEMORIA?EEPROM
  +--> ?PR?_HEX_ASCII?CLOCK
  +--> ?CO?PROG
  +--> ?PR?PRINTF?PRINTF
  +--> ?PR?_HASH_ID?PROG
  +--> ?PR?_INGRESADATO?PROG
  +--> ?PR?_GETCMD?PROG
  +--> ?PR?_ESCRIBIRMEMORIA?EEPROM
BL51 BANKED LINKER/LOCATER V6.22.2.0                                                  09/03/2021  14:20:36  PAGE 14


  +--> ?PR?_VALIDARCLAVE?PROG
  +--> ?PR?_ATOI?ATOI
  +--> ?PR?_WR_EEPROM?EEPROM

?PR?VARIABLE_INICIO?MAIN                         -----    -----      -----    -----      -----    -----
  +--> ?PR?_RD_EEPROM?EEPROM

?PR?SECUENCIA_INICIO_EXPEDIDOR?VERIFI...         -----    -----      -----    -----      0001H    0001H
  +--> ?PR?_INICIALIZA?LINTECH
  +--> ?PR?TRAMA_VALIDACION_P_N?VERIFICADOR
  +--> ?CO?VERIFICADOR
  +--> ?PR?_DEBUG_TXT_TIBBO?TIBBO
  +--> ?PR?_DEBUGBUFFERMF?TIBBO
  +--> ?PR?DWLOAD_EEPROM?LINTECH

?PR?_INICIALIZA?LINTECH                          -----    -----      -----    -----      0002H    000CH
  +--> ?CO?LINTECH
  +--> ?PR?_DEBUG_TXT_TIBBO?TIBBO
  +--> ?PR?_DEBUGBUFFERMF?TIBBO
  +--> ?PR?_ESCRIBIRCADENASOFT_BUFFER?MAIN

?PR?_DEBUGBUFFERMF?TIBBO                         -----    -----      -----    -----      0027H    0006H
  +--> ?CO?TIBBO
  +--> ?PR?_DEBUG_TXT_TIBBO?TIBBO
  +--> ?PR?_DEBUG_CHR_TIBBO?TIBBO
  +--> ?PR?_TX_AUX?TIBBO

?PR?_ESCRIBIRCADENASOFT_BUFFER?MAIN              -----    -----      -----    -----      0027H    0006H
  +--> ?PR?_PUTCHAR?MAIN

?PR?TRAMA_VALIDACION_P_N?VERIFICADOR             -----    -----      -----    -----      -----    -----
  +--> ?CO?VERIFICADOR
  +--> ?PR?_DEBUG_TXT_TIBBO?TIBBO

?PR?DWLOAD_EEPROM?LINTECH                        -----    -----      -----    -----      0002H    0016H
  +--> ?CO?LINTECH
  +--> ?PR?_DEBUG_TXT_TIBBO?TIBBO
  +--> ?PR?_DEBUGBUFFERMF?TIBBO
  +--> ?PR?_ESCRIBIRCADENASOFT_BUFFER?MAIN

?PR?RX_MONITOR?MONITOR                           -----    -----      -----    -----      0003H    000EH
  +--> ?PR?_RECIBE_CMD_MONITOR?MONITOR
  +--> ?PR?_DEBUG_BUFFER_RS232_LCD?TIBBO
  +--> ?PR?_DEBUG_MONITOR?TIBBO
  +--> ?PR?_VALIDA_TRAMA_MONITOR?MONITOR

?PR?_RECIBE_CMD_MONITOR?MONITOR                  -----    -----      -----    -----      0011H    0009H
  +--> ?PR?RX_DATA?TIBBO

?PR?RX_DATA?TIBBO                                -----    -----      -----    -----      -----    -----
  +--> ?PR?TIME_MBIT?TIBBO
  +--> ?PR?TIME_BIT?TIBBO

?PR?_DEBUG_BUFFER_RS232_LCD?TIBBO                -----    -----      -----    -----      0011H    0006H
  +--> ?PR?_DEBUG_CHR_RS232_LCD?TIBBO
  +--> ?PR?_PUTCHAR?MAIN

BL51 BANKED LINKER/LOCATER V6.22.2.0                                                  09/03/2021  14:20:36  PAGE 15


?PR?_DEBUG_CHR_RS232_LCD?TIBBO                   -----    -----      -----    -----      0017H    0001H
  +--> ?PR?_PUTCHAR?MAIN

?PR?_DEBUG_MONITOR?TIBBO                         -----    -----      -----    -----      0011H    0004H
  +--> ?PR?DEBUG_DIVIDIR_TEXTO?TIBBO
  +--> ?CO?TIBBO
  +--> ?PR?_DEBUG_TXT_TIBBO?TIBBO

?PR?DEBUG_DIVIDIR_TEXTO?TIBBO                    -----    -----      -----    -----      -----    -----
  +--> ?CO?TIBBO
  +--> ?PR?_DEBUG_TXT_TIBBO?TIBBO

?PR?_VALIDA_TRAMA_MONITOR?MONITOR                -----    -----      -----    -----      0011H    0006H
  +--> ?PR?_DELAY_10MS?DELAY
  +--> ?PR?_TX_AUX?TIBBO

?PR?_DELAY_10MS?DELAY                            -----    -----      -----    -----      0017H    0004H
  +--> ?PR?_DELAY_1MS?DELAY

?PR?_SECUENCIAEXPEDIDORMF?VERIFICADOR            -----    -----      -----    -----      0001H    0001H
  +--> ?PR?_CHECK_STATUS?LINTECH
  +--> ?PR?_LOAD_SECUENCIA_EXPEDIDOR?VERIFIC...
  +--> ?PR?_RTA_CMD_TRANSPORTE?VERIFICADOR
  +--> ?PR?_MOV_CARD?LINTECH
  +--> ?PR?AUT_CARD_CHECK_STATUS?LINTECH
  +--> ?PR?LOADVERIFY_EEPROM?LINTECH
  +--> ?PR?_RD_MF?LINTECH
  +--> ?PR?_WR_MF?LINTECH
  +--> ?PR?_CARD_INSERCION?LINTECH
  +--> ?PR?DWLOAD_EEPROM?LINTECH
  +--> ?PR?ENTREGA_CARD_CAPTURA?VERIFICADOR
  +--> ?PR?_SEND_PTO_PARALELO?VERIFICADOR
  +--> ?PR?WAIT_PLACA?VERIFICADOR
  +--> ?PR?UNIQUE_IDENTIFIER_UID?LINTECH
  +--> ?PR?_PREGUNTA_LPR?VERIFICADOR
  +--> ?PR?PREGUNTA_PLACA_HABILITADA?VERIFIC...
  +--> ?PR?_VALIDA_TIPO_TARJETA?VERIFICADOR
  +--> ?PR?POWER_OFF?LINTECH
  +--> ?PR?CLAVE_SEGURIDAD_S2?LINTECH
  +--> ?PR?_RESPONDE_REELECTURA_TARJETA_SECT...
  +--> ?PR?ANALIZA_PRESENCIA_ROTACION?VERIFI...
  +--> ?PR?RX_MONITOR?MONITOR
  +--> ?PR?INGRESO_VEHICULO?VERIFICADOR
  +--> ?PR?RESPONDE_ESTADO_SENSORES_TRANSPOR...
  +--> ?PR?RESPONDE_TIPO_TARJETA?VERIFICADOR
  +--> ?PR?_RESPONDE_LECTURA_TARJETA_SECTOR1...
  +--> ?PR?_RESPONDE_LECTURA_TARJETA_SECTOR1...
  +--> ?PR?_RESPONDE_LECTURA_TARJETA_SECTOR1...
  +--> ?PR?_RESPONDE_WRITE_TARJETA_SECTOR1_B...
  +--> ?PR?_RESPONDE_WRITE_TARJETA_SECTOR2_B...
  +--> ?PR?_RESPONDE_WRITE_TARJETA_SECTOR1_B...
  +--> ?PR?_RESPONDE_WRITE_TARJETA_SECTOR1_B...
  +--> ?PR?_DISPARO_LOCK_ENTRADA_VEHICULO?VE...
  +--> ?PR?_RESPUESTA_SEGUNDA_CLAVE?VERIFICADOR
  +--> ?PR?_ANALIZA_UID_CARD?VERIFICADOR
  +--> ?CO?VERIFICADOR
  +--> ?PR?_DEBUG_TXT_TIBBO?TIBBO
BL51 BANKED LINKER/LOCATER V6.22.2.0                                                  09/03/2021  14:20:36  PAGE 16



?PR?_CHECK_STATUS?LINTECH                        -----    -----      -----    -----      0002H    000BH
  +--> ?CO?LINTECH
  +--> ?PR?_DEBUG_TXT_TIBBO?TIBBO
  +--> ?PR?_DEBUGBUFFERMF?TIBBO
  +--> ?PR?_ESCRIBIRCADENASOFT_BUFFER?MAIN

?PR?_LOAD_SECUENCIA_EXPEDIDOR?VERIFIC...         -----    -----      -----    -----      0002H    0009H

?PR?_RTA_CMD_TRANSPORTE?VERIFICADOR              -----    -----      -----    -----      0002H    0005H
  +--> ?PR?TRAMA_VALIDACION_P_N?VERIFICADOR
  +--> ?CO?VERIFICADOR
  +--> ?PR?_DEBUG_TXT_TIBBO?TIBBO
  +--> ?PR?_DEBUGBUFFERMF?TIBBO
  +--> ?PR?ERROR_RX_PTO?VERIFICADOR

?PR?ERROR_RX_PTO?VERIFICADOR                     -----    -----      -----    -----      0007H    0001H
  +--> ?CO?VERIFICADOR
  +--> ?PR?_DEBUG_TXT_TIBBO?TIBBO
  +--> ?PR?_DEBUG_CHR_TIBBO?TIBBO
  +--> ?PR?_DELAY_10MS?DELAY

?PR?_MOV_CARD?LINTECH                            -----    -----      -----    -----      0002H    000CH
  +--> ?CO?LINTECH
  +--> ?PR?_DEBUG_TXT_TIBBO?TIBBO
  +--> ?PR?_DEBUGBUFFERMF?TIBBO
  +--> ?PR?_ESCRIBIRCADENASOFT_BUFFER?MAIN

?PR?AUT_CARD_CHECK_STATUS?LINTECH                -----    -----      -----    -----      0002H    000BH
  +--> ?CO?LINTECH
  +--> ?PR?_DEBUG_TXT_TIBBO?TIBBO
  +--> ?PR?_DEBUGBUFFERMF?TIBBO
  +--> ?PR?_ESCRIBIRCADENASOFT_BUFFER?MAIN

?PR?LOADVERIFY_EEPROM?LINTECH                    -----    -----      -----    -----      0002H    0010H
  +--> ?CO?LINTECH
  +--> ?PR?_DEBUG_TXT_TIBBO?TIBBO
  +--> ?PR?_DEBUGBUFFERMF?TIBBO
  +--> ?PR?_ESCRIBIRCADENASOFT_BUFFER?MAIN

?PR?_RD_MF?LINTECH                               -----    -----      -----    -----      0002H    0012H
  +--> ?CO?LINTECH
  +--> ?PR?_DEBUG_TXT_TIBBO?TIBBO
  +--> ?PR?_DEBUG_CHR_TIBBO?TIBBO
  +--> ?PR?_DEBUGBUFFERMF?TIBBO
  +--> ?PR?_ESCRIBIRCADENASOFT_BUFFER?MAIN

?PR?_WR_MF?LINTECH                               -----    -----      -----    -----      0002H    0025H
  +--> ?CO?LINTECH
  +--> ?PR?_DEBUG_TXT_TIBBO?TIBBO
  +--> ?PR?_DEBUG_CHR_TIBBO?TIBBO
  +--> ?PR?_DEBUGBUFFERMF?TIBBO
  +--> ?PR?_ESCRIBIRCADENASOFT_BUFFER?MAIN

?PR?_CARD_INSERCION?LINTECH                      -----    -----      -----    -----      0002H    000AH
  +--> ?CO?LINTECH
  +--> ?PR?_DEBUG_TXT_TIBBO?TIBBO
BL51 BANKED LINKER/LOCATER V6.22.2.0                                                  09/03/2021  14:20:36  PAGE 17


  +--> ?PR?_DEBUGBUFFERMF?TIBBO
  +--> ?PR?_ESCRIBIRCADENASOFT_BUFFER?MAIN

?PR?ENTREGA_CARD_CAPTURA?VERIFICADOR             -----    -----      -----    -----      0002H    0001H
  +--> ?CO?VERIFICADOR
  +--> ?PR?_DEBUG_TXT_TIBBO?TIBBO
  +--> ?PR?SEL_SENSOR2?IO_SENSORES
  +--> ?PR?VALIDASENSOR?IO_SENSORES
  +--> ?PR?VALIDA_SENSOR1_AUTO?IO_SENSORES

?PR?VALIDA_SENSOR1_AUTO?IO_SENSORES              -----    -----      -----    -----      0012H    0001H
  +--> ?PR?SEL_SENSOR1?IO_SENSORES
  +--> ?PR?SEL_AUTO?IO_SENSORES
  +--> ?CO?IO_SENSORES
  +--> ?PR?_DEBUG_TXT_TIBBO?TIBBO
  +--> ?PR?BOTTON?IO_SENSORES

?PR?BOTTON?IO_SENSORES                           -----    -----      -----    -----      -----    -----
  +--> ?PR?SEL_PULSA?IO_SENSORES
  +--> ?CO?IO_SENSORES
  +--> ?PR?_DEBUG_TXT_TIBBO?TIBBO

?PR?_SEND_PTO_PARALELO?VERIFICADOR               -----    -----      -----    -----      0002H    0007H
  +--> ?PR?_ARMAR_TRAMA_PTO_PARALELO_EXPEDID...
  +--> ?PR?_ARMAR_TRAMA_PTO_PARALELO_EXPEDID...
  +--> ?PR?INCREMENTE_TICKET?EEPROM
  +--> ?PR?_SEND_PORT?PTO_PARALELO
  +--> ?CO?VERIFICADOR
  +--> ?PR?_DEBUG_TXT_TIBBO?TIBBO
  +--> ?PR?_DEBUGBUFFERMF?TIBBO
  +--> ?PR?CLEAR_PLACA?MONITOR

?PR?_ARMAR_TRAMA_PTO_PARALELO_EXPEDID...         -----    -----      -----    -----      0009H    0006H
  +--> ?PR?_BCD_HEX?CLOCK
  +--> ?PR?_RD_EEPROM?EEPROM

?PR?_ARMAR_TRAMA_PTO_PARALELO_EXPEDID...         -----    -----      -----    -----      0009H    0012H
  +--> ?PR?LEE_NO_TICKET?EEPROM
  +--> ?PR?_STRCAT?STRCAT
  +--> ?PR?_STRLEN?STRLEN
  +--> ?PR?_BCD_HEX?CLOCK
  +--> ?PR?_RD_EEPROM?EEPROM

?PR?INCREMENTE_TICKET?EEPROM                     -----    -----      -----    -----      0009H    000BH
  +--> ?PR?READ_EEPROM_TICKET?EEPROM
  +--> ?CO?EEPROM
  +--> ?PR?PRINTF?PRINTF
  +--> ?PR?_WRITE_EEPROM_TICKET?EEPROM

?PR?_WRITE_EEPROM_TICKET?EEPROM                  -----    -----      -----    -----      0016H    000BH
  +--> ?CO?EEPROM
  +--> ?PR?_DEBUG_TXT_TIBBO?TIBBO
  +--> ?PR?_ATOL?ATOL
  +--> ?PR?_DEBUG_CHR_TIBBO?TIBBO
  +--> ?PR?_WR_EEPROM?EEPROM

?PR?_ATOL?ATOL                                   0020H.0  0000H.1    -----    -----      0021H    0007H
BL51 BANKED LINKER/LOCATER V6.22.2.0                                                  09/03/2021  14:20:36  PAGE 18


  +--> ?PR?_ISSPACE?ISSPACE
  +--> ?PR?_ISDIGIT?ISDIGIT

?PR?_SEND_PORT?PTO_PARALELO                      -----    -----      -----    -----      0016H    000AH
  +--> ?PR?PULSO_BUS?PTO_PARALELO
  +--> ?PR?_DELAY_20US?DELAY

?PR?PULSO_BUS?PTO_PARALELO                       -----    -----      -----    -----      -----    -----
  +--> ?PR?_DELAY_20US?DELAY

?PR?WAIT_PLACA?VERIFICADOR                       -----    -----      -----    -----      0002H    0001H
  +--> ?CO?VERIFICADOR
  +--> ?PR?_DEBUG_TXT_TIBBO?TIBBO
  +--> ?PR?RX_MONITOR?MONITOR
  +--> ?PR?RESPUESTA_PLACA_CANCEL?VERIFICADOR

?PR?RESPUESTA_PLACA_CANCEL?VERIFICADOR           -----    -----      -----    -----      0003H    0004H
  +--> ?CO?VERIFICADOR
  +--> ?PR?_DEBUG_TXT_TIBBO?TIBBO
  +--> ?PR?_DEBUG_TXT_RS232?TIBBO

?PR?_DEBUG_TXT_RS232?TIBBO                       -----    -----      -----    -----      0007H    0005H
  +--> ?PR?_PUTCHAR?MAIN

?PR?UNIQUE_IDENTIFIER_UID?LINTECH                -----    -----      -----    -----      0002H    000BH
  +--> ?CO?LINTECH
  +--> ?PR?_DEBUG_TXT_TIBBO?TIBBO
  +--> ?PR?_DEBUGBUFFERMF?TIBBO
  +--> ?PR?_ESCRIBIRCADENASOFT_BUFFER?MAIN

?PR?_PREGUNTA_LPR?VERIFICADOR                    -----    -----      -----    -----      0002H    0007H
  +--> ?CO?VERIFICADOR
  +--> ?PR?_DEBUG_TXT_TIBBO?TIBBO
  +--> ?PR?_HORA_ENTRADA_VEHICULO?CLOCK
  +--> ?PR?_RD_EEPROM?EEPROM
  +--> ?PR?_ARMAR_TRAMA_MONITOR?VERIFICADOR

?PR?_HORA_ENTRADA_VEHICULO?CLOCK                 -----    -----      -----    -----      0009H    0003H
  +--> ?PR?_LEE_CLK?CLOCK

?PR?_ARMAR_TRAMA_MONITOR?VERIFICADOR             -----    -----      -----    -----      0009H    000FH
  +--> ?PR?DIR_BOARD_MONITOR?IO_SENSORES
  +--> ?PR?LEE_NO_TICKET?EEPROM
  +--> ?PR?_STRCAT?STRCAT
  +--> ?PR?_BYTEHEX_DECIMAL?CLOCK
  +--> ?PR?_STRLEN?STRLEN
  +--> ?PR?_TWO_BYTEHEX_DECIMAL?CLOCK

?PR?DIR_BOARD_MONITOR?IO_SENSORES                -----    -----      -----    -----      -----    -----
  +--> ?PR?_RD_EEPROM?EEPROM

?PR?_BYTEHEX_DECIMAL?CLOCK                       -----    -----      -----    -----      0018H    0001H

?PR?_TWO_BYTEHEX_DECIMAL?CLOCK                   -----    -----      -----    -----      0018H    000CH
  +--> ?PR?_POW?POW

?PR?_POW?POW                                     -----    -----      -----    -----      0024H    000AH
BL51 BANKED LINKER/LOCATER V6.22.2.0                                                  09/03/2021  14:20:36  PAGE 19


  +--> ?PR?LOG?LOG
  +--> ?PR?EXP?EXP

?PR?LOG?LOG                                      0020H.0  0000H.1    -----    -----      002EH    0004H

?PR?PREGUNTA_PLACA_HABILITADA?VERIFIC...         -----    -----      -----    -----      0002H    0001H
  +--> ?CO?VERIFICADOR
  +--> ?PR?_DEBUG_TXT_TIBBO?TIBBO
  +--> ?PR?_RD_EEPROM?EEPROM

?PR?_VALIDA_TIPO_TARJETA?VERIFICADOR             -----    -----      -----    -----      0002H    0007H
  +--> ?CO?VERIFICADOR
  +--> ?PR?_DEBUG_TXT_TIBBO?TIBBO
  +--> ?PR?_RD_EEPROM?EEPROM
  +--> ?PR?_SEND_PORTERR?PTO_PARALELO
  +--> ?PR?_TARJETA_ROTACION?VERIFICADOR
  +--> ?PR?_PANTALLALCD?PANTALLAS

?PR?_SEND_PORTERR?PTO_PARALELO                   -----    -----      -----    -----      0018H    0006H
  +--> ?PR?PULSO_BUS?PTO_PARALELO
  +--> ?PR?_DELAY_20US?DELAY

?PR?_TARJETA_ROTACION?VERIFICADOR                -----    -----      -----    -----      0009H    0006H
  +--> ?PR?_ARMAR_TRAMA_TARJETA_SECTOR1_BLOQ...

?PR?_ARMAR_TRAMA_TARJETA_SECTOR1_BLOQ...         -----    -----      -----    -----      000FH    0006H
  +--> ?PR?_BCD_HEX?CLOCK
  +--> ?PR?DIR_BOARD?IO_SENSORES

?PR?DIR_BOARD?IO_SENSORES                        -----    -----      -----    -----      0033H    0001H
  +--> ?PR?SEL_DIR1?IO_SENSORES
  +--> ?PR?SEL_DIR2?IO_SENSORES
  +--> ?PR?_RD_EEPROM?EEPROM

?PR?_PANTALLALCD?PANTALLAS                       -----    -----      -----    -----      0018H    0030H
  +--> ?CO?PANTALLAS
  +--> ?PR?_LCD_TXT?PANTALLAS
  +--> ?PR?_STRLEN?STRLEN
  +--> ?PR?_TX_CHRLCD?PANTALLAS
  +--> ?PR?_RASPBERRY_DATA?PANTALLAS

?PR?_LCD_TXT?PANTALLAS                           -----    -----      -----    -----      0048H    0005H
  +--> ?PR?_TX_CHRLCD?PANTALLAS

?PR?_TX_CHRLCD?PANTALLAS                         -----    -----      -----    -----      004DH    0002H
  +--> ?PR?_PUTCHAR?MAIN

?PR?_RASPBERRY_DATA?PANTALLAS                    -----    -----      -----    -----      0048H    0006H
  +--> ?PR?_STRLEN?STRLEN
  +--> ?PR?_PUTCHAR?MAIN

?PR?POWER_OFF?LINTECH                            -----    -----      -----    -----      0002H    000BH
  +--> ?CO?LINTECH
  +--> ?PR?_DEBUG_TXT_TIBBO?TIBBO
  +--> ?PR?_DEBUGBUFFERMF?TIBBO
  +--> ?PR?_ESCRIBIRCADENASOFT_BUFFER?MAIN

BL51 BANKED LINKER/LOCATER V6.22.2.0                                                  09/03/2021  14:20:36  PAGE 20


?PR?CLAVE_SEGURIDAD_S2?LINTECH                   -----    -----      -----    -----      0002H    0016H
  +--> ?CO?LINTECH
  +--> ?PR?_DEBUG_TXT_TIBBO?TIBBO
  +--> ?PR?_DEBUGBUFFERMF?TIBBO
  +--> ?PR?_ESCRIBIRCADENASOFT_BUFFER?MAIN

?PR?_RESPONDE_REELECTURA_TARJETA_SECT...         -----    -----      -----    -----      0002H    000AH
  +--> ?CO?VERIFICADOR
  +--> ?PR?_DEBUG_TXT_TIBBO?TIBBO
  +--> ?PR?_DEBUGBUFFERMF?TIBBO
  +--> ?PR?_ARMAR_TRAMA_TARJETA_SECTOR1_BLOQ...

?PR?_ARMAR_TRAMA_TARJETA_SECTOR1_BLOQ...         -----    -----      -----    -----      000CH    0003H
  +--> ?PR?LEE_NO_TICKET?EEPROM

?PR?ANALIZA_PRESENCIA_ROTACION?VERIFI...         -----    -----      -----    -----      0002H    0001H
  +--> ?PR?VALIDASENSORESPASO?IO_SENSORES
  +--> ?PR?_SEND_PORTERR?PTO_PARALELO
  +--> ?PR?_PANTALLALCD?PANTALLAS

?PR?VALIDASENSORESPASO?IO_SENSORES               -----    -----      -----    -----      0011H    0001H
  +--> ?PR?SEL_SENSOR2?IO_SENSORES
  +--> ?PR?VALIDASENSOR?IO_SENSORES
  +--> ?PR?VALIDA_SENSOR1_AUTO?IO_SENSORES
  +--> ?CO?IO_SENSORES
  +--> ?PR?_DEBUG_TXT_TIBBO?TIBBO

?PR?INGRESO_VEHICULO?VERIFICADOR                 -----    -----      -----    -----      0002H    0001H
  +--> ?CO?VERIFICADOR
  +--> ?PR?_DEBUG_TXT_TIBBO?TIBBO
  +--> ?PR?VALIDASENSORESPASO?IO_SENSORES
  +--> ?PR?_RD_EEPROM?EEPROM
  +--> ?PR?RX_MONITOR?MONITOR
  +--> ?PR?_SEND_PORTERR?PTO_PARALELO
  +--> ?PR?_PANTALLALCD?PANTALLAS
  +--> ?PR?BOTTON?IO_SENSORES

?PR?RESPONDE_ESTADO_SENSORES_TRANSPOR...         -----    -----      -----    -----      0002H    0001H
  +--> ?CO?VERIFICADOR
  +--> ?PR?_DEBUG_TXT_TIBBO?TIBBO
  +--> ?PR?_SEND_PORTERR?PTO_PARALELO

?PR?RESPONDE_TIPO_TARJETA?VERIFICADOR            -----    -----      -----    -----      0002H    0001H
  +--> ?CO?VERIFICADOR
  +--> ?PR?_DEBUG_TXT_TIBBO?TIBBO
  +--> ?PR?_SEND_PORTERR?PTO_PARALELO
  +--> ?PR?_PANTALLALCD?PANTALLAS

?PR?_RESPONDE_LECTURA_TARJETA_SECTOR1...         -----    -----      -----    -----      0002H    0016H
  +--> ?CO?VERIFICADOR
  +--> ?PR?_DEBUG_TXT_TIBBO?TIBBO
  +--> ?PR?_DEBUGBUFFERMF?TIBBO
  +--> ?PR?_RD_EEPROM?EEPROM
  +--> ?PR?_DEBUG_HEXDEC?TIBBO
  +--> ?PR?_DEBUG_CHR_TIBBO?TIBBO
  +--> ?PR?_SEND_PORTERR?PTO_PARALELO
  +--> ?PR?_PANTALLALCD?PANTALLAS
BL51 BANKED LINKER/LOCATER V6.22.2.0                                                  09/03/2021  14:20:36  PAGE 21



?PR?_DEBUG_HEXDEC?TIBBO                          -----    -----      -----    -----      0018H    0002H
  +--> ?PR?_TX_AUX?TIBBO

?PR?_RESPONDE_LECTURA_TARJETA_SECTOR1...         -----    -----      -----    -----      0002H    0004H
  +--> ?CO?VERIFICADOR
  +--> ?PR?_DEBUG_TXT_TIBBO?TIBBO

?PR?_RESPONDE_LECTURA_TARJETA_SECTOR1...         -----    -----      -----    -----      0002H    0015H
  +--> ?CO?VERIFICADOR
  +--> ?PR?_DEBUG_TXT_TIBBO?TIBBO
  +--> ?PR?_DEBUGBUFFERMF?TIBBO
  +--> ?PR?_DEBUG_CHR_TIBBO?TIBBO

?PR?_RESPONDE_WRITE_TARJETA_SECTOR1_B...         -----    -----      -----    -----      0002H    0007H
  +--> ?CO?VERIFICADOR
  +--> ?PR?_DEBUG_TXT_TIBBO?TIBBO
  +--> ?PR?_DEBUGBUFFERMF?TIBBO
  +--> ?PR?_ARMAR_TRAMA_TARJETA_SECTOR1_BLOQ...

?PR?_RESPONDE_WRITE_TARJETA_SECTOR2_B...         -----    -----      -----    -----      0002H    0003H
  +--> ?CO?VERIFICADOR
  +--> ?PR?_DEBUG_TXT_TIBBO?TIBBO
  +--> ?PR?_DEBUGBUFFERMF?TIBBO

?PR?_RESPONDE_WRITE_TARJETA_SECTOR1_B...         -----    -----      -----    -----      0002H    0003H
  +--> ?CO?VERIFICADOR
  +--> ?PR?_DEBUG_TXT_TIBBO?TIBBO
  +--> ?PR?_DEBUGBUFFERMF?TIBBO

?PR?_RESPONDE_WRITE_TARJETA_SECTOR1_B...         -----    -----      -----    -----      0002H    0003H
  +--> ?CO?VERIFICADOR
  +--> ?PR?_DEBUG_TXT_TIBBO?TIBBO
  +--> ?PR?_DEBUGBUFFERMF?TIBBO

?PR?_DISPARO_LOCK_ENTRADA_VEHICULO?VE...         -----    -----      -----    -----      0002H    0004H
  +--> ?CO?VERIFICADOR
  +--> ?PR?_DEBUG_TXT_TIBBO?TIBBO
  +--> ?PR?_SEND_PORTERR?PTO_PARALELO
  +--> ?PR?_PANTALLALCD_LINEA_2?PANTALLAS
  +--> ?PR?VALIDA_SENSOR1_AUTO?IO_SENSORES
  +--> ?PR?_PANTALLALCD?PANTALLAS

?PR?_PANTALLALCD_LINEA_2?PANTALLAS               -----    -----      -----    -----      0011H    0033H
  +--> ?CO?PANTALLAS
  +--> ?PR?_LCD_TXT?PANTALLAS
  +--> ?PR?_STRLEN?STRLEN
  +--> ?PR?_TX_CHRLCD?PANTALLAS
  +--> ?PR?_RASPBERRY_DATA?PANTALLAS
  +--> ?PR?LEE_NO_TICKET?EEPROM
  +--> ?PR?_STRCAT?STRCAT

?PR?_RESPUESTA_SEGUNDA_CLAVE?VERIFICADOR         -----    -----      -----    -----      0002H    0006H
  +--> ?CO?VERIFICADOR
  +--> ?PR?_DEBUG_TXT_TIBBO?TIBBO
  +--> ?PR?_DEBUGBUFFERMF?TIBBO
  +--> ?PR?_ARMAR_TRAMA_PLACA?VERIFICADOR
BL51 BANKED LINKER/LOCATER V6.22.2.0                                                  09/03/2021  14:20:36  PAGE 22



?PR?_ARMAR_TRAMA_PLACA?VERIFICADOR               -----    -----      -----    -----      0008H    0004H
  +--> ?PR?_STRLEN?STRLEN
  +--> ?CO?VERIFICADOR

?PR?_ANALIZA_UID_CARD?VERIFICADOR                -----    -----      -----    -----      0002H    0015H
  +--> ?CO?VERIFICADOR
  +--> ?PR?_DEBUG_TXT_TIBBO?TIBBO
  +--> ?PR?_DEBUGBUFFERMF?TIBBO
  +--> ?PR?_DEBUG_CHR_TIBBO?TIBBO

?PR?_RECIBE_PORT?PTO_PARALELO                    -----    -----      -----    -----      0001H    0008H
  +--> ?PR?OFF_TIMER0_INTERRUP?MAIN
  +--> ?PR?ON_TIMER0_INTERRUP?MAIN

?PR?_DEBUG_PTO_PARALELO?TIBBO                    -----    -----      -----    -----      0001H    0004H
  +--> ?CO?TIBBO
  +--> ?PR?_DEBUG_TXT_TIBBO?TIBBO
  +--> ?PR?_DEBUGBUFFERMF?TIBBO
  +--> ?PR?DEBUG_DIVIDIR_TEXTO?TIBBO

?PR?_VALIDA_TRAMA_PTO?ACCESCAN                   -----    -----      -----    -----      0001H    0010H
  +--> ?CO?ACCESCAN
  +--> ?PR?_DEBUG_TXT_TIBBO?TIBBO
  +--> ?PR?_DEBUG_CHR_TIBBO?TIBBO
  +--> ?PR?_VALIDAR_CLK?CLOCK
  +--> ?PR?_BLOCK_WRITE_CLOCK_ASCII?CLOCK
  +--> ?PR?RELOJ_PANTALLA_LCD?PANTALLAS
  +--> ?PR?_SEND_PORT?PTO_PARALELO
  +--> ?PR?_PANTALLALCD?PANTALLAS
  +--> ?PR?_BYTEHEX_DECIMAL?CLOCK
  +--> ?PR?_TWO_BYTEHEX_DECIMAL?CLOCK
  +--> ?PR?VALIDASENSORESPASO?IO_SENSORES
  +--> ?PR?_CMD_LPR_SALIDA_WIEGAND?ACCESCAN
  +--> ?PR?_PANTALLALCD_LINEA_2?PANTALLAS
  +--> ?PR?_GRABA_SERIE?EEPROM

?PR?_BLOCK_WRITE_CLOCK_ASCII?CLOCK               -----    -----      -----    -----      0011H    0003H
  +--> ?CO?CLOCK
  +--> ?PR?_DEBUG_TXT_TIBBO?TIBBO
  +--> ?PR?_TWO_ONE?CLOCK
  +--> ?PR?_WR_CLK?CLOCK

?PR?_WR_CLK?CLOCK                                -----    -----      -----    -----      0014H    0002H
  +--> ?PR?_DELAY_20US?DELAY
  +--> ?PR?_EB_CLK?CLOCK

?PR?RELOJ_PANTALLA_LCD?PANTALLAS                 -----    -----      -----    -----      0011H    000DH
  +--> ?CO?PANTALLAS
  +--> ?PR?_BLOCK_READ_CLOCK?CLOCK
  +--> ?PR?_LCD_TXT_NUM_CHAR?PANTALLAS
  +--> ?PR?_BLOCK_READ_CLOCK_ASCII_RASBERRY?...
  +--> ?PR?_STRCAT?STRCAT
  +--> ?PR?_RASPBERRY_DATA?PANTALLAS

?PR?_BLOCK_READ_CLOCK?CLOCK                      -----    -----      -----    -----      001EH    0003H
  +--> ?PR?_LEE_CLK?CLOCK
BL51 BANKED LINKER/LOCATER V6.22.2.0                                                  09/03/2021  14:20:36  PAGE 23



?PR?_LCD_TXT_NUM_CHAR?PANTALLAS                  -----    -----      -----    -----      001EH    0006H
  +--> ?PR?_TX_CHRLCD?PANTALLAS

?PR?_BLOCK_READ_CLOCK_ASCII_RASBERRY?...         -----    -----      -----    -----      001EH    0003H
  +--> ?PR?_LEE_CLK?CLOCK

?PR?_CMD_LPR_SALIDA_WIEGAND?ACCESCAN             -----    -----      -----    -----      0011H    0022H
  +--> ?PR?DIR_BOARD?IO_SENSORES
  +--> ?PR?_BLOCK_READ_CLOCK_ASCII?CLOCK
  +--> ?PR?_MONITOR_CHR?ACCESCAN

?PR?_MONITOR_CHR?ACCESCAN                        -----    -----      -----    -----      0033H    0005H
  +--> ?PR?_TX_AUX?TIBBO

?PR?_GRABA_SERIE?EEPROM                          -----    -----      -----    -----      0011H    0005H
  +--> ?CO?EEPROM
  +--> ?PR?_DEBUG_TXT_TIBBO?TIBBO
  +--> ?PR?_WRITE_EEPROM_TICKET?EEPROM
  +--> ?PR?_WR_EEPROM?EEPROM

?PR?MSJ_LCD_INFORMATIVO?IO_SENSORES              -----    -----      -----    -----      0001H    0001H
  +--> ?PR?SEL_FUNCION?IO_SENSORES
  +--> ?PR?VALIDASENSOR_CERO?IO_SENSORES
  +--> ?CO?IO_SENSORES
  +--> ?PR?_DEBUG_TXT_TIBBO?TIBBO
  +--> ?PR?_DEBUG_CHR_TIBBO?TIBBO
  +--> ?PR?LOAD_AND_SEND_INFO_RELOJ?PTO_PARA...
  +--> ?PR?VALIDASENSOR?IO_SENSORES
  +--> ?PR?_DELAY_10MS?DELAY
  +--> ?PR?LOAD_AND_SEND_ID_COD?PTO_PARALELO

?PR?LOAD_AND_SEND_INFO_RELOJ?PTO_PARA...         -----    -----      -----    -----      0002H    000BH
  +--> ?PR?_BLOCK_READ_CLOCK?CLOCK
  +--> ?PR?_LEE_CLK?CLOCK
  +--> ?CO?PTO_PARALELO
  +--> ?PR?_DEBUG_TXT_TIBBO?TIBBO
  +--> ?PR?_DEBUGBUFFERMF?TIBBO
  +--> ?PR?DEBUG_DIVIDIR_TEXTO?TIBBO
  +--> ?PR?_SEND_PORT?PTO_PARALELO

?PR?LOAD_AND_SEND_ID_COD?PTO_PARALELO            -----    -----      -----    -----      0002H    0014H
  +--> ?PR?_RD_EEPROM?EEPROM
  +--> ?CO?PTO_PARALELO
  +--> ?PR?PRINTF?PRINTF
  +--> ?PR?_STRCAT?STRCAT
  +--> ?PR?_STRLEN?STRLEN
  +--> ?PR?_DEBUG_TXT_TIBBO?TIBBO
  +--> ?PR?_DEBUGBUFFERMF?TIBBO
  +--> ?PR?DEBUG_DIVIDIR_TEXTO?TIBBO
  +--> ?PR?_SEND_PORT?PTO_PARALELO



SYMBOL TABLE OF MODULE:  .\Objects\expedidor_v_101 (MAIN)

  VALUE           TYPE          NAME
BL51 BANKED LINKER/LOCATER V6.22.2.0                                                  09/03/2021  14:20:36  PAGE 24


  ----------------------------------

  -------         MODULE        MAIN
  C:0000H         SYMBOL        _ICE_DUMMY_
  X:0171H         PUBLIC        STX
  D:0080H         PUBLIC        P0
  D:0090H         PUBLIC        P1
  C:B959H         PUBLIC        timer0_int
  D:00B0H         PUBLIC        P3
  B:00A8H.7       PUBLIC        EA
  B:0080H.2       PUBLIC        led_err_imp
  C:BCEEH         PUBLIC        off_Timer0_Interrup
  X:0172H         PUBLIC        ValTimeOutCom
  X:0173H         PUBLIC        Buffer_Rta_Lintech
  X:01A5H         PUBLIC        Timer_wait
  B:0021H.1       PUBLIC        pto_paraleo
  X:01A6H         PUBLIC        g_cContByteRx
  B:0080H.0       PUBLIC        rx_ip
  C:A6D6H         PUBLIC        main
  X:01A7H         PUBLIC        Timer_tivo
  B:0080H.3       PUBLIC        Atascado_GP0_PIN_3
  C:AEF0H         PUBLIC        variable_inicio
  B:0090H.7       PUBLIC        lock
  I:0023H         PUBLIC        rbuf
  C:BCE4H         PUBLIC        on_Timer0_Interrup
  I:0055H         PUBLIC        tbuf
  B:0090H.1       PUBLIC        DataIn
  D:0089H         PUBLIC        TMOD
  X:01A9H         PUBLIC        USE_LPR
  X:01AAH         PUBLIC        Debug_Tibbo
  X:01ABH         PUBLIC        Raspberry
  X:01ACH         PUBLIC        SIN_COBRO
  X:01AEH         PUBLIC        Tipo_Vehiculo
  B:00B0H.3       PUBLIC        busy
  C:BC3EH         PUBLIC        ini_timer
  B:00A8H.1       PUBLIC        ET0
  X:01AFH         PUBLIC        precarga
  B:0088H.5       PUBLIC        TF0
  D:008CH         PUBLIC        TH0
  X:01B0H         PUBLIC        ACK
  X:01B1H         PUBLIC        g_cEstadoComSoft
  D:008AH         PUBLIC        TL0
  B:0088H.4       PUBLIC        TR0
  C:BC4EH         PUBLIC        inicia_board
  X:01B2H         PUBLIC        T_GRACIA
  B:0080H.7       PUBLIC        sel_com
  X:01B4H         PUBLIC        STX_LINTECH
  C:BC7DH         PUBLIC        _getkey
  X:01B5H         PUBLIC        ETX
  C:B1D3H         PUBLIC        _EscribirCadenaSoft_buffer
  B:0021H.2       PUBLIC        buffer_ready
  C:B4F0H         PUBLIC        _putchar
  B:0021H.3       PUBLIC        placa_ready
  -------         PROC          TIMER0_INT
  C:B959H         LINE#         16
  C:B95FH         LINE#         19
  C:B965H         LINE#         20
BL51 BANKED LINKER/LOCATER V6.22.2.0                                                  09/03/2021  14:20:36  PAGE 25


  C:B96AH         LINE#         21
  C:B96AH         LINE#         22
  C:B970H         LINE#         23
  C:B970H         LINE#         25
  C:B97EH         LINE#         26
  C:B980H         LINE#         28
  -------         ENDPROC       TIMER0_INT
  -------         PROC          INI_TIMER
  C:BC3EH         LINE#         31
  C:BC3EH         LINE#         32
  C:BC3EH         LINE#         34
  C:BC46H         LINE#         36
  C:BC49H         LINE#         37
  C:BC4BH         LINE#         38
  C:BC4DH         LINE#         40
  -------         ENDPROC       INI_TIMER
  -------         PROC          ON_TIMER0_INTERRUP
  C:BCE4H         LINE#         43
  C:BCE4H         LINE#         44
  C:BCE4H         LINE#         45
  C:BCE6H         LINE#         46
  C:BCE8H         LINE#         48
  -------         ENDPROC       ON_TIMER0_INTERRUP
  -------         PROC          OFF_TIMER0_INTERRUP
  C:BCEEH         LINE#         51
  C:BCEEH         LINE#         52
  C:BCEEH         LINE#         53
  C:BCF0H         LINE#         55
  -------         ENDPROC       OFF_TIMER0_INTERRUP
  -------         PROC          _GETKEY
  -------         DO            
  D:0006H         SYMBOL        k
  -------         ENDDO         
  C:BC7DH         LINE#         63
  C:BC7DH         LINE#         64
  C:BC7DH         LINE#         68
  C:BC7DH         LINE#         69
  C:BC80H         LINE#         70
  C:BC80H         LINE#         71
  C:BC88H         LINE#         73
  C:BC88H         LINE#         74
  -------         ENDPROC       _GETKEY
  -------         PROC          _PUTCHAR
  X:00A7H         SYMBOL        c
  -------         DO            
  X:00A8H         SYMBOL        i
  -------         ENDDO         
  C:B4F0H         LINE#         78
  C:B4F5H         LINE#         79
  C:B4F5H         LINE#         82
  C:B504H         LINE#         83
  C:B504H         LINE#         84
  C:B51AH         LINE#         85
  C:B51AH         LINE#         87
  C:B528H         LINE#         88
  C:B528H         LINE#         90
  C:B52DH         LINE#         91
BL51 BANKED LINKER/LOCATER V6.22.2.0                                                  09/03/2021  14:20:36  PAGE 26


  -------         ENDPROC       _PUTCHAR
  -------         PROC          _ESCRIBIRCADENASOFT_BUFFER
  X:0027H         SYMBOL        buffer
  X:002AH         SYMBOL        tamano_cadena
  -------         DO            
  X:002BH         SYMBOL        i
  X:002CH         SYMBOL        d
  -------         ENDDO         
  C:B1D3H         LINE#         95
  C:B1E1H         LINE#         96
  C:B1E1H         LINE#         98
  C:B1EFH         LINE#         99
  C:B1EFH         LINE#         100
  C:B206H         LINE#         101
  C:B210H         LINE#         102
  C:B218H         LINE#         103
  -------         ENDPROC       _ESCRIBIRCADENASOFT_BUFFER
  -------         PROC          INICIA_BOARD
  C:BC4EH         LINE#         108
  C:BC4EH         LINE#         109
  C:BC4EH         LINE#         110
  C:BC51H         LINE#         111
  C:BC54H         LINE#         112
  C:BC57H         LINE#         113
  C:BC59H         LINE#         114
  C:BC5BH         LINE#         115
  C:BC5DH         LINE#         117
  -------         ENDPROC       INICIA_BOARD
  -------         PROC          VARIABLE_INICIO
  C:AEF0H         LINE#         122
  C:AEF0H         LINE#         123
  C:AEF0H         LINE#         126
  C:AF01H         LINE#         127
  C:AF12H         LINE#         128
  C:AF20H         LINE#         129
  C:AF2EH         LINE#         130
  C:AF3CH         LINE#         134
  -------         ENDPROC       VARIABLE_INICIO
  -------         PROC          MAIN
  -------         DO            
  X:0148H         SYMBOL        buffer
  X:0170H         SYMBOL        Estado_Comunicacion_Secuencia_MF
  X:0000H         SYMBOL        Length_trama
  -------         ENDDO         
  C:A6D6H         LINE#         142
  C:A6D6H         LINE#         143
  C:A6D6H         LINE#         150
  C:A6D9H         LINE#         151
  C:A6DCH         LINE#         152
  C:A6DFH         LINE#         153
  C:A6E2H         LINE#         154
  C:A6E5H         LINE#         155
  C:A6E7H         LINE#         157
  C:A6EAH         LINE#         158
  C:A6F1H         LINE#         159
  C:A6F4H         LINE#         161
  C:A6F9H         LINE#         162
BL51 BANKED LINKER/LOCATER V6.22.2.0                                                  09/03/2021  14:20:36  PAGE 27


  C:A6FBH         LINE#         163
  C:A6FEH         LINE#         165
  C:A701H         LINE#         166
  C:A701H         LINE#         167
  C:A704H         LINE#         168
  C:A704H         LINE#         171
  C:A707H         LINE#         172
  C:A70DH         LINE#         173
  C:A713H         LINE#         175
  C:A713H         LINE#         176
  C:A713H         LINE#         178
  C:A716H         LINE#         179
  C:A716H         LINE#         180
  C:A719H         LINE#         181
  C:A719H         LINE#         185
  C:A726H         LINE#         190
  C:A72CH         LINE#         191
  C:A72CH         LINE#         193
  C:A73BH         LINE#         196
  C:A744H         LINE#         197
  C:A752H         LINE#         202
  C:A752H         LINE#         203
  C:A755H         LINE#         206
  -------         ENDPROC       MAIN
  -------         ENDMOD        MAIN

  -------         MODULE        ACCESCAN
  C:0000H         SYMBOL        _ICE_DUMMY_
  D:0080H         PUBLIC        P0
  D:0090H         PUBLIC        P1
  D:00B0H         PUBLIC        P3
  C:B36EH         PUBLIC        _Monitor_chr
  B:0080H.3       PUBLIC        Atascado_GP0_PIN_3
  B:0090H.7       PUBLIC        lock
  C:338CH         PUBLIC        _Valida_Trama_Pto
  C:8994H         PUBLIC        _Cmd_LPR_Salida_wiegand
  -------         PROC          _VALIDA_TRAMA_PTO
  X:0001H         SYMBOL        buffer
  X:0004H         SYMBOL        length_trama
  -------         DO            
  X:021DH         SYMBOL        cont
  X:0005H         SYMBOL        bcc
  D:0004H         SYMBOL        j
  X:0006H         SYMBOL        buff
  -------         ENDDO         
  C:338CH         LINE#         113
  C:339AH         LINE#         114
  C:339AH         LINE#         117
  C:339DH         LINE#         123
  C:33E0H         LINE#         124
  C:33E0H         LINE#         125
  C:33E9H         LINE#         126
  C:33FEH         LINE#         127
  C:3407H         LINE#         128
  C:3414H         LINE#         129
  C:3414H         LINE#         130
  C:3430H         LINE#         131
BL51 BANKED LINKER/LOCATER V6.22.2.0                                                  09/03/2021  14:20:36  PAGE 28


  C:3433H         LINE#         133
  C:343CH         LINE#         134
  C:3444H         LINE#         135
  C:344DH         LINE#         136
  C:3466H         LINE#         137
  C:3466H         LINE#         139
  C:3476H         LINE#         140
  C:3476H         LINE#         141
  C:3489H         LINE#         143
  C:348CH         LINE#         145
  C:348CH         LINE#         148
  C:348CH         LINE#         150
  C:348CH         LINE#         152
  C:3492H         LINE#         153
  C:3496H         LINE#         154
  C:349AH         LINE#         155
  C:349DH         LINE#         156
  C:34A8H         LINE#         158
  C:34B1H         LINE#         159
  C:34B9H         LINE#         160
  C:34C1H         LINE#         161
  C:34C9H         LINE#         162
  C:34D2H         LINE#         163
  C:34D2H         LINE#         166
  C:34D2H         LINE#         169
  C:34E4H         LINE#         170
  C:34E4H         LINE#         171
  C:34E6H         LINE#         172
  C:34E9H         LINE#         174
  C:34FBH         LINE#         175
  C:34FBH         LINE#         176
  C:34FDH         LINE#         177
  C:3500H         LINE#         179
  C:3512H         LINE#         180
  C:3512H         LINE#         181
  C:3514H         LINE#         182
  C:3517H         LINE#         184
  C:3531H         LINE#         185
  C:3531H         LINE#         186
  C:3533H         LINE#         187
  C:3536H         LINE#         189
  C:3550H         LINE#         190
  C:3550H         LINE#         191
  C:3552H         LINE#         192
  C:3555H         LINE#         194
  C:3567H         LINE#         195
  C:3567H         LINE#         196
  C:356DH         LINE#         197
  C:357AH         LINE#         198
  C:357AH         LINE#         199
  C:357FH         LINE#         201
  C:3584H         LINE#         202
  C:3586H         LINE#         203
  C:3588H         LINE#         204
  C:358CH         LINE#         205
  C:358CH         LINE#         206
  C:358DH         LINE#         208
BL51 BANKED LINKER/LOCATER V6.22.2.0                                                  09/03/2021  14:20:36  PAGE 29


  C:35A5H         LINE#         209
  C:35A5H         LINE#         211
  C:35B2H         LINE#         212
  C:35B2H         LINE#         213
  C:35B4H         LINE#         214
  C:35B6H         LINE#         216
  C:35B8H         LINE#         217
  C:35B8H         LINE#         219
  C:35DEH         LINE#         220
  C:35DEH         LINE#         221
  C:35E2H         LINE#         222
  C:35E7H         LINE#         223
  C:35F0H         LINE#         224
  C:35F5H         LINE#         225
  C:35F5H         LINE#         228
  C:35F6H         LINE#         230
  C:3610H         LINE#         231
  C:3610H         LINE#         232
  C:3612H         LINE#         233
  C:3615H         LINE#         235
  C:3648H         LINE#         236
  C:3648H         LINE#         238
  C:3648H         LINE#         240
  C:3662H         LINE#         241
  C:3662H         LINE#         242
  C:3664H         LINE#         243
  C:3667H         LINE#         245
  C:3681H         LINE#         246
  C:3681H         LINE#         247
  C:3683H         LINE#         248
  C:3685H         LINE#         250
  C:369FH         LINE#         251
  C:369FH         LINE#         252
  C:36A1H         LINE#         253
  C:36A3H         LINE#         256
  C:36BDH         LINE#         257
  C:36BDH         LINE#         258
  C:36BFH         LINE#         259
  C:36C1H         LINE#         263
  C:36DBH         LINE#         264
  C:36DBH         LINE#         265
  C:36DDH         LINE#         266
  C:36DFH         LINE#         269
  C:36F9H         LINE#         270
  C:36F9H         LINE#         271
  C:36FEH         LINE#         272
  C:36FEH         LINE#         275
  C:372FH         LINE#         276
  C:372FH         LINE#         277
  C:3737H         LINE#         278
  C:3740H         LINE#         279
  C:3743H         LINE#         282
  C:3774H         LINE#         283
  C:3774H         LINE#         285
  C:377CH         LINE#         286
  C:3785H         LINE#         287
  C:3788H         LINE#         290
BL51 BANKED LINKER/LOCATER V6.22.2.0                                                  09/03/2021  14:20:36  PAGE 30


  C:37C8H         LINE#         291
  C:37C8H         LINE#         293
  C:37DDH         LINE#         294
  C:37E3H         LINE#         295
  C:380DH         LINE#         298
  C:3815H         LINE#         299
  C:3815H         LINE#         302
  C:381CH         LINE#         303
  C:381CH         LINE#         304
  C:3821H         LINE#         305
  C:3821H         LINE#         306
  C:3823H         LINE#         308
  C:3823H         LINE#         309
  C:382CH         LINE#         310
  C:3834H         LINE#         311
  C:3834H         LINE#         315
  C:3836H         LINE#         318
  C:3836H         LINE#         326
  C:383EH         LINE#         330
  C:383EH         LINE#         331
  C:3840H         LINE#         333
  C:3878H         LINE#         334
  C:3878H         LINE#         335
  C:3880H         LINE#         336
  C:388CH         LINE#         337
  C:388CH         LINE#         339
  C:38B9H         LINE#         340
  C:38B9H         LINE#         341
  C:38C8H         LINE#         343
  C:38C8H         LINE#         345
  -------         ENDPROC       _VALIDA_TRAMA_PTO
  -------         PROC          _MONITOR_CHR
  X:0033H         SYMBOL        str
  X:0036H         SYMBOL        num_char
  -------         DO            
  X:0037H         SYMBOL        j
  -------         ENDDO         
  C:B36EH         LINE#         500
  C:B37CH         LINE#         501
  C:B37CH         LINE#         503
  C:B38AH         LINE#         504
  C:B38AH         LINE#         505
  C:B39CH         LINE#         506
  C:B3A6H         LINE#         507
  C:B3AEH         LINE#         508
  -------         ENDPROC       _MONITOR_CHR
  -------         PROC          _CMD_LPR_SALIDA_WIEGAND
  X:0011H         SYMBOL        buffer
  -------         DO            
  X:0014H         SYMBOL        Buffer_Lpr
  X:0032H         SYMBOL        j
  -------         ENDDO         
  C:8994H         LINE#         513
  C:899FH         LINE#         514
  C:899FH         LINE#         516
  C:89A5H         LINE#         517
  C:89AAH         LINE#         518
BL51 BANKED LINKER/LOCATER V6.22.2.0                                                  09/03/2021  14:20:36  PAGE 31


  C:89B2H         LINE#         519
  C:89B6H         LINE#         520
  C:89BFH         LINE#         521
  C:89BFH         LINE#         522
  C:89D0H         LINE#         523
  C:89D2H         LINE#         525
  C:89D2H         LINE#         526
  C:89E3H         LINE#         527
  C:89E3H         LINE#         531
  C:89FAH         LINE#         532
  C:89FAH         LINE#         533
  C:8A09H         LINE#         534
  C:8A13H         LINE#         536
  C:8A1BH         LINE#         537
  C:8A2FH         LINE#         539
  C:8A3FH         LINE#         540
  C:8A50H         LINE#         541
  C:8A5DH         LINE#         545
  -------         ENDPROC       _CMD_LPR_SALIDA_WIEGAND
  -------         ENDMOD        ACCESCAN

  -------         MODULE        CLOCK
  C:0000H         SYMBOL        _ICE_DUMMY_
  C:B3E3H         PUBLIC        _two_one
  D:0090H         PUBLIC        P1
  C:75C4H         PUBLIC        _validar_clk
  C:B9DBH         PUBLIC        _wr_clk
  C:8CCFH         PUBLIC        _check_fechaOut
  C:6117H         PUBLIC        _Block_read_clock_ascii_rasberry
  B:00D0H.7       PUBLIC        CY
  C:0003H         PUBLIC        p_ck
  C:9D28H         PUBLIC        _hex_ascii
  C:AAC2H         PUBLIC        _hora_entrada_vehiculo
  X:021EH         PUBLIC        data_clk
  C:BCA6H         PUBLIC        cond_ini_clock
  C:8D98H         PUBLIC        _Block_read_Clock
  B:0090H.4       PUBLIC        sck
  C:96F9H         PUBLIC        _Block_read_Clock_Hex
  C:6492H         PUBLIC        _Block_read_clock_ascii
  C:B588H         PUBLIC        _hex_bcd
  C:BB14H         PUBLIC        _bcd_hex
  C:ACD8H         PUBLIC        _ByteHex_Decimal
  C:9E54H         PUBLIC        _lee_clk
  B:0090H.5       PUBLIC        io
  C:98E6H         PUBLIC        _Block_write_clock_ascii
  B:0090H.6       PUBLIC        rst
  C:B4B1H         PUBLIC        _eb_clk
  C:45EAH         PUBLIC        _Two_ByteHex_Decimal
  -------         PROC          P_CK
  C:0003H         LINE#         69
  C:0003H         LINE#         70
  C:0003H         LINE#         71
  C:0005H         LINE#         72
  C:0008H         LINE#         73
  C:000AH         LINE#         74
  -------         ENDPROC       P_CK
  -------         PROC          _EB_CLK
BL51 BANKED LINKER/LOCATER V6.22.2.0                                                  09/03/2021  14:20:36  PAGE 32


  X:00B4H         SYMBOL        dir_clk
  -------         DO            
  X:00B5H         SYMBOL        nbits
  -------         ENDDO         
  C:B4B1H         LINE#         76
  C:B4B6H         LINE#         78
  C:B4BBH         LINE#         79
  C:B4BBH         LINE#         80
  C:B4C4H         LINE#         81
  C:B4C7H         LINE#         82
  C:B4C7H         LINE#         83
  C:B4C9H         LINE#         84
  C:B4CBH         LINE#         86
  C:B4CBH         LINE#         87
  C:B4CDH         LINE#         88
  C:B4CDH         LINE#         89
  C:B4D0H         LINE#         90
  C:B4EFH         LINE#         91
  -------         ENDPROC       _EB_CLK
  C:9E4AH         SYMBOL        L?0084
  -------         PROC          L?0083
  -------         ENDPROC       L?0083
  C:9E4AH         SYMBOL        L?0084
  -------         PROC          _LEE_CLK
  X:00B1H         SYMBOL        dir_clk
  -------         DO            
  X:00B2H         SYMBOL        nbits
  -------         ENDDO         
  C:9E54H         LINE#         93
  C:9E59H         LINE#         95
  C:9E5BH         LINE#         96
  C:9E62H         LINE#         97
  C:9E6AH         LINE#         98
  C:9E83H         LINE#         99
  C:9E83H         LINE#         100
  C:9E86H         LINE#         101
  C:9E86H         LINE#         102
  C:9E8DH         LINE#         103
  C:9E97H         LINE#         104
  C:9E9CH         LINE#         105
  C:9E9CH         LINE#         106
  C:9E9CH         LINE#         107
  C:9E9FH         LINE#         108
  C:9E9FH         LINE#         109
  C:9EA6H         LINE#         110
  C:9EB7H         LINE#         111
  C:9EB7H         LINE#         112
  C:9EBFH         LINE#         113
  C:9EBFH         LINE#         114
  C:9EBFH         LINE#         115
  C:9EC2H         LINE#         116
  C:9ED2H         LINE#         117
  C:9ED4H         LINE#         118
  C:9ED9H         LINE#         119
  -------         ENDPROC       _LEE_CLK
  -------         PROC          _WR_CLK
  X:0014H         SYMBOL        dir_clk
BL51 BANKED LINKER/LOCATER V6.22.2.0                                                  09/03/2021  14:20:36  PAGE 33


  X:0015H         SYMBOL        byte
  C:B9DBH         LINE#         121
  C:B9E3H         LINE#         122
  C:B9E5H         LINE#         123
  C:B9ECH         LINE#         124
  C:B9F4H         LINE#         125
  C:B9FDH         LINE#         126
  C:BA00H         LINE#         127
  C:BA02H         LINE#         129
  -------         ENDPROC       _WR_CLK
  C:B3AFH         SYMBOL        L?0079
  C:B3CDH         SYMBOL        L?0080
  -------         PROC          L?0078
  -------         ENDPROC       L?0078
  C:B3AFH         SYMBOL        L?0079
  C:B3CDH         SYMBOL        L?0080
  -------         PROC          _TWO_ONE
  D:0007H         SYMBOL        byte_h
  D:0005H         SYMBOL        byte_l
  -------         DO            
  D:0007H         SYMBOL        byte_out
  -------         ENDDO         
  C:B3E3H         LINE#         131
  C:B3E3H         LINE#         132
  C:B3E3H         LINE#         134
  C:B3E6H         LINE#         135
  C:B3EAH         LINE#         136
  C:B3EDH         LINE#         137
  C:B3EFH         LINE#         138
  C:B3EFH         LINE#         139
  -------         ENDPROC       _TWO_ONE
  -------         PROC          _VALIDAR_CLK
  D:0001H         SYMBOL        datos_clock
  -------         DO            
  D:0007H         SYMBOL        validador
  -------         ENDDO         
  C:75C4H         LINE#         143
  C:75C4H         LINE#         144
  C:75C4H         LINE#         145
  C:75C6H         LINE#         148
  C:75DBH         LINE#         149
  C:75DBH         LINE#         151
  C:75F3H         LINE#         152
  C:75F3H         LINE#         154
  C:760BH         LINE#         155
  C:760BH         LINE#         156
  C:7623H         LINE#         157
  C:7623H         LINE#         158
  C:763BH         LINE#         159
  C:763BH         LINE#         160
  C:7650H         LINE#         161
  C:7650H         LINE#         162
  C:7662H         LINE#         163
  C:7662H         LINE#         164
  C:7674H         LINE#         165
  C:7674H         LINE#         166
  C:7686H         LINE#         167
BL51 BANKED LINKER/LOCATER V6.22.2.0                                                  09/03/2021  14:20:36  PAGE 34


  C:7686H         LINE#         168
  C:7698H         LINE#         169
  C:7698H         LINE#         170
  C:76AAH         LINE#         171
  C:76AAH         LINE#         172
  C:76BAH         LINE#         173
  C:76BAH         LINE#         174
  C:76BAH         LINE#         175
  C:76BAH         LINE#         176
  C:76BBH         LINE#         178
  C:76BBH         LINE#         179
  C:76BDH         LINE#         180
  C:76BDH         LINE#         181
  C:76BEH         LINE#         183
  C:76BEH         LINE#         184
  C:76C0H         LINE#         186
  C:76C0H         LINE#         187
  C:76C1H         LINE#         189
  C:76C1H         LINE#         190
  C:76C3H         LINE#         192
  C:76C3H         LINE#         194
  C:76C4H         LINE#         196
  C:76C4H         LINE#         197
  C:76C6H         LINE#         199
  C:76C6H         LINE#         200
  C:76C7H         LINE#         202
  C:76C7H         LINE#         203
  C:76C9H         LINE#         205
  C:76C9H         LINE#         206
  C:76CAH         LINE#         208
  C:76CAH         LINE#         209
  C:76CCH         LINE#         211
  C:76CCH         LINE#         212
  C:76CDH         LINE#         214
  C:76CDH         LINE#         215
  C:76CFH         LINE#         217
  C:76CFH         LINE#         218
  C:76CFH         LINE#         220
  C:76D0H         LINE#         222
  C:76D0H         LINE#         223
  C:76D2H         LINE#         225
  C:76D2H         LINE#         227
  C:76D3H         LINE#         230
  C:76D3H         LINE#         231
  C:76D5H         LINE#         233
  C:76D5H         LINE#         235
  C:76D6H         LINE#         238
  C:76D6H         LINE#         239
  C:76D8H         LINE#         241
  C:76D8H         LINE#         243
  C:76D8H         LINE#         245
  -------         ENDPROC       _VALIDAR_CLK
  -------         PROC          _BLOCK_WRITE_CLOCK_ASCII
  X:0011H         SYMBOL        datos_clock
  -------         DO            
  D:0007H         SYMBOL        temp
  -------         ENDDO         
BL51 BANKED LINKER/LOCATER V6.22.2.0                                                  09/03/2021  14:20:36  PAGE 35


  C:98E6H         LINE#         251
  C:98F1H         LINE#         253
  C:98F1H         LINE#         256
  C:98FAH         LINE#         257
  C:9903H         LINE#         259
  C:990DH         LINE#         260
  C:990DH         LINE#         261
  C:990DH         LINE#         262
  C:990DH         LINE#         264
  C:9917H         LINE#         265
  C:9921H         LINE#         266
  C:992BH         LINE#         267
  C:992BH         LINE#         268
  C:992BH         LINE#         269
  C:992BH         LINE#         271
  C:9935H         LINE#         272
  C:9935H         LINE#         273
  C:9935H         LINE#         274
  C:9935H         LINE#         276
  C:993FH         LINE#         277
  C:993FH         LINE#         278
  C:993FH         LINE#         279
  C:993FH         LINE#         281
  C:9949H         LINE#         282
  C:9949H         LINE#         283
  C:9949H         LINE#         284
  C:9949H         LINE#         286
  C:9953H         LINE#         287
  C:995DH         LINE#         288
  C:9967H         LINE#         289
  C:9971H         LINE#         291
  C:9981H         LINE#         292
  -------         ENDPROC       _BLOCK_WRITE_CLOCK_ASCII
  -------         PROC          _BCD_HEX
  D:0007H         SYMBOL        l_data
  -------         DO            
  D:0006H         SYMBOL        temp
  D:0005H         SYMBOL        j
  -------         ENDDO         
  C:BB14H         LINE#         298
  C:BB14H         LINE#         299
  C:BB14H         LINE#         301
  C:BB16H         LINE#         302
  C:BB1AH         LINE#         303
  C:BB1DH         LINE#         304
  C:BB1FH         LINE#         305
  C:BB1FH         LINE#         306
  C:BB23H         LINE#         307
  C:BB2AH         LINE#         308
  C:BB2AH         LINE#         309
  C:BB2EH         LINE#         310
  C:BB31H         LINE#         311
  C:BB31H         LINE#         312
  C:BB31H         LINE#         313
  -------         ENDPROC       _BCD_HEX
  C:B579H         SYMBOL        L?0082
  -------         PROC          L?0081
BL51 BANKED LINKER/LOCATER V6.22.2.0                                                  09/03/2021  14:20:36  PAGE 36


  -------         ENDPROC       L?0081
  C:B579H         SYMBOL        L?0082
  -------         PROC          _HEX_BCD
  D:0007H         SYMBOL        byte
  -------         DO            
  D:0006H         SYMBOL        nibble_h
  D:0005H         SYMBOL        nibble_l
  D:0004H         SYMBOL        k
  D:0007H         SYMBOL        byte_out
  -------         ENDDO         
  C:B588H         LINE#         317
  C:B588H         LINE#         318
  C:B588H         LINE#         323
  C:B58AH         LINE#         324
  C:B58BH         LINE#         326
  C:B591H         LINE#         327
  C:B591H         LINE#         328
  C:B592H         LINE#         329
  C:B597H         LINE#         330
  C:B597H         LINE#         331
  C:B598H         LINE#         332
  C:B599H         LINE#         333
  C:B599H         LINE#         334
  C:B59CH         LINE#         335
  C:B5A0H         LINE#         336
  C:B5A3H         LINE#         337
  C:B5A6H         LINE#         338
  C:B5A8H         LINE#         339
  C:B5A8H         LINE#         341
  -------         ENDPROC       _HEX_BCD
  -------         PROC          _HEX_ASCII
  X:005DH         SYMBOL        datos
  X:0060H         SYMBOL        fecha_asii
  -------         DO            
  D:0007H         SYMBOL        dato
  -------         ENDDO         
  C:9D28H         LINE#         342
  C:9D33H         LINE#         343
  C:9D33H         LINE#         347
  C:9D36H         LINE#         348
  C:9D4EH         LINE#         349
  C:9D63H         LINE#         350
  C:9D63H         LINE#         352
  C:9D66H         LINE#         353
  C:9D81H         LINE#         354
  C:9D89H         LINE#         355
  C:9D89H         LINE#         357
  C:9D8CH         LINE#         358
  C:9DA7H         LINE#         359
  C:9DB2H         LINE#         361
  -------         ENDPROC       _HEX_ASCII
  -------         PROC          _BYTEHEX_DECIMAL
  D:0001H         SYMBOL        buffer
  D:0005H         SYMBOL        valorhex
  -------         DO            
  X:0018H         SYMBOL        numero
  D:0007H         SYMBOL        centena
BL51 BANKED LINKER/LOCATER V6.22.2.0                                                  09/03/2021  14:20:36  PAGE 37


  D:0006H         SYMBOL        decena
  -------         ENDDO         
  C:ACD8H         LINE#         369
  C:ACD8H         LINE#         370
  C:ACD8H         LINE#         373
  C:ACDAH         LINE#         374
  C:ACDBH         LINE#         375
  C:ACE0H         LINE#         377
  C:ACEDH         LINE#         378
  C:ACEDH         LINE#         379
  C:ACF1H         LINE#         380
  C:ACF2H         LINE#         381
  C:ACF4H         LINE#         382
  C:ACFAH         LINE#         383
  C:AD01H         LINE#         384
  C:AD0EH         LINE#         385
  C:AD0EH         LINE#         386
  C:AD12H         LINE#         387
  C:AD13H         LINE#         388
  C:AD15H         LINE#         389
  C:AD1BH         LINE#         390
  C:AD22H         LINE#         391
  C:AD2BH         LINE#         392
  C:AD32H         LINE#         393
  -------         ENDPROC       _BYTEHEX_DECIMAL
  -------         PROC          _TWO_BYTEHEX_DECIMAL
  X:0018H         SYMBOL        buffer
  X:001BH         SYMBOL        id_h
  X:001CH         SYMBOL        id_l
  -------         DO            
  X:001DH         SYMBOL        valor
  D:0006H         SYMBOL        numero
  X:001FH         SYMBOL        temp
  X:0020H         SYMBOL        dmil
  X:0021H         SYMBOL        mil
  X:0022H         SYMBOL        centena
  X:0023H         SYMBOL        decena
  -------         ENDDO         
  C:45EAH         LINE#         400
  C:45F8H         LINE#         401
  C:45F8H         LINE#         405
  C:45FFH         LINE#         406
  C:4603H         LINE#         407
  C:4605H         LINE#         408
  C:4607H         LINE#         409
  C:4609H         LINE#         412
  C:460EH         LINE#         413
  C:4611H         LINE#         414
  C:4617H         LINE#         416
  C:4672H         LINE#         417
  C:467AH         LINE#         418
  C:467DH         LINE#         419
  C:46D8H         LINE#         421
  C:46E0H         LINE#         422
  C:46E3H         LINE#         423
  C:46E9H         LINE#         424
  C:4744H         LINE#         425
BL51 BANKED LINKER/LOCATER V6.22.2.0                                                  09/03/2021  14:20:36  PAGE 38


  C:474CH         LINE#         426
  C:474FH         LINE#         427
  C:47AAH         LINE#         428
  C:47AAH         LINE#         430
  C:47B3H         LINE#         431
  C:47B3H         LINE#         432
  C:47BBH         LINE#         433
  C:47C1H         LINE#         434
  C:47C3H         LINE#         435
  C:47D9H         LINE#         436
  C:47E3H         LINE#         437
  C:47ECH         LINE#         438
  C:47ECH         LINE#         439
  C:47F4H         LINE#         440
  C:47FAH         LINE#         441
  C:47FCH         LINE#         442
  C:4812H         LINE#         443
  C:481CH         LINE#         444
  C:4825H         LINE#         445
  C:4825H         LINE#         446
  C:482DH         LINE#         447
  C:4833H         LINE#         448
  C:4835H         LINE#         449
  C:484BH         LINE#         450
  C:4855H         LINE#         451
  C:485EH         LINE#         452
  C:485EH         LINE#         453
  C:4866H         LINE#         454
  C:486CH         LINE#         455
  C:486EH         LINE#         456
  C:4884H         LINE#         457
  C:488EH         LINE#         458
  C:48A1H         LINE#         459
  C:48ABH         LINE#         460
  -------         ENDPROC       _TWO_BYTEHEX_DECIMAL
  -------         PROC          _BLOCK_READ_CLOCK_ASCII
  X:0051H         SYMBOL        datos_clock
  -------         DO            
  D:0007H         SYMBOL        dato
  -------         ENDDO         
  C:6492H         LINE#         466
  C:6495H         LINE#         467
  C:6495H         LINE#         473
  C:6498H         LINE#         474
  C:64B0H         LINE#         475
  C:64BAH         LINE#         476
  C:64CFH         LINE#         477
  C:64D9H         LINE#         480
  C:64DEH         LINE#         481
  C:64F6H         LINE#         482
  C:6500H         LINE#         483
  C:6515H         LINE#         484
  C:651FH         LINE#         487
  C:6524H         LINE#         488
  C:653CH         LINE#         489
  C:6546H         LINE#         490
  C:655BH         LINE#         491
BL51 BANKED LINKER/LOCATER V6.22.2.0                                                  09/03/2021  14:20:36  PAGE 39


  C:6565H         LINE#         495
  C:656AH         LINE#         496
  C:6582H         LINE#         497
  C:658CH         LINE#         498
  C:65A1H         LINE#         499
  C:65ABH         LINE#         502
  C:65B0H         LINE#         503
  C:65C8H         LINE#         504
  C:65D2H         LINE#         505
  C:65E7H         LINE#         506
  C:65F1H         LINE#         507
  -------         ENDPROC       _BLOCK_READ_CLOCK_ASCII
  -------         PROC          _BLOCK_READ_CLOCK_ASCII_RASBERRY
  X:001EH         SYMBOL        datos_clock
  -------         DO            
  D:0007H         SYMBOL        dato
  -------         ENDDO         
  C:6117H         LINE#         510
  C:6122H         LINE#         511
  C:6122H         LINE#         516
  C:6127H         LINE#         517
  C:613FH         LINE#         518
  C:6149H         LINE#         519
  C:615EH         LINE#         520
  C:6168H         LINE#         523
  C:616DH         LINE#         524
  C:6185H         LINE#         525
  C:618FH         LINE#         526
  C:61A4H         LINE#         527
  C:61AEH         LINE#         531
  C:61B3H         LINE#         532
  C:61CBH         LINE#         533
  C:61D5H         LINE#         534
  C:61EAH         LINE#         535
  C:61F4H         LINE#         540
  C:61F9H         LINE#         541
  C:6211H         LINE#         542
  C:621BH         LINE#         543
  C:6230H         LINE#         544
  C:623AH         LINE#         547
  C:623FH         LINE#         548
  C:6257H         LINE#         549
  C:6261H         LINE#         550
  C:6276H         LINE#         551
  C:6280H         LINE#         552
  C:6290H         LINE#         553
  C:629AH         LINE#         556
  C:629FH         LINE#         557
  C:62B7H         LINE#         558
  C:62C1H         LINE#         559
  C:62D6H         LINE#         561
  C:62E0H         LINE#         562
  -------         ENDPROC       _BLOCK_READ_CLOCK_ASCII_RASBERRY
  -------         PROC          _BLOCK_READ_CLOCK_HEX
  X:00AEH         SYMBOL        datos_clock
  C:96F9H         LINE#         566
  C:96FCH         LINE#         567
BL51 BANKED LINKER/LOCATER V6.22.2.0                                                  09/03/2021  14:20:36  PAGE 40


  C:96FCH         LINE#         570
  C:9711H         LINE#         571
  C:971BH         LINE#         573
  C:9732H         LINE#         574
  C:973CH         LINE#         576
  C:9753H         LINE#         577
  C:975DH         LINE#         579
  C:9774H         LINE#         580
  C:977EH         LINE#         582
  C:9795H         LINE#         583
  -------         ENDPROC       _BLOCK_READ_CLOCK_HEX
  -------         PROC          _HORA_ENTRADA_VEHICULO
  X:0009H         SYMBOL        Atributos_Expedidor
  C:AAC2H         LINE#         586
  C:AAC5H         LINE#         587
  C:AAC5H         LINE#         589
  C:AADAH         LINE#         590
  C:AAF1H         LINE#         591
  C:AB08H         LINE#         592
  C:AB1FH         LINE#         593
  -------         ENDPROC       _HORA_ENTRADA_VEHICULO
  -------         PROC          _BLOCK_READ_CLOCK
  X:001EH         SYMBOL        datos_clock
  C:8D98H         LINE#         599
  C:8D9BH         LINE#         600
  C:8D9BH         LINE#         602
  C:8DADH         LINE#         603
  C:8DB7H         LINE#         605
  C:8DCBH         LINE#         606
  C:8DD5H         LINE#         608
  C:8DE9H         LINE#         609
  C:8DF3H         LINE#         611
  C:8E07H         LINE#         612
  C:8E11H         LINE#         614
  C:8E25H         LINE#         615
  C:8E2FH         LINE#         617
  C:8E43H         LINE#         618
  C:8E4DH         LINE#         619
  -------         ENDPROC       _BLOCK_READ_CLOCK
  -------         PROC          COND_INI_CLOCK
  C:BCA6H         LINE#         622
  C:BCA6H         LINE#         623
  C:BCA6H         LINE#         624
  C:BCA8H         LINE#         625
  C:BCAAH         LINE#         626
  C:BCACH         LINE#         627
  -------         ENDPROC       COND_INI_CLOCK
  -------         PROC          _CHECK_FECHAOUT
  X:009CH         SYMBOL        buffer
  -------         DO            
  X:009FH         SYMBOL        fecha_inicio
  X:00A3H         SYMBOL        fecha_fin
  X:00A7H         SYMBOL        datos_clk
  X:00ADH         SYMBOL        temp
  -------         ENDDO         
  C:8CCFH         LINE#         637
  C:8CDAH         LINE#         638
BL51 BANKED LINKER/LOCATER V6.22.2.0                                                  09/03/2021  14:20:36  PAGE 41


  C:8CDAH         LINE#         644
  C:8CE3H         LINE#         645
  C:8D12H         LINE#         646
  C:8D65H         LINE#         649
  C:8D85H         LINE#         650
  C:8D85H         LINE#         651
  C:8D8BH         LINE#         652
  C:8D8DH         LINE#         654
  C:8D8DH         LINE#         655
  C:8D92H         LINE#         656
  C:8D92H         LINE#         660
  C:8D97H         LINE#         661
  -------         ENDPROC       _CHECK_FECHAOUT
  -------         ENDMOD        CLOCK

  -------         MODULE        DELAY
  C:0000H         SYMBOL        _ICE_DUMMY_
  C:B711H         PUBLIC        _Delay_10ms
  C:BBD2H         PUBLIC        _Delay_20us
  C:BB32H         PUBLIC        _Delay_1ms
  C:BCF1H         PUBLIC        Delay
  -------         PROC          _DELAY_20US
  D:0006H         SYMBOL        cntd_us
  -------         DO            
  D:0004H         SYMBOL        i
  -------         ENDDO         
  C:BBD2H         LINE#         20
  C:BBD2H         LINE#         21
  C:BBD2H         LINE#         24
  C:BBDCH         LINE#         26
  C:BBE3H         LINE#         27
  -------         ENDPROC       _DELAY_20US
  -------         PROC          _DELAY_1MS
  D:0002H         SYMBOL        cntd_ms
  -------         DO            
  D:0082H         SYMBOL        i
  -------         ENDDO         
  C:BB32H         LINE#         38
  C:BB36H         LINE#         39
  C:BB36H         LINE#         41
  C:BB4CH         LINE#         42
  -------         ENDPROC       _DELAY_1MS
  -------         PROC          _DELAY_10MS
  X:0017H         SYMBOL        cntd_10ms
  -------         DO            
  X:0019H         SYMBOL        i
  -------         ENDDO         
  C:B711H         LINE#         54
  C:B719H         LINE#         55
  C:B719H         LINE#         57
  C:B74AH         LINE#         58
  -------         ENDPROC       _DELAY_10MS
  -------         PROC          DELAY
  C:BCF1H         LINE#         60
  C:BCF1H         LINE#         62
  -------         ENDPROC       DELAY
  -------         ENDMOD        DELAY
BL51 BANKED LINKER/LOCATER V6.22.2.0                                                  09/03/2021  14:20:36  PAGE 42



  -------         MODULE        EEPROM
  C:0000H         SYMBOL        _ICE_DUMMY_
  D:0090H         PUBLIC        P1
  C:80C5H         PUBLIC        _Write_EEprom_Ticket
  C:AB36H         PUBLIC        _EscribirMemoria
  X:0212H         PUBLIC        l_chr
  C:BAB8H         PUBLIC        ackd
  B:0021H.6       PUBLIC        memory_flag
  B:00D0H.7       PUBLIC        CY
  C:BCDEH         PUBLIC        p_me
  C:BBECH         PUBLIC        start
  B:0090H.2       PUBLIC        sda
  C:BAD8H         PUBLIC        ack_lect
  B:0090H.3       PUBLIC        scl
  C:B5ADH         PUBLIC        _rd_eeprom
  C:BC89H         PUBLIC        stop
  X:0213H         PUBLIC        l_data_eeprom
  C:AE62H         PUBLIC        _wr_eeprom
  C:AC10H         PUBLIC        _LeerMemoria
  C:B860H         PUBLIC        Incremente_Ticket
  X:0214H         PUBLIC        byte_rd
  C:8C05H         PUBLIC        Read_EEprom_Ticket
  C:BA50H         PUBLIC        _e_d_m
  C:8B39H         PUBLIC        _graba_serie
  C:AF8AH         PUBLIC        Lee_No_Ticket
  C:AF3DH         PUBLIC        l_d_m
  -------         PROC          L?0057
  -------         ENDPROC       L?0057
  -------         PROC          ACKD
  -------         DO            
  D:0006H         SYMBOL        i
  -------         ENDDO         
  C:BAB8H         LINE#         39
  C:BAB8H         LINE#         40
  C:BAB8H         LINE#         42
  C:BABAH         LINE#         43
  C:BABCH         LINE#         44
  C:BABEH         LINE#         45
  C:BAC1H         LINE#         46
  C:BAC1H         LINE#         47
  C:BAC4H         LINE#         48
  C:BAC4H         LINE#         49
  C:BAC6H         LINE#         50
  C:BAC8H         LINE#         52
  C:BAC9H         LINE#         53
  C:BAC9H         LINE#         54
  C:BAD4H         LINE#         56
  C:BAD4H         LINE#         57
  C:BAD4H         LINE#         59
  C:BAD4H         LINE#         60
  -------         ENDPROC       ACKD
  -------         PROC          L?0061
  -------         ENDPROC       L?0061
  -------         PROC          ACK_LECT
  -------         DO            
  D:0006H         SYMBOL        i
BL51 BANKED LINKER/LOCATER V6.22.2.0                                                  09/03/2021  14:20:36  PAGE 43


  -------         ENDDO         
  C:BAD8H         LINE#         63
  C:BAD8H         LINE#         64
  C:BAD8H         LINE#         66
  C:BADAH         LINE#         67
  C:BADCH         LINE#         68
  C:BADEH         LINE#         69
  C:BAE1H         LINE#         70
  C:BAE1H         LINE#         71
  C:BAE4H         LINE#         72
  C:BAE4H         LINE#         73
  C:BAE6H         LINE#         74
  C:BAE8H         LINE#         75
  C:BAE9H         LINE#         76
  C:BAE9H         LINE#         77
  C:BAF4H         LINE#         78
  -------         ENDPROC       ACK_LECT
  -------         PROC          P_ME
  C:BCDEH         LINE#         80
  C:BCDEH         LINE#         81
  C:BCDEH         LINE#         82
  C:BCE0H         LINE#         83
  C:BCE1H         LINE#         84
  C:BCE3H         LINE#         85
  -------         ENDPROC       P_ME
  -------         PROC          _E_D_M
  D:0007H         SYMBOL        a_serial_eeprom
  -------         DO            
  D:0006H         SYMBOL        nbits
  -------         ENDDO         
  C:BA50H         LINE#         87
  C:BA50H         LINE#         88
  C:BA50H         LINE#         90
  C:BA5CH         LINE#         91
  C:BA5CH         LINE#         92
  C:BA60H         LINE#         93
  C:BA63H         LINE#         94
  C:BA63H         LINE#         95
  C:BA65H         LINE#         96
  C:BA67H         LINE#         98
  C:BA67H         LINE#         99
  C:BA69H         LINE#         100
  C:BA69H         LINE#         101
  C:BA6BH         LINE#         102
  C:BA6EH         LINE#         103
  C:BA71H         LINE#         105
  -------         ENDPROC       _E_D_M
  -------         PROC          L?0058
  -------         ENDPROC       L?0058
  -------         PROC          START
  C:BBECH         LINE#         107
  C:BBECH         LINE#         108
  C:BBECH         LINE#         109
  C:BBEEH         LINE#         110
  C:BBF0H         LINE#         111
  C:BBF1H         LINE#         112
  C:BBF3H         LINE#         113
BL51 BANKED LINKER/LOCATER V6.22.2.0                                                  09/03/2021  14:20:36  PAGE 44


  C:BBF5H         LINE#         115
  -------         ENDPROC       START
  -------         PROC          STOP
  C:BC89H         LINE#         117
  C:BC89H         LINE#         118
  C:BC89H         LINE#         119
  C:BC8BH         LINE#         120
  C:BC8DH         LINE#         121
  C:BC8EH         LINE#         122
  C:BC90H         LINE#         123
  C:BC92H         LINE#         125
  -------         ENDPROC       STOP
  -------         PROC          L_D_M
  -------         DO            
  D:0003H         SYMBOL        nbits
  -------         ENDDO         
  C:AF3DH         LINE#         127
  C:AF3DH         LINE#         128
  C:AF3DH         LINE#         130
  C:AF4AH         LINE#         131
  C:AF4AH         LINE#         132
  C:AF4CH         LINE#         133
  C:AF4FH         LINE#         134
  C:AF4FH         LINE#         135
  C:AF56H         LINE#         136
  C:AF5FH         LINE#         137
  C:AF5FH         LINE#         138
  C:AF63H         LINE#         139
  C:AF65H         LINE#         140
  C:AF65H         LINE#         141
  C:AF65H         LINE#         142
  C:AF68H         LINE#         143
  C:AF68H         LINE#         144
  C:AF6FH         LINE#         145
  C:AF79H         LINE#         146
  C:AF79H         LINE#         147
  C:AF7DH         LINE#         148
  C:AF7FH         LINE#         149
  C:AF7FH         LINE#         150
  C:AF7FH         LINE#         151
  C:AF82H         LINE#         152
  C:AF84H         LINE#         153
  C:AF89H         LINE#         154
  -------         ENDPROC       L_D_M
  -------         PROC          L?0056
  -------         ENDPROC       L?0056
  -------         PROC          _WR_EEPROM
  D:0002H         SYMBOL        control
  D:0004H         SYMBOL        Dir
  D:0003H         SYMBOL        data_eeprom
  -------         DO            
  D:0005H         SYMBOL        dir_h
  D:0001H         SYMBOL        dir_l
  -------         ENDDO         
  C:AE62H         LINE#         160
  C:AE64H         LINE#         161
  C:AE64H         LINE#         163
BL51 BANKED LINKER/LOCATER V6.22.2.0                                                  09/03/2021  14:20:36  PAGE 45


  C:AE68H         LINE#         164
  C:AE68H         LINE#         165
  C:AE68H         LINE#         168
  C:AE68H         LINE#         169
  C:AE68H         LINE#         171
  C:AE6BH         LINE#         172
  C:AE6DH         LINE#         173
  C:AE70H         LINE#         174
  C:AE72H         LINE#         175
  C:AE75H         LINE#         176
  C:AE7AH         LINE#         177
  C:AE7DH         LINE#         178
  C:AE82H         LINE#         179
  C:AE85H         LINE#         180
  C:AE88H         LINE#         181
  C:AE8FH         LINE#         183
  C:AE91H         LINE#         184
  C:AE93H         LINE#         185
  C:AE9AH         LINE#         186
  -------         ENDPROC       _WR_EEPROM
  C:B5A9H         SYMBOL        L?0060
  -------         PROC          L?0059
  -------         ENDPROC       L?0059
  C:B5A9H         SYMBOL        L?0060
  -------         PROC          _RD_EEPROM
  D:0003H         SYMBOL        control
  D:0004H         SYMBOL        Dir
  -------         DO            
  D:0005H         SYMBOL        dir_h
  D:0002H         SYMBOL        dir_l
  -------         ENDDO         
  C:B5ADH         LINE#         224
  C:B5AFH         LINE#         225
  C:B5AFH         LINE#         228
  C:B5B3H         LINE#         229
  C:B5B3H         LINE#         230
  C:B5B3H         LINE#         232
  C:B5B3H         LINE#         233
  C:B5B3H         LINE#         235
  C:B5B6H         LINE#         236
  C:B5B8H         LINE#         237
  C:B5BBH         LINE#         238
  C:B5BDH         LINE#         239
  C:B5C0H         LINE#         240
  C:B5C5H         LINE#         241
  C:B5C8H         LINE#         242
  C:B5CBH         LINE#         243
  C:B5D1H         LINE#         244
  C:B5D4H         LINE#         245
  C:B5D6H         LINE#         246
  C:B5D9H         LINE#         247
  C:B5DCH         LINE#         248
  C:B5DEH         LINE#         249
  C:B5E0H         LINE#         250
  C:B5E5H         LINE#         251
  -------         ENDPROC       _RD_EEPROM
  -------         PROC          _GRABA_SERIE
BL51 BANKED LINKER/LOCATER V6.22.2.0                                                  09/03/2021  14:20:36  PAGE 46


  X:0011H         SYMBOL        buffer
  -------         DO            
  X:0014H         SYMBOL        j
  X:0015H         SYMBOL        error
  -------         ENDDO         
  C:8B39H         LINE#         258
  C:8B44H         LINE#         259
  C:8B44H         LINE#         262
  C:8B49H         LINE#         267
  C:8B5BH         LINE#         269
  C:8B6EH         LINE#         270
  C:8B6EH         LINE#         271
  C:8B97H         LINE#         272
  C:8B97H         LINE#         273
  C:8B9DH         LINE#         275
  C:8BA6H         LINE#         276
  C:8BB4H         LINE#         277
  C:8BBDH         LINE#         278
  C:8BBDH         LINE#         280
  C:8BC5H         LINE#         284
  C:8BCBH         LINE#         285
  C:8BCBH         LINE#         286
  C:8BD9H         LINE#         288
  C:8BD9H         LINE#         290
  C:8BD9H         LINE#         291
  C:8BE3H         LINE#         292
  C:8BEEH         LINE#         293
  C:8BF9H         LINE#         294
  C:8C04H         LINE#         296
  C:8C04H         LINE#         297
  -------         ENDPROC       _GRABA_SERIE
  -------         PROC          _WRITE_EEPROM_TICKET
  X:0016H         SYMBOL        buffer
  -------         DO            
  X:0019H         SYMBOL        cod_3
  X:001AH         SYMBOL        cod_2
  X:001BH         SYMBOL        cod_1
  X:001CH         SYMBOL        cod_0
  X:001DH         SYMBOL        Noticket
  D:0004H         SYMBOL        Bnoticket
  -------         ENDDO         
  C:80C5H         LINE#         298
  C:80D0H         LINE#         299
  C:80D0H         LINE#         301
  C:80D8H         LINE#         302
  C:80E1H         LINE#         303
  C:80EFH         LINE#         304
  C:80F8H         LINE#         305
  C:810CH         LINE#         307
  C:8115H         LINE#         308
  C:8128H         LINE#         309
  C:812DH         LINE#         310
  C:8130H         LINE#         312
  C:8143H         LINE#         313
  C:8148H         LINE#         314
  C:814BH         LINE#         316
  C:815EH         LINE#         317
BL51 BANKED LINKER/LOCATER V6.22.2.0                                                  09/03/2021  14:20:36  PAGE 47


  C:8163H         LINE#         318
  C:8166H         LINE#         320
  C:8172H         LINE#         321
  C:8175H         LINE#         322
  C:817EH         LINE#         324
  C:818CH         LINE#         325
  C:819AH         LINE#         326
  C:81A8H         LINE#         327
  -------         ENDPROC       _WRITE_EEPROM_TICKET
  -------         PROC          LEE_NO_TICKET
  -------         DO            
  D:0004H         SYMBOL        Noticket
  X:0059H         SYMBOL        Lee_No_Ticket
  D:0007H         SYMBOL        num_chr
  -------         ENDDO         
  C:AF8AH         LINE#         332
  C:AF8AH         LINE#         333
  C:AF8AH         LINE#         337
  C:AF8DH         LINE#         338
  C:AFA8H         LINE#         339
  C:AFB1H         LINE#         340
  C:AFBDH         LINE#         341
  C:AFC6H         LINE#         342
  C:AFCFH         LINE#         343
  C:AFD5H         LINE#         344
  -------         ENDPROC       LEE_NO_TICKET
  -------         PROC          READ_EEPROM_TICKET
  -------         DO            
  D:0001H         SYMBOL        cod3
  X:0064H         SYMBOL        cod2
  X:0065H         SYMBOL        cod1
  X:0066H         SYMBOL        cod0
  X:0067H         SYMBOL        Noticket
  -------         ENDDO         
  C:8C05H         LINE#         348
  C:8C05H         LINE#         349
  C:8C05H         LINE#         351
  C:8C0FH         LINE#         352
  C:8C16H         LINE#         353
  C:8C20H         LINE#         354
  C:8C2EH         LINE#         355
  C:8C38H         LINE#         357
  C:8C58H         LINE#         358
  C:8C7DH         LINE#         359
  C:8CA2H         LINE#         360
  C:8CC0H         LINE#         361
  C:8CCEH         LINE#         362
  -------         ENDPROC       READ_EEPROM_TICKET
  -------         PROC          INCREMENTE_TICKET
  -------         DO            
  D:0004H         SYMBOL        Noticket
  X:0009H         SYMBOL        Lee_No_Ticket
  -------         ENDDO         
  C:B860H         LINE#         366
  C:B860H         LINE#         367
  C:B860H         LINE#         371
  C:B863H         LINE#         372
BL51 BANKED LINKER/LOCATER V6.22.2.0                                                  09/03/2021  14:20:36  PAGE 48


  C:B870H         LINE#         373
  C:B88BH         LINE#         374
  -------         ENDPROC       INCREMENTE_TICKET
  -------         PROC          _LEERMEMORIA
  X:009CH         SYMBOL        addres
  X:009EH         SYMBOL        res
  -------         DO            
  D:0007H         SYMBOL        i
  -------         ENDDO         
  C:AC10H         LINE#         380
  C:AC21H         LINE#         381
  C:AC21H         LINE#         383
  C:AC21H         LINE#         384
  C:AC3DH         LINE#         385
  C:AC4CH         LINE#         386
  C:AC5AH         LINE#         387
  C:AC64H         LINE#         388
  C:AC67H         LINE#         389
  -------         ENDPROC       _LEERMEMORIA
  -------         PROC          _ESCRIBIRMEMORIA
  X:005DH         SYMBOL        addres
  X:005FH         SYMBOL        res
  C:AB36H         LINE#         391
  C:AB47H         LINE#         392
  C:AB47H         LINE#         395
  C:AB57H         LINE#         396
  C:AB5EH         LINE#         397
  C:AB61H         LINE#         399
  C:AB6FH         LINE#         400
  C:AB79H         LINE#         401
  C:AB7BH         LINE#         402
  C:AB7EH         LINE#         403
  C:AB8CH         LINE#         404
  C:AB96H         LINE#         405
  -------         ENDPROC       _ESCRIBIRMEMORIA
  -------         ENDMOD        EEPROM

  -------         MODULE        IO_SENSORES
  C:0000H         SYMBOL        _ICE_DUMMY_
  D:0090H         PUBLIC        P1
  D:00B0H         PUBLIC        P3
  C:B2E9H         PUBLIC        Dir_board
  B:0021H.7       PUBLIC        PULSADOR_BOTTON
  C:BCBBH         PUBLIC        sel_Pulsa
  B:0090H.1       PUBLIC        DataIn
  C:BB7EH         PUBLIC        Dir_Board_Monitor
  C:BCB4H         PUBLIC        sel_Auto
  C:B784H         PUBLIC        ValidaSensoresPaso
  B:00B0H.3       PUBLIC        busy
  C:BAF5H         PUBLIC        ValidaSensor
  C:BCC9H         PUBLIC        sel_Sensor1
  C:BCC2H         PUBLIC        sel_Sensor2
  C:BA72H         PUBLIC        ValidaSensor_cero
  C:ADF0H         PUBLIC        Valida_Sensor1_Auto
  B:00B0H.5       PUBLIC        sel_A
  B:00B0H.6       PUBLIC        sel_B
  B:00B0H.7       PUBLIC        sel_C
BL51 BANKED LINKER/LOCATER V6.22.2.0                                                  09/03/2021  14:20:36  PAGE 49


  C:94F7H         PUBLIC        msj_lcd_informativo
  C:BCD0H         PUBLIC        sel_Dir1
  C:BCD7H         PUBLIC        sel_Dir2
  C:BBF6H         PUBLIC        Botton
  C:BCADH         PUBLIC        sel_Funcion
  -------         PROC          SEL_FUNCION
  C:BCADH         LINE#         34
  C:BCADH         LINE#         35
  C:BCADH         LINE#         36
  C:BCAFH         LINE#         37
  C:BCB1H         LINE#         38
  C:BCB3H         LINE#         39
  -------         ENDPROC       SEL_FUNCION
  -------         PROC          SEL_AUTO
  C:BCB4H         LINE#         41
  C:BCB4H         LINE#         42
  C:BCB4H         LINE#         43
  C:BCB6H         LINE#         44
  C:BCB8H         LINE#         45
  C:BCBAH         LINE#         46
  -------         ENDPROC       SEL_AUTO
  -------         PROC          SEL_PULSA
  C:BCBBH         LINE#         48
  C:BCBBH         LINE#         49
  C:BCBBH         LINE#         50
  C:BCBDH         LINE#         51
  C:BCBFH         LINE#         52
  C:BCC1H         LINE#         53
  -------         ENDPROC       SEL_PULSA
  -------         PROC          SEL_SENSOR2
  C:BCC2H         LINE#         56
  C:BCC2H         LINE#         57
  C:BCC2H         LINE#         58
  C:BCC4H         LINE#         59
  C:BCC6H         LINE#         60
  C:BCC8H         LINE#         61
  -------         ENDPROC       SEL_SENSOR2
  -------         PROC          SEL_SENSOR1
  C:BCC9H         LINE#         63
  C:BCC9H         LINE#         64
  C:BCC9H         LINE#         65
  C:BCCBH         LINE#         66
  C:BCCDH         LINE#         67
  C:BCCFH         LINE#         68
  -------         ENDPROC       SEL_SENSOR1
  -------         PROC          SEL_DIR1
  C:BCD0H         LINE#         70
  C:BCD0H         LINE#         71
  C:BCD0H         LINE#         72
  C:BCD2H         LINE#         73
  C:BCD4H         LINE#         74
  C:BCD6H         LINE#         75
  -------         ENDPROC       SEL_DIR1
  -------         PROC          SEL_DIR2
  C:BCD7H         LINE#         77
  C:BCD7H         LINE#         78
  C:BCD7H         LINE#         79
BL51 BANKED LINKER/LOCATER V6.22.2.0                                                  09/03/2021  14:20:36  PAGE 50


  C:BCD9H         LINE#         80
  C:BCDBH         LINE#         81
  C:BCDDH         LINE#         82
  -------         ENDPROC       SEL_DIR2
  -------         PROC          BOTTON
  C:BBF6H         LINE#         83
  C:BBF6H         LINE#         84
  C:BBF6H         LINE#         85
  C:BBF9H         LINE#         86
  C:BBFCH         LINE#         87
  C:BBFCH         LINE#         88
  C:BC05H         LINE#         89
  C:BC07H         LINE#         90
  C:BC07H         LINE#         92
  -------         ENDPROC       BOTTON
  -------         PROC          VALIDASENSOR
  -------         DO            
  D:0007H         SYMBOL        Valido
  D:0004H         SYMBOL        Tmin
  -------         ENDDO         
  C:BAF5H         LINE#         94
  C:BAF5H         LINE#         95
  C:BAF5H         LINE#         97
  C:BAF7H         LINE#         98
  C:BAFBH         LINE#         99
  C:BB06H         LINE#         100
  C:BB06H         LINE#         101
  C:BB0BH         LINE#         102
  C:BB0FH         LINE#         103
  C:BB0FH         LINE#         104
  C:BB11H         LINE#         105
  C:BB11H         LINE#         106
  C:BB13H         LINE#         107
  C:BB13H         LINE#         108
  -------         ENDPROC       VALIDASENSOR
  -------         PROC          VALIDASENSOR_CERO
  -------         DO            
  D:0007H         SYMBOL        Valido
  D:0004H         SYMBOL        Tmin
  -------         ENDDO         
  C:BA72H         LINE#         109
  C:BA72H         LINE#         110
  C:BA72H         LINE#         112
  C:BA74H         LINE#         113
  C:BA78H         LINE#         114
  C:BA87H         LINE#         115
  C:BA87H         LINE#         116
  C:BA8CH         LINE#         117
  C:BA90H         LINE#         118
  C:BA90H         LINE#         119
  C:BA91H         LINE#         120
  C:BA91H         LINE#         121
  C:BA93H         LINE#         122
  C:BA93H         LINE#         123
  -------         ENDPROC       VALIDASENSOR_CERO
  -------         PROC          DIR_BOARD
  -------         DO            
BL51 BANKED LINKER/LOCATER V6.22.2.0                                                  09/03/2021  14:20:36  PAGE 51


  X:0033H         SYMBOL        Board
  D:0007H         SYMBOL        Board_High
  -------         ENDDO         
  C:B2E9H         LINE#         127
  C:B2E9H         LINE#         128
  C:B2E9H         LINE#         129
  C:B2EFH         LINE#         131
  C:B2F2H         LINE#         132
  C:B2F5H         LINE#         133
  C:B2F5H         LINE#         134
  C:B2F8H         LINE#         135
  C:B2F8H         LINE#         136
  C:B2FBH         LINE#         137
  C:B2FEH         LINE#         138
  C:B2FEH         LINE#         139
  C:B305H         LINE#         140
  C:B305H         LINE#         141
  C:B30DH         LINE#         142
  C:B30DH         LINE#         143
  C:B315H         LINE#         145
  C:B318H         LINE#         146
  C:B318H         LINE#         147
  C:B31EH         LINE#         148
  C:B31EH         LINE#         149
  C:B320H         LINE#         150
  C:B322H         LINE#         151
  C:B324H         LINE#         152
  C:B324H         LINE#         154
  C:B324H         LINE#         155
  C:B32BH         LINE#         156
  -------         ENDPROC       DIR_BOARD
  -------         PROC          DIR_BOARD_MONITOR
  -------         DO            
  D:0007H         SYMBOL        Board_High
  -------         ENDDO         
  C:BB7EH         LINE#         157
  C:BB7EH         LINE#         158
  C:BB7EH         LINE#         161
  C:BB87H         LINE#         162
  C:BB8AH         LINE#         163
  C:BB8AH         LINE#         164
  C:BB8DH         LINE#         165
  C:BB8DH         LINE#         166
  C:BB8FH         LINE#         167
  C:BB8FH         LINE#         168
  C:BB8FH         LINE#         169
  C:BB93H         LINE#         170
  -------         ENDPROC       DIR_BOARD_MONITOR
  -------         PROC          VALIDA_SENSOR1_AUTO
  -------         DO            
  X:0012H         SYMBOL        sensor
  -------         ENDDO         
  C:ADF0H         LINE#         174
  C:ADF0H         LINE#         175
  C:ADF0H         LINE#         177
  C:ADF3H         LINE#         178
  C:ADF6H         LINE#         179
BL51 BANKED LINKER/LOCATER V6.22.2.0                                                  09/03/2021  14:20:36  PAGE 52


  C:ADF9H         LINE#         180
  C:ADFEH         LINE#         181
  C:ADFEH         LINE#         182
  C:AE05H         LINE#         183
  C:AE09H         LINE#         184
  C:AE09H         LINE#         185
  C:AE09H         LINE#         186
  C:AE0BH         LINE#         188
  C:AE0BH         LINE#         189
  C:AE12H         LINE#         190
  C:AE17H         LINE#         191
  C:AE17H         LINE#         192
  C:AE17H         LINE#         193
  C:AE17H         LINE#         196
  C:AE19H         LINE#         198
  C:AE1CH         LINE#         199
  C:AE21H         LINE#         200
  C:AE21H         LINE#         202
  C:AE28H         LINE#         203
  C:AE2EH         LINE#         204
  C:AE34H         LINE#         205
  C:AE37H         LINE#         206
  C:AE39H         LINE#         208
  C:AE39H         LINE#         209
  C:AE40H         LINE#         210
  C:AE45H         LINE#         211
  C:AE45H         LINE#         214
  C:AE45H         LINE#         216
  C:AE4AH         LINE#         217
  -------         ENDPROC       VALIDA_SENSOR1_AUTO
  -------         PROC          VALIDASENSORESPASO
  -------         DO            
  X:0011H         SYMBOL        sensor
  -------         ENDDO         
  C:B784H         LINE#         222
  C:B784H         LINE#         223
  C:B784H         LINE#         225
  C:B787H         LINE#         226
  C:B78AH         LINE#         227
  C:B78AH         LINE#         228
  C:B798H         LINE#         229
  C:B798H         LINE#         230
  C:B7A0H         LINE#         232
  C:B7A2H         LINE#         234
  C:B7A2H         LINE#         235
  C:B7A8H         LINE#         236
  C:B7AAH         LINE#         237
  C:B7AAH         LINE#         238
  C:B7AAH         LINE#         239
  C:B7AAH         LINE#         240
  C:B7B3H         LINE#         241
  C:B7B6H         LINE#         242
  C:B7B6H         LINE#         243
  C:B7BBH         LINE#         244
  -------         ENDPROC       VALIDASENSORESPASO
  -------         PROC          MSJ_LCD_INFORMATIVO
  -------         DO            
BL51 BANKED LINKER/LOCATER V6.22.2.0                                                  09/03/2021  14:20:36  PAGE 53


  X:021BH         SYMBOL        contador
  X:0001H         SYMBOL        info
  X:021CH         SYMBOL        toggle
  -------         ENDDO         
  C:94F7H         LINE#         257
  C:94F7H         LINE#         258
  C:94F7H         LINE#         260
  C:94FCH         LINE#         262
  C:9502H         LINE#         263
  C:950FH         LINE#         264
  C:950FH         LINE#         266
  C:9511H         LINE#         267
  C:9514H         LINE#         268
  C:9520H         LINE#         269
  C:9520H         LINE#         270
  C:952AH         LINE#         271
  C:952AH         LINE#         273
  C:9533H         LINE#         274
  C:953BH         LINE#         275
  C:9543H         LINE#         276
  C:954FH         LINE#         277
  C:954FH         LINE#         279
  C:9552H         LINE#         280
  C:9552H         LINE#         281
  C:9554H         LINE#         282
  C:9557H         LINE#         283
  C:955DH         LINE#         284
  C:955DH         LINE#         285
  C:956BH         LINE#         286
  C:956BH         LINE#         287
  C:9571H         LINE#         288
  C:9571H         LINE#         289
  C:9573H         LINE#         290
  C:9581H         LINE#         291
  C:9581H         LINE#         292
  C:958AH         LINE#         293
  C:958DH         LINE#         294
  C:958DH         LINE#         295
  C:9592H         LINE#         296
  C:9595H         LINE#         297
  C:959AH         LINE#         298
  C:959AH         LINE#         299
  C:959AH         LINE#         300
  C:959AH         LINE#         301
  C:959AH         LINE#         302
  C:959DH         LINE#         303
  C:95A0H         LINE#         304
  C:95A0H         LINE#         305
  C:95A5H         LINE#         306
  C:95A5H         LINE#         307
  C:95A5H         LINE#         308
  -------         ENDPROC       MSJ_LCD_INFORMATIVO
  -------         ENDMOD        IO_SENSORES

  -------         MODULE        PANTALLAS
  C:0000H         SYMBOL        _ICE_DUMMY_
  D:0080H         PUBLIC        P0
BL51 BANKED LINKER/LOCATER V6.22.2.0                                                  09/03/2021  14:20:36  PAGE 54


  C:A958H         PUBLIC        Reloj_Pantalla_Lcd
  C:2D60H         PUBLIC        _PantallaLCD
  C:B2ADH         PUBLIC        _LCD_txt
  C:A5DAH         PUBLIC        _Raspberry_data
  C:BA0CH         PUBLIC        _tx_chrlcd
  C:268FH         SYMBOL        _?ix1000
  C:2695H         SYMBOL        _?ix1001
  C:269BH         SYMBOL        _?ix1002
  C:26C3H         SYMBOL        _?ix1003
  C:B219H         PUBLIC        _LCD_txt_num_char
  C:4B71H         PUBLIC        _PantallaLCD_LINEA_2
  B:0098H.4       PUBLIC        REN
  B:0080H.7       PUBLIC        sel_com
  -------         PROC          _PANTALLALCD
  X:0018H         SYMBOL        cod_msg
  -------         DO            
  X:0019H         SYMBOL        Ini_LCD_Line_one
  X:001FH         SYMBOL        num_chr
  X:0020H         SYMBOL        msjpantalla
  -------         ENDDO         
  C:2D60H         LINE#         96
  C:2D65H         LINE#         97
  C:2D65H         LINE#         99
  C:2D78H         LINE#         108
  C:2D7AH         LINE#         110
  C:2D83H         LINE#         111
  C:2D83H         LINE#         112
  C:2D8DH         LINE#         114
  C:2DE9H         LINE#         115
  C:2DE9H         LINE#         117
  C:2DE9H         LINE#         118
  C:2DF7H         LINE#         119
  C:2DFDH         LINE#         120
  C:2E00H         LINE#         121
  C:2E06H         LINE#         122
  C:2E09H         LINE#         124
  C:2E09H         LINE#         126
  C:2E17H         LINE#         127
  C:2E1DH         LINE#         128
  C:2E20H         LINE#         129
  C:2E26H         LINE#         130
  C:2E29H         LINE#         132
  C:2E29H         LINE#         134
  C:2E37H         LINE#         135
  C:2E3DH         LINE#         136
  C:2E40H         LINE#         137
  C:2E46H         LINE#         138
  C:2E49H         LINE#         139
  C:2E49H         LINE#         140
  C:2E57H         LINE#         141
  C:2E5DH         LINE#         142
  C:2E60H         LINE#         143
  C:2E66H         LINE#         144
  C:2E69H         LINE#         145
  C:2E69H         LINE#         146
  C:2E77H         LINE#         147
  C:2E7DH         LINE#         148
BL51 BANKED LINKER/LOCATER V6.22.2.0                                                  09/03/2021  14:20:36  PAGE 55


  C:2E80H         LINE#         149
  C:2E86H         LINE#         150
  C:2E89H         LINE#         151
  C:2E89H         LINE#         152
  C:2E97H         LINE#         153
  C:2E9DH         LINE#         154
  C:2EA0H         LINE#         155
  C:2EA6H         LINE#         156
  C:2EA9H         LINE#         157
  C:2EA9H         LINE#         159
  C:2EB7H         LINE#         160
  C:2EBDH         LINE#         161
  C:2EC0H         LINE#         162
  C:2EC6H         LINE#         163
  C:2EC9H         LINE#         164
  C:2EC9H         LINE#         170
  C:2EC9H         LINE#         171
  C:2ED7H         LINE#         172
  C:2EDDH         LINE#         173
  C:2EE0H         LINE#         174
  C:2EE6H         LINE#         175
  C:2EE9H         LINE#         176
  C:2EE9H         LINE#         177
  C:2EF7H         LINE#         178
  C:2EFDH         LINE#         179
  C:2F00H         LINE#         180
  C:2F06H         LINE#         181
  C:2F09H         LINE#         183
  C:2F09H         LINE#         184
  C:2F17H         LINE#         185
  C:2F1DH         LINE#         186
  C:2F20H         LINE#         187
  C:2F26H         LINE#         188
  C:2F29H         LINE#         190
  C:2F29H         LINE#         191
  C:2F37H         LINE#         192
  C:2F3DH         LINE#         193
  C:2F40H         LINE#         194
  C:2F46H         LINE#         195
  C:2F49H         LINE#         200
  C:2F49H         LINE#         202
  C:2F57H         LINE#         203
  C:2F5DH         LINE#         204
  C:2F60H         LINE#         205
  C:2F66H         LINE#         206
  C:2F69H         LINE#         208
  C:2F69H         LINE#         210
  C:2F77H         LINE#         211
  C:2F7DH         LINE#         212
  C:2F80H         LINE#         213
  C:2F86H         LINE#         214
  C:2F89H         LINE#         216
  C:2F89H         LINE#         217
  C:2F97H         LINE#         218
  C:2F9DH         LINE#         219
  C:2FA0H         LINE#         220
  C:2FA6H         LINE#         221
BL51 BANKED LINKER/LOCATER V6.22.2.0                                                  09/03/2021  14:20:36  PAGE 56


  C:2FA9H         LINE#         223
  C:2FA9H         LINE#         225
  C:2FB7H         LINE#         226
  C:2FBDH         LINE#         227
  C:2FC0H         LINE#         228
  C:2FC6H         LINE#         229
  C:2FC9H         LINE#         231
  C:2FC9H         LINE#         233
  C:2FD7H         LINE#         234
  C:2FDDH         LINE#         235
  C:2FE0H         LINE#         236
  C:2FE6H         LINE#         237
  C:2FE9H         LINE#         239
  C:2FE9H         LINE#         240
  C:2FF7H         LINE#         241
  C:2FFDH         LINE#         242
  C:3000H         LINE#         243
  C:3006H         LINE#         244
  C:3009H         LINE#         246
  C:3009H         LINE#         247
  C:3017H         LINE#         248
  C:301DH         LINE#         249
  C:3020H         LINE#         250
  C:3026H         LINE#         251
  C:3029H         LINE#         253
  C:3029H         LINE#         255
  C:3037H         LINE#         256
  C:303DH         LINE#         257
  C:3040H         LINE#         258
  C:3046H         LINE#         259
  C:3049H         LINE#         261
  C:3049H         LINE#         262
  C:3057H         LINE#         263
  C:305DH         LINE#         264
  C:3060H         LINE#         265
  C:3066H         LINE#         266
  C:3069H         LINE#         267
  C:3069H         LINE#         268
  C:3077H         LINE#         269
  C:307DH         LINE#         270
  C:3080H         LINE#         271
  C:3086H         LINE#         272
  C:3089H         LINE#         273
  C:3089H         LINE#         274
  C:3097H         LINE#         275
  C:309DH         LINE#         276
  C:30A0H         LINE#         277
  C:30A6H         LINE#         278
  C:30A9H         LINE#         279
  C:30A9H         LINE#         280
  C:30B7H         LINE#         281
  C:30BAH         LINE#         282
  C:30C0H         LINE#         283
  C:30C2H         LINE#         287
  C:30C2H         LINE#         288
  C:30D0H         LINE#         289
  C:30D6H         LINE#         290
BL51 BANKED LINKER/LOCATER V6.22.2.0                                                  09/03/2021  14:20:36  PAGE 57


  C:30D9H         LINE#         291
  C:30DFH         LINE#         292
  C:30E1H         LINE#         293
  C:30E1H         LINE#         294
  C:30EFH         LINE#         295
  C:30F5H         LINE#         296
  C:30F8H         LINE#         297
  C:30FEH         LINE#         298
  C:3100H         LINE#         299
  C:3100H         LINE#         300
  C:310EH         LINE#         301
  C:3114H         LINE#         302
  C:3117H         LINE#         303
  C:3122H         LINE#         304
  C:3122H         LINE#         313
  C:3122H         LINE#         315
  C:3122H         LINE#         316
  C:3122H         LINE#         317
  C:3124H         LINE#         319
  C:3125H         LINE#         321
  C:3125H         LINE#         322
  C:3127H         LINE#         323
  C:3195H         LINE#         324
  C:3195H         LINE#         327
  C:3195H         LINE#         328
  C:31A1H         LINE#         329
  C:31A1H         LINE#         331
  C:31A4H         LINE#         332
  C:31A4H         LINE#         335
  C:31B0H         LINE#         336
  C:31B0H         LINE#         337
  C:31B3H         LINE#         339
  C:31B3H         LINE#         340
  C:31BFH         LINE#         341
  C:31BFH         LINE#         343
  C:31C2H         LINE#         344
  C:31C2H         LINE#         345
  C:31CEH         LINE#         346
  C:31CEH         LINE#         348
  C:31D1H         LINE#         349
  C:31D1H         LINE#         350
  C:31DDH         LINE#         351
  C:31DDH         LINE#         353
  C:31E0H         LINE#         354
  C:31E0H         LINE#         355
  C:31ECH         LINE#         356
  C:31ECH         LINE#         358
  C:31EFH         LINE#         359
  C:31EFH         LINE#         360
  C:31FBH         LINE#         361
  C:31FBH         LINE#         363
  C:31FEH         LINE#         364
  C:31FEH         LINE#         365
  C:320AH         LINE#         366
  C:320AH         LINE#         368
  C:320DH         LINE#         369
  C:320DH         LINE#         370
BL51 BANKED LINKER/LOCATER V6.22.2.0                                                  09/03/2021  14:20:36  PAGE 58


  C:3219H         LINE#         371
  C:3219H         LINE#         373
  C:321CH         LINE#         374
  C:321CH         LINE#         375
  C:3228H         LINE#         376
  C:3228H         LINE#         378
  C:322BH         LINE#         380
  C:322BH         LINE#         381
  C:3237H         LINE#         382
  C:3237H         LINE#         384
  C:323AH         LINE#         386
  C:323AH         LINE#         387
  C:3246H         LINE#         388
  C:3246H         LINE#         390
  C:3249H         LINE#         392
  C:3249H         LINE#         393
  C:3255H         LINE#         394
  C:3255H         LINE#         396
  C:3258H         LINE#         400
  C:3258H         LINE#         401
  C:3264H         LINE#         402
  C:3264H         LINE#         404
  C:3267H         LINE#         406
  C:3267H         LINE#         407
  C:3273H         LINE#         408
  C:3273H         LINE#         410
  C:3276H         LINE#         412
  C:3276H         LINE#         413
  C:3282H         LINE#         414
  C:3282H         LINE#         417
  C:3285H         LINE#         418
  C:3285H         LINE#         419
  C:3291H         LINE#         420
  C:3291H         LINE#         422
  C:3294H         LINE#         423
  C:3294H         LINE#         424
  C:32A0H         LINE#         425
  C:32A0H         LINE#         427
  C:32A3H         LINE#         428
  C:32A3H         LINE#         429
  C:32AFH         LINE#         430
  C:32AFH         LINE#         432
  C:32B2H         LINE#         433
  C:32B2H         LINE#         434
  C:32BEH         LINE#         435
  C:32BEH         LINE#         437
  C:32C1H         LINE#         439
  C:32C1H         LINE#         440
  C:32CDH         LINE#         441
  C:32CDH         LINE#         443
  C:32D0H         LINE#         445
  C:32D0H         LINE#         446
  C:32DCH         LINE#         447
  C:32DCH         LINE#         449
  C:32DFH         LINE#         450
  C:32DFH         LINE#         451
  C:32EBH         LINE#         452
BL51 BANKED LINKER/LOCATER V6.22.2.0                                                  09/03/2021  14:20:36  PAGE 59


  C:32EBH         LINE#         454
  C:32EEH         LINE#         455
  C:32EEH         LINE#         456
  C:32FAH         LINE#         457
  C:32FAH         LINE#         459
  C:32FCH         LINE#         460
  C:32FCH         LINE#         461
  C:3308H         LINE#         462
  C:3308H         LINE#         464
  C:330AH         LINE#         466
  C:330AH         LINE#         467
  C:3316H         LINE#         468
  C:3316H         LINE#         470
  C:3318H         LINE#         471
  C:3318H         LINE#         472
  C:3324H         LINE#         473
  C:3324H         LINE#         475
  C:3326H         LINE#         476
  C:3326H         LINE#         477
  C:3332H         LINE#         478
  C:3332H         LINE#         480
  C:3334H         LINE#         482
  C:3334H         LINE#         483
  C:3340H         LINE#         484
  C:3340H         LINE#         486
  C:3342H         LINE#         489
  C:3342H         LINE#         490
  C:334EH         LINE#         491
  C:334EH         LINE#         493
  C:3350H         LINE#         494
  C:3350H         LINE#         495
  C:335CH         LINE#         496
  C:335CH         LINE#         498
  C:335EH         LINE#         499
  C:335EH         LINE#         500
  C:336AH         LINE#         501
  C:336AH         LINE#         502
  C:336CH         LINE#         504
  C:336CH         LINE#         505
  C:337BH         LINE#         506
  C:3384H         LINE#         507
  C:3384H         LINE#         512
  C:3384H         LINE#         513
  C:3384H         LINE#         514
  C:3384H         LINE#         516
  C:3389H         LINE#         517
  C:338BH         LINE#         518
  C:338BH         LINE#         522
  -------         ENDPROC       _PANTALLALCD
  -------         PROC          _PANTALLALCD_LINEA_2
  X:0011H         SYMBOL        cod_msg
  X:0012H         SYMBOL        buffer
  -------         DO            
  X:0015H         SYMBOL        Ini_LCD_Line_one
  X:001BH         SYMBOL        num_chr
  X:001CH         SYMBOL        msjpantalla
  -------         ENDDO         
BL51 BANKED LINKER/LOCATER V6.22.2.0                                                  09/03/2021  14:20:36  PAGE 60


  C:4B71H         LINE#         523
  C:4B7FH         LINE#         524
  C:4B7FH         LINE#         526
  C:4B92H         LINE#         528
  C:4BA5H         LINE#         535
  C:4BA7H         LINE#         537
  C:4BB0H         LINE#         538
  C:4BB0H         LINE#         541
  C:4BBEH         LINE#         542
  C:4BBEH         LINE#         544
  C:4BBEH         LINE#         545
  C:4BC1H         LINE#         546
  C:4BCFH         LINE#         547
  C:4BE4H         LINE#         548
  C:4BEAH         LINE#         549
  C:4BF0H         LINE#         550
  C:4BF6H         LINE#         551
  C:4BF6H         LINE#         552
  C:4BF8H         LINE#         553
  C:4BF8H         LINE#         554
  C:4BFBH         LINE#         555
  C:4C09H         LINE#         556
  C:4C1EH         LINE#         557
  C:4C24H         LINE#         558
  C:4C2AH         LINE#         559
  C:4C35H         LINE#         560
  C:4C45H         LINE#         561
  C:4C45H         LINE#         565
  C:4C45H         LINE#         567
  C:4C45H         LINE#         569
  C:4C45H         LINE#         570
  C:4C47H         LINE#         571
  C:4C48H         LINE#         573
  C:4C48H         LINE#         574
  C:4C4AH         LINE#         576
  C:4C72H         LINE#         577
  C:4C72H         LINE#         578
  C:4C72H         LINE#         581
  C:4C7EH         LINE#         583
  C:4C7EH         LINE#         585
  C:4C7EH         LINE#         588
  C:4C7EH         LINE#         591
  C:4C81H         LINE#         593
  C:4C81H         LINE#         594
  C:4C8DH         LINE#         595
  C:4C8DH         LINE#         596
  C:4C8DH         LINE#         597
  C:4C8DH         LINE#         598
  C:4C8DH         LINE#         599
  C:4C8DH         LINE#         601
  C:4C90H         LINE#         602
  C:4C90H         LINE#         604
  C:4C9CH         LINE#         605
  C:4C9FH         LINE#         606
  C:4CA2H         LINE#         607
  C:4CA2H         LINE#         609
  C:4CABH         LINE#         611
BL51 BANKED LINKER/LOCATER V6.22.2.0                                                  09/03/2021  14:20:36  PAGE 61


  C:4CABH         LINE#         612
  C:4CADH         LINE#         614
  C:4CADH         LINE#         616
  C:4CBEH         LINE#         618
  C:4CC1H         LINE#         620
  C:4CC1H         LINE#         621
  C:4CCCH         LINE#         622
  C:4CCCH         LINE#         623
  C:4CD3H         LINE#         625
  C:4CE9H         LINE#         627
  C:4D00H         LINE#         628
  C:4D03H         LINE#         630
  C:4D03H         LINE#         631
  C:4D0AH         LINE#         633
  C:4D0AH         LINE#         634
  C:4D0AH         LINE#         637
  C:4D0DH         LINE#         638
  C:4D0DH         LINE#         639
  C:4D1CH         LINE#         640
  C:4D3AH         LINE#         641
  C:4D51H         LINE#         643
  C:4D51H         LINE#         645
  C:4D54H         LINE#         646
  C:4D54H         LINE#         647
  C:4D63H         LINE#         648
  C:4D76H         LINE#         649
  C:4D90H         LINE#         650
  C:4DAEH         LINE#         651
  C:4DC5H         LINE#         652
  C:4DC5H         LINE#         654
  C:4DC7H         LINE#         655
  C:4DC7H         LINE#         656
  C:4DD6H         LINE#         657
  C:4DF4H         LINE#         658
  C:4E0BH         LINE#         659
  C:4E0EH         LINE#         660
  C:4E0EH         LINE#         661
  C:4E0EH         LINE#         663
  C:4E0EH         LINE#         664
  C:4E0EH         LINE#         666
  C:4E13H         LINE#         667
  C:4E15H         LINE#         668
  C:4E15H         LINE#         669
  -------         ENDPROC       _PANTALLALCD_LINEA_2
  C:BA03H         SYMBOL        L?0176
  C:BA06H         SYMBOL        L?0177
  C:BA07H         SYMBOL        L?0178
  -------         PROC          L?0175
  -------         ENDPROC       L?0175
  C:BA03H         SYMBOL        L?0176
  C:BA06H         SYMBOL        L?0177
  C:BA07H         SYMBOL        L?0178
  -------         PROC          _TX_CHRLCD
  D:0007H         SYMBOL        data_com
  X:004DH         SYMBOL        enable_char_add
  -------         DO            
  X:004EH         SYMBOL        d
BL51 BANKED LINKER/LOCATER V6.22.2.0                                                  09/03/2021  14:20:36  PAGE 62


  -------         ENDDO         
  C:BA0CH         LINE#         675
  C:BA11H         LINE#         676
  C:BA11H         LINE#         678
  C:BA19H         LINE#         679
  C:BA29H         LINE#         681
  -------         ENDPROC       _TX_CHRLCD
  -------         PROC          L?0181
  -------         ENDPROC       L?0181
  -------         PROC          _LCD_TXT
  X:0048H         SYMBOL        msg
  X:004BH         SYMBOL        enable_char_add
  -------         DO            
  X:004CH         SYMBOL        i
  -------         ENDDO         
  C:B2ADH         LINE#         688
  C:B2BBH         LINE#         689
  C:B2BBH         LINE#         692
  C:B2D8H         LINE#         693
  C:B2D8H         LINE#         694
  C:B2E0H         LINE#         695
  C:B2E8H         LINE#         696
  -------         ENDPROC       _LCD_TXT
  -------         PROC          _LCD_TXT_NUM_CHAR
  X:001EH         SYMBOL        msg
  X:0021H         SYMBOL        length_char
  X:0022H         SYMBOL        enable_char_add
  -------         DO            
  X:0023H         SYMBOL        i
  -------         ENDDO         
  C:B219H         LINE#         703
  C:B227H         LINE#         704
  C:B227H         LINE#         707
  C:B23AH         LINE#         708
  C:B23AH         LINE#         709
  C:B256H         LINE#         710
  C:B25EH         LINE#         711
  -------         ENDPROC       _LCD_TXT_NUM_CHAR
  C:A5D4H         SYMBOL        L?0180
  -------         PROC          L?0179
  -------         ENDPROC       L?0179
  C:A5D4H         SYMBOL        L?0180
  -------         PROC          _RASPBERRY_DATA
  X:0048H         SYMBOL        msjpantalla
  -------         DO            
  X:004BH         SYMBOL        i
  X:004CH         SYMBOL        lenth_cadena
  X:004DH         SYMBOL        d
  -------         ENDDO         
  C:A5DAH         LINE#         713
  C:A5E5H         LINE#         714
  C:A5E5H         LINE#         721
  C:A5EDH         LINE#         723
  C:A5FFH         LINE#         724
  C:A5FFH         LINE#         726
  C:A611H         LINE#         727
  C:A611H         LINE#         728
BL51 BANKED LINKER/LOCATER V6.22.2.0                                                  09/03/2021  14:20:36  PAGE 63


  C:A616H         LINE#         729
  C:A634H         LINE#         731
  C:A63CH         LINE#         734
  C:A64EH         LINE#         735
  C:A64EH         LINE#         737
  C:A653H         LINE#         739
  -------         ENDPROC       _RASPBERRY_DATA
  -------         PROC          RELOJ_PANTALLA_LCD
  -------         DO            
  X:0011H         SYMBOL        Ini_Clock_LCD
  -------         ENDDO         
  C:A958H         LINE#         747
  C:A958H         LINE#         748
  C:A958H         LINE#         750
  C:A96BH         LINE#         752
  C:A971H         LINE#         753
  C:A971H         LINE#         754
  C:A973H         LINE#         755
  C:A97CH         LINE#         759
  C:A97EH         LINE#         760
  C:A98EH         LINE#         762
  C:A990H         LINE#         763
  C:A992H         LINE#         765
  C:A993H         LINE#         767
  C:A993H         LINE#         768
  C:A995H         LINE#         769
  C:A99AH         LINE#         770
  C:A9A9H         LINE#         772
  C:A9B2H         LINE#         773
  C:A9C9H         LINE#         774
  C:A9D2H         LINE#         777
  C:A9D4H         LINE#         778
  C:A9D4H         LINE#         779
  -------         ENDPROC       RELOJ_PANTALLA_LCD
  -------         ENDMOD        PANTALLAS

  -------         MODULE        PROG
  C:0000H         SYMBOL        _ICE_DUMMY_
  C:5965H         PUBLIC        Prog_fecha_vencimiento
  C:69FAH         PUBLIC        Prog_Sin_Cobro
  C:74ABH         PUBLIC        _Ver_Horario_Desde_Hasta
  C:78E5H         PUBLIC        Prog_debug
  C:7BD9H         PUBLIC        Prog_AntiPassBack
  C:9EEDH         PUBLIC        _GetOption
  X:01BAH         PUBLIC        validacion
  C:7DD1H         PUBLIC        Prog_Validar_Tipo_Vehiculo_Mensual
  X:01C5H         PUBLIC        cursor
  C:7391H         PUBLIC        _Prog_Horarios_on_off
  C:9844H         PUBLIC        Show
  C:4222H         PUBLIC        Ver_Prog
  C:B894H         PUBLIC        Addr_Horarios
  C:938FH         PUBLIC        prog_id_cliente
  C:B334H         PUBLIC        _ValidarClave
  C:530FH         PUBLIC        menu
  C:79E1H         PUBLIC        Prog_Use_Lpr
  C:AC76H         PUBLIC        _ListaComandos
  C:141FH         SYMBOL        _?ix1000
BL51 BANKED LINKER/LOCATER V6.22.2.0                                                  09/03/2021  14:20:36  PAGE 64


  C:142AH         SYMBOL        _?ix1001
  C:143AH         SYMBOL        _?ix1002
  C:144AH         SYMBOL        _?ix1003
  C:144EH         SYMBOL        _?ix1004
  C:68B5H         PUBLIC        Prog_Horarios
  C:1452H         SYMBOL        _?ix1005
  C:7ECDH         PUBLIC        Prog_Apb_Mensual
  C:7FC9H         PUBLIC        Prog_mensuales
  C:8F1FH         PUBLIC        Prog_tarjeta_automatica_o_boton
  C:5563H         PUBLIC        _hash_id
  C:48BAH         PUBLIC        _Prog_Horario_dias
  C:915CH         PUBLIC        Prog_tiempo_gracia
  C:A7E0H         PUBLIC        _IngresaDato
  X:01D9H         PUBLIC        comandos
  C:B0B6H         PUBLIC        First_Clave
  C:BB67H         PUBLIC        DisplayCursor
  C:7CD5H         PUBLIC        Prog_Placa
  C:909FH         PUBLIC        prog_cod_park
  C:6DB2H         PUBLIC        Ver_Horario
  C:7269H         PUBLIC        _Ver_Horario_dias
  C:576BH         PUBLIC        _Prog_Horario_Desde_Hasta
  C:7ADDH         PUBLIC        tipo_pantalla
  C:8474H         PUBLIC        Prog_Address_High_Board
  C:B437H         PUBLIC        _GetCMD
  -------         PROC          _HASH_ID
  X:005DH         SYMBOL        clave
  -------         DO            
  X:0060H         SYMBOL        len_clave
  X:0061H         SYMBOL        i
  X:01B6H         SYMBOL        temp
  X:01B8H         SYMBOL        temp1
  X:0062H         SYMBOL        aleatorio
  X:006DH         SYMBOL        suma
  X:007DH         SYMBOL        xxor
  X:008DH         SYMBOL        usuario1
  X:0098H         SYMBOL        vencimiento_password
  -------         ENDDO         
  C:5563H         LINE#         128
  C:556EH         LINE#         129
  C:556EH         LINE#         132
  C:5581H         LINE#         134
  C:5594H         LINE#         135
  C:55A7H         LINE#         139
  C:55B4H         LINE#         140
  C:55D0H         LINE#         142
  C:55D0H         LINE#         143
  C:55D4H         LINE#         144
  C:55D6H         LINE#         146
  C:55D6H         LINE#         147
  C:55DDH         LINE#         148
  C:55DDH         LINE#         149
  C:55F0H         LINE#         150
  C:5604H         LINE#         151
  C:5604H         LINE#         152
  C:5630H         LINE#         153
  C:563BH         LINE#         154
  C:5648H         LINE#         155
BL51 BANKED LINKER/LOCATER V6.22.2.0                                                  09/03/2021  14:20:36  PAGE 65


  C:5666H         LINE#         156
  C:5671H         LINE#         157
  C:567EH         LINE#         158
  C:56A2H         LINE#         159
  C:56AAH         LINE#         160
  C:56AAH         LINE#         161
  C:56AFH         LINE#         162
  C:56AFH         LINE#         163
  C:56C8H         LINE#         164
  C:56C8H         LINE#         165
  C:56D4H         LINE#         167
  C:56D4H         LINE#         168
  C:56E3H         LINE#         169
  C:56E3H         LINE#         170
  C:56EFH         LINE#         171
  C:56EFH         LINE#         172
  C:5708H         LINE#         173
  C:5708H         LINE#         174
  C:5713H         LINE#         175
  C:5713H         LINE#         176
  C:572CH         LINE#         177
  C:572CH         LINE#         178
  C:5737H         LINE#         179
  C:5737H         LINE#         180
  C:574CH         LINE#         182
  C:5755H         LINE#         183
  C:5764H         LINE#         185
  C:576AH         LINE#         186
  -------         ENDPROC       _HASH_ID
  -------         PROC          _LISTACOMANDOS
  X:0046H         SYMBOL        cmd
  -------         DO            
  X:0049H         SYMBOL        buf
  X:004CH         SYMBOL        i
  -------         ENDDO         
  C:AC76H         LINE#         193
  C:AC81H         LINE#         194
  C:AC81H         LINE#         198
  C:AC94H         LINE#         199
  C:AC94H         LINE#         200
  C:ACACH         LINE#         201
  C:ACC7H         LINE#         202
  C:ACCDH         LINE#         203
  C:ACD5H         LINE#         205
  C:ACD7H         LINE#         206
  -------         ENDPROC       _LISTACOMANDOS
  -------         PROC          L?0291
  -------         ENDPROC       L?0291
  -------         PROC          _VALIDARCLAVE
  X:005DH         SYMBOL        buffer
  -------         DO            
  X:0060H         SYMBOL        buf
  -------         ENDDO         
  C:B334H         LINE#         212
  C:B33FH         LINE#         213
  C:B33FH         LINE#         216
  C:B34EH         LINE#         217
BL51 BANKED LINKER/LOCATER V6.22.2.0                                                  09/03/2021  14:20:36  PAGE 66


  C:B369H         LINE#         218
  C:B36BH         LINE#         221
  C:B36DH         LINE#         222
  -------         ENDPROC       _VALIDARCLAVE
  -------         PROC          L?0292
  -------         ENDPROC       L?0292
  -------         PROC          _GETCMD
  X:005DH         SYMBOL        in
  -------         DO            
  X:0060H         SYMBOL        tokens
  -------         ENDDO         
  C:B437H         LINE#         229
  C:B442H         LINE#         230
  C:B442H         LINE#         231
  C:B455H         LINE#         232
  -------         ENDPROC       _GETCMD
  -------         PROC          L?0290
  -------         ENDPROC       L?0290
  -------         PROC          _GETOPTION
  X:0046H         SYMBOL        in
  -------         DO            
  X:0049H         SYMBOL        tokensSpace
  X:004DH         SYMBOL        tokensQuote
  -------         ENDDO         
  C:9EEDH         LINE#         238
  C:9EF8H         LINE#         239
  C:9EF8H         LINE#         240
  C:9F0BH         LINE#         241
  C:9F1EH         LINE#         244
  C:9F30H         LINE#         245
  C:9F3CH         LINE#         248
  C:9F43H         LINE#         249
  C:9F50H         LINE#         251
  C:9F69H         LINE#         252
  -------         ENDPROC       _GETOPTION
  -------         PROC          DISPLAYCURSOR
  C:BB67H         LINE#         257
  C:BB67H         LINE#         258
  C:BB67H         LINE#         259
  -------         ENDPROC       DISPLAYCURSOR
  C:A7DCH         SYMBOL        L?0289
  -------         PROC          L?0288
  -------         ENDPROC       L?0288
  C:A7DCH         SYMBOL        L?0289
  -------         PROC          _INGRESADATO
  X:0071H         SYMBOL        buffer
  X:0074H         SYMBOL        modo
  -------         DO            
  D:0006H         SYMBOL        i
  -------         ENDDO         
  C:A7E0H         LINE#         266
  C:A7EEH         LINE#         267
  C:A7EEH         LINE#         272
  C:A7EEH         LINE#         273
  C:A800H         LINE#         274
  C:A806H         LINE#         275
  C:A806H         LINE#         276
BL51 BANKED LINKER/LOCATER V6.22.2.0                                                  09/03/2021  14:20:36  PAGE 67


  C:A821H         LINE#         277
  C:A823H         LINE#         279
  C:A823H         LINE#         280
  C:A828H         LINE#         281
  C:A828H         LINE#         282
  C:A839H         LINE#         283
  C:A843H         LINE#         284
  C:A852H         LINE#         286
  C:A857H         LINE#         290
  -------         ENDPROC       _INGRESADATO
  -------         PROC          PROG_ID_CLIENTE
  -------         DO            
  X:0046H         SYMBOL        buffer
  X:0050H         SYMBOL        dataee
  -------         ENDDO         
  C:938FH         LINE#         307
  C:938FH         LINE#         308
  C:938FH         LINE#         312
  C:93A1H         LINE#         313
  C:93BEH         LINE#         315
  C:93D5H         LINE#         317
  C:93DEH         LINE#         318
  C:93E5H         LINE#         319
  C:93F6H         LINE#         320
  C:93FFH         LINE#         322
  C:9411H         LINE#         323
  C:942EH         LINE#         324
  -------         ENDPROC       PROG_ID_CLIENTE
  -------         PROC          PROG_COD_PARK
  -------         DO            
  X:0046H         SYMBOL        buffer
  X:0050H         SYMBOL        dataee
  -------         ENDDO         
  C:909FH         LINE#         329
  C:909FH         LINE#         330
  C:909FH         LINE#         334
  C:90B2H         LINE#         335
  C:90CFH         LINE#         337
  C:90E6H         LINE#         339
  C:90EFH         LINE#         340
  C:90FAH         LINE#         341
  C:910BH         LINE#         342
  C:9115H         LINE#         344
  C:9128H         LINE#         345
  C:9145H         LINE#         346
  -------         ENDPROC       PROG_COD_PARK
  -------         PROC          PROG_TIEMPO_GRACIA
  -------         DO            
  X:0046H         SYMBOL        buffer
  X:0050H         SYMBOL        dataee
  -------         ENDDO         
  C:915CH         LINE#         351
  C:915CH         LINE#         352
  C:915CH         LINE#         356
  C:916FH         LINE#         357
  C:918CH         LINE#         359
  C:91A3H         LINE#         361
BL51 BANKED LINKER/LOCATER V6.22.2.0                                                  09/03/2021  14:20:36  PAGE 68


  C:91ACH         LINE#         362
  C:91B7H         LINE#         363
  C:91C8H         LINE#         364
  C:91D2H         LINE#         366
  C:91E5H         LINE#         367
  C:9202H         LINE#         368
  -------         ENDPROC       PROG_TIEMPO_GRACIA
  -------         PROC          PROG_SIN_COBRO
  -------         DO            
  X:0046H         SYMBOL        buffer
  X:0050H         SYMBOL        dataee
  -------         ENDDO         
  C:69FAH         LINE#         374
  C:69FAH         LINE#         375
  C:69FAH         LINE#         381
  C:6A0DH         LINE#         382
  C:6A2AH         LINE#         383
  C:6A34H         LINE#         384
  C:6A34H         LINE#         385
  C:6A47H         LINE#         386
  C:6A49H         LINE#         387
  C:6A55H         LINE#         388
  C:6A55H         LINE#         389
  C:6A68H         LINE#         390
  C:6A6AH         LINE#         392
  C:6A6AH         LINE#         393
  C:6A81H         LINE#         394
  C:6A81H         LINE#         396
  C:6A8AH         LINE#         397
  C:6A95H         LINE#         398
  C:6AA6H         LINE#         399
  C:6AB0H         LINE#         401
  C:6AC3H         LINE#         402
  C:6AE0H         LINE#         403
  C:6AEAH         LINE#         404
  C:6AEAH         LINE#         405
  C:6AFDH         LINE#         406
  C:6AFFH         LINE#         407
  C:6B0BH         LINE#         408
  C:6B0BH         LINE#         409
  C:6B1EH         LINE#         410
  C:6B20H         LINE#         412
  C:6B20H         LINE#         413
  C:6B37H         LINE#         414
  C:6B37H         LINE#         416
  -------         ENDPROC       PROG_SIN_COBRO
  -------         PROC          PROG_DEBUG
  -------         DO            
  X:0046H         SYMBOL        buffer
  X:0050H         SYMBOL        dataee
  -------         ENDDO         
  C:78E5H         LINE#         422
  C:78E5H         LINE#         423
  C:78E5H         LINE#         428
  C:78F8H         LINE#         429
  C:7915H         LINE#         430
  C:791FH         LINE#         431
BL51 BANKED LINKER/LOCATER V6.22.2.0                                                  09/03/2021  14:20:36  PAGE 69


  C:791FH         LINE#         432
  C:7932H         LINE#         433
  C:7934H         LINE#         435
  C:7934H         LINE#         436
  C:794BH         LINE#         437
  C:794BH         LINE#         439
  C:7954H         LINE#         440
  C:795FH         LINE#         441
  C:7970H         LINE#         442
  C:797AH         LINE#         444
  C:798DH         LINE#         445
  C:79AAH         LINE#         446
  C:79B4H         LINE#         447
  C:79B4H         LINE#         448
  C:79C7H         LINE#         449
  C:79C9H         LINE#         451
  C:79C9H         LINE#         452
  C:79E0H         LINE#         453
  C:79E0H         LINE#         454
  -------         ENDPROC       PROG_DEBUG
  -------         PROC          PROG_USE_LPR
  -------         DO            
  X:0046H         SYMBOL        buffer
  X:0050H         SYMBOL        dataee
  -------         ENDDO         
  C:79E1H         LINE#         459
  C:79E1H         LINE#         460
  C:79E1H         LINE#         465
  C:79F4H         LINE#         466
  C:7A11H         LINE#         467
  C:7A1BH         LINE#         468
  C:7A1BH         LINE#         469
  C:7A2EH         LINE#         470
  C:7A30H         LINE#         472
  C:7A30H         LINE#         473
  C:7A47H         LINE#         474
  C:7A47H         LINE#         476
  C:7A50H         LINE#         477
  C:7A5BH         LINE#         478
  C:7A6CH         LINE#         479
  C:7A76H         LINE#         481
  C:7A89H         LINE#         482
  C:7AA6H         LINE#         483
  C:7AB0H         LINE#         484
  C:7AB0H         LINE#         485
  C:7AC3H         LINE#         486
  C:7AC5H         LINE#         488
  C:7AC5H         LINE#         489
  C:7ADCH         LINE#         490
  C:7ADCH         LINE#         491
  -------         ENDPROC       PROG_USE_LPR
  -------         PROC          TIPO_PANTALLA
  -------         DO            
  X:0046H         SYMBOL        buffer
  X:0050H         SYMBOL        dataee
  -------         ENDDO         
  C:7ADDH         LINE#         498
BL51 BANKED LINKER/LOCATER V6.22.2.0                                                  09/03/2021  14:20:36  PAGE 70


  C:7ADDH         LINE#         499
  C:7ADDH         LINE#         504
  C:7AF0H         LINE#         505
  C:7B0DH         LINE#         506
  C:7B17H         LINE#         507
  C:7B17H         LINE#         508
  C:7B2AH         LINE#         509
  C:7B2CH         LINE#         511
  C:7B2CH         LINE#         512
  C:7B43H         LINE#         513
  C:7B43H         LINE#         515
  C:7B4CH         LINE#         516
  C:7B57H         LINE#         517
  C:7B68H         LINE#         518
  C:7B72H         LINE#         520
  C:7B85H         LINE#         521
  C:7BA2H         LINE#         522
  C:7BACH         LINE#         523
  C:7BACH         LINE#         524
  C:7BBFH         LINE#         525
  C:7BC1H         LINE#         527
  C:7BC1H         LINE#         528
  C:7BD8H         LINE#         529
  C:7BD8H         LINE#         531
  -------         ENDPROC       TIPO_PANTALLA
  -------         PROC          PROG_TARJETA_AUTOMATICA_O_BOTON
  -------         DO            
  X:0046H         SYMBOL        buffer
  X:0050H         SYMBOL        dataee
  -------         ENDDO         
  C:8F1FH         LINE#         532
  C:8F1FH         LINE#         533
  C:8F1FH         LINE#         538
  C:8F32H         LINE#         539
  C:8F4FH         LINE#         540
  C:8F5BH         LINE#         541
  C:8F5BH         LINE#         542
  C:8F5FH         LINE#         543
  C:8F61H         LINE#         545
  C:8F61H         LINE#         546
  C:8F68H         LINE#         547
  C:8F68H         LINE#         549
  C:8F71H         LINE#         550
  C:8F7CH         LINE#         551
  C:8F8DH         LINE#         552
  C:8F97H         LINE#         554
  C:8FAAH         LINE#         555
  C:8FC7H         LINE#         556
  C:8FD3H         LINE#         557
  C:8FD3H         LINE#         558
  C:8FD7H         LINE#         559
  C:8FD9H         LINE#         561
  C:8FD9H         LINE#         562
  C:8FE0H         LINE#         563
  C:8FE0H         LINE#         564
  -------         ENDPROC       PROG_TARJETA_AUTOMATICA_O_BOTON
  -------         PROC          PROG_ANTIPASSBACK
BL51 BANKED LINKER/LOCATER V6.22.2.0                                                  09/03/2021  14:20:36  PAGE 71


  -------         DO            
  X:0046H         SYMBOL        buffer
  X:0050H         SYMBOL        dataee
  -------         ENDDO         
  C:7BD9H         LINE#         565
  C:7BD9H         LINE#         566
  C:7BD9H         LINE#         571
  C:7BECH         LINE#         572
  C:7C09H         LINE#         573
  C:7C13H         LINE#         574
  C:7C13H         LINE#         575
  C:7C26H         LINE#         576
  C:7C28H         LINE#         578
  C:7C28H         LINE#         579
  C:7C3FH         LINE#         580
  C:7C3FH         LINE#         582
  C:7C48H         LINE#         583
  C:7C53H         LINE#         584
  C:7C64H         LINE#         585
  C:7C6EH         LINE#         587
  C:7C81H         LINE#         588
  C:7C9EH         LINE#         589
  C:7CA8H         LINE#         590
  C:7CA8H         LINE#         591
  C:7CBBH         LINE#         592
  C:7CBDH         LINE#         594
  C:7CBDH         LINE#         595
  C:7CD4H         LINE#         596
  C:7CD4H         LINE#         597
  -------         ENDPROC       PROG_ANTIPASSBACK
  -------         PROC          PROG_PLACA
  -------         DO            
  X:0046H         SYMBOL        buffer
  X:0050H         SYMBOL        dataee
  -------         ENDDO         
  C:7CD5H         LINE#         598
  C:7CD5H         LINE#         599
  C:7CD5H         LINE#         604
  C:7CE8H         LINE#         605
  C:7D05H         LINE#         606
  C:7D0FH         LINE#         607
  C:7D0FH         LINE#         608
  C:7D22H         LINE#         609
  C:7D24H         LINE#         611
  C:7D24H         LINE#         612
  C:7D3BH         LINE#         613
  C:7D3BH         LINE#         615
  C:7D44H         LINE#         616
  C:7D4FH         LINE#         617
  C:7D60H         LINE#         618
  C:7D6AH         LINE#         620
  C:7D7DH         LINE#         621
  C:7D9AH         LINE#         622
  C:7DA4H         LINE#         623
  C:7DA4H         LINE#         624
  C:7DB7H         LINE#         625
  C:7DB9H         LINE#         627
BL51 BANKED LINKER/LOCATER V6.22.2.0                                                  09/03/2021  14:20:36  PAGE 72


  C:7DB9H         LINE#         628
  C:7DD0H         LINE#         629
  C:7DD0H         LINE#         630
  -------         ENDPROC       PROG_PLACA
  -------         PROC          PROG_ADDRESS_HIGH_BOARD
  -------         DO            
  X:0046H         SYMBOL        buffer
  X:0050H         SYMBOL        dataee
  -------         ENDDO         
  C:8474H         LINE#         631
  C:8474H         LINE#         632
  C:8474H         LINE#         637
  C:8487H         LINE#         638
  C:84A4H         LINE#         639
  C:84AEH         LINE#         640
  C:84AEH         LINE#         641
  C:84B2H         LINE#         642
  C:84B4H         LINE#         644
  C:84B4H         LINE#         645
  C:84CBH         LINE#         646
  C:84CBH         LINE#         648
  C:84D4H         LINE#         649
  C:84DFH         LINE#         650
  C:84F0H         LINE#         651
  C:84FAH         LINE#         653
  C:850DH         LINE#         654
  C:852AH         LINE#         655
  C:8534H         LINE#         656
  C:8534H         LINE#         657
  C:8538H         LINE#         658
  C:853AH         LINE#         660
  C:853AH         LINE#         661
  C:8551H         LINE#         662
  C:8551H         LINE#         663
  -------         ENDPROC       PROG_ADDRESS_HIGH_BOARD
  -------         PROC          ADDR_HORARIOS
  -------         DO            
  X:0074H         SYMBOL        ee_addr_horario
  -------         ENDDO         
  C:B894H         LINE#         665
  C:B894H         LINE#         666
  C:B894H         LINE#         669
  C:B89AH         LINE#         670
  C:B89EH         LINE#         671
  C:B8A2H         LINE#         672
  C:B8A6H         LINE#         673
  C:B8AAH         LINE#         674
  C:B8AEH         LINE#         675
  C:B8B2H         LINE#         676
  C:B8B6H         LINE#         677
  C:B8BAH         LINE#         678
  C:B8BEH         LINE#         679
  C:B8C1H         LINE#         680
  C:B8C7H         LINE#         681
  -------         ENDPROC       ADDR_HORARIOS
  -------         PROC          _PROG_HORARIOS_ON_OFF
  X:0061H         SYMBOL        addr
BL51 BANKED LINKER/LOCATER V6.22.2.0                                                  09/03/2021  14:20:36  PAGE 73


  -------         DO            
  X:0063H         SYMBOL        buffer
  X:006DH         SYMBOL        dataee
  X:006FH         SYMBOL        habilitado
  -------         ENDDO         
  C:7391H         LINE#         682
  C:739BH         LINE#         683
  C:739BH         LINE#         686
  C:73AAH         LINE#         687
  C:73C7H         LINE#         688
  C:73D1H         LINE#         689
  C:73D1H         LINE#         690
  C:73E4H         LINE#         691
  C:73E6H         LINE#         693
  C:73E6H         LINE#         694
  C:73FDH         LINE#         695
  C:73FDH         LINE#         696
  C:7406H         LINE#         697
  C:7411H         LINE#         698
  C:7422H         LINE#         699
  C:7431H         LINE#         701
  C:7448H         LINE#         702
  C:7465H         LINE#         703
  C:7472H         LINE#         704
  C:7472H         LINE#         705
  C:7475H         LINE#         706
  C:7488H         LINE#         707
  C:748AH         LINE#         709
  C:748AH         LINE#         710
  C:748FH         LINE#         711
  C:74A4H         LINE#         712
  C:74A4H         LINE#         713
  C:74AAH         LINE#         714
  -------         ENDPROC       _PROG_HORARIOS_ON_OFF
  -------         PROC          _PROG_HORARIO_DESDE_HASTA
  X:0061H         SYMBOL        addr
  -------         DO            
  X:0063H         SYMBOL        buffer
  D:0007H         SYMBOL        dataee
  -------         ENDDO         
  C:576BH         LINE#         715
  C:5773H         LINE#         716
  C:5773H         LINE#         721
  C:577CH         LINE#         722
  C:577FH         LINE#         723
  C:5788H         LINE#         724
  C:57A0H         LINE#         725
  C:57B3H         LINE#         726
  C:57C1H         LINE#         727
  C:57D9H         LINE#         728
  C:57ECH         LINE#         729
  C:57FAH         LINE#         730
  C:5812H         LINE#         731
  C:5825H         LINE#         732
  C:5833H         LINE#         733
  C:584BH         LINE#         734
  C:585EH         LINE#         735
BL51 BANKED LINKER/LOCATER V6.22.2.0                                                  09/03/2021  14:20:36  PAGE 74


  C:586CH         LINE#         739
  C:5875H         LINE#         740
  C:5878H         LINE#         742
  C:5881H         LINE#         744
  C:5899H         LINE#         745
  C:58ACH         LINE#         746
  C:58BAH         LINE#         747
  C:58D2H         LINE#         748
  C:58E5H         LINE#         749
  C:58F3H         LINE#         750
  C:590BH         LINE#         751
  C:591EH         LINE#         752
  C:592CH         LINE#         753
  C:5944H         LINE#         754
  C:5957H         LINE#         755
  -------         ENDPROC       _PROG_HORARIO_DESDE_HASTA
  -------         PROC          _VER_HORARIO_DESDE_HASTA
  X:0074H         SYMBOL        addr
  -------         DO            
  D:0007H         SYMBOL        dataee
  -------         ENDDO         
  C:74ABH         LINE#         757
  C:74B3H         LINE#         758
  C:74B3H         LINE#         760
  C:74BCH         LINE#         761
  C:74CFH         LINE#         762
  C:74DDH         LINE#         763
  C:74F0H         LINE#         764
  C:74FEH         LINE#         765
  C:7511H         LINE#         766
  C:751FH         LINE#         767
  C:7532H         LINE#         768
  C:7540H         LINE#         770
  C:7553H         LINE#         771
  C:7561H         LINE#         773
  C:7574H         LINE#         774
  C:7582H         LINE#         776
  C:7595H         LINE#         777
  C:75A3H         LINE#         779
  C:75B6H         LINE#         780
  -------         ENDPROC       _VER_HORARIO_DESDE_HASTA
  -------         PROC          _PROG_HORARIO_DIAS
  X:0061H         SYMBOL        addr
  -------         DO            
  X:0063H         SYMBOL        buffer
  X:006DH         SYMBOL        dataee
  X:006EH         SYMBOL        j
  X:006FH         SYMBOL        temp
  -------         ENDDO         
  C:48BAH         LINE#         782
  C:48C2H         LINE#         783
  C:48C2H         LINE#         787
  C:48CBH         LINE#         788
  C:48D4H         LINE#         789
  C:48DDH         LINE#         790
  C:48E8H         LINE#         793
  C:48F1H         LINE#         795
BL51 BANKED LINKER/LOCATER V6.22.2.0                                                  09/03/2021  14:20:36  PAGE 75


  C:4907H         LINE#         796
  C:4907H         LINE#         798
  C:491AH         LINE#         799
  C:491AH         LINE#         800
  C:4923H         LINE#         802
  C:4938H         LINE#         803
  C:4950H         LINE#         804
  C:495DH         LINE#         805
  C:495DH         LINE#         807
  C:4973H         LINE#         808
  C:4973H         LINE#         809
  C:497CH         LINE#         810
  C:4991H         LINE#         811
  C:49A9H         LINE#         812
  C:49B6H         LINE#         813
  C:49B6H         LINE#         815
  C:49CCH         LINE#         816
  C:49CCH         LINE#         817
  C:49D5H         LINE#         818
  C:49EAH         LINE#         819
  C:4A02H         LINE#         820
  C:4A0FH         LINE#         821
  C:4A0FH         LINE#         823
  C:4A25H         LINE#         824
  C:4A25H         LINE#         825
  C:4A2EH         LINE#         826
  C:4A43H         LINE#         827
  C:4A5BH         LINE#         828
  C:4A68H         LINE#         829
  C:4A68H         LINE#         831
  C:4A7EH         LINE#         832
  C:4A7EH         LINE#         833
  C:4A87H         LINE#         834
  C:4A9CH         LINE#         835
  C:4AB4H         LINE#         836
  C:4AC1H         LINE#         837
  C:4AC1H         LINE#         839
  C:4AD7H         LINE#         840
  C:4AD7H         LINE#         841
  C:4AE0H         LINE#         842
  C:4AF5H         LINE#         843
  C:4B0DH         LINE#         844
  C:4B1AH         LINE#         845
  C:4B1AH         LINE#         847
  C:4B30H         LINE#         848
  C:4B30H         LINE#         849
  C:4B39H         LINE#         850
  C:4B48H         LINE#         851
  C:4B5AH         LINE#         852
  C:4B67H         LINE#         853
  C:4B67H         LINE#         854
  C:4B70H         LINE#         856
  -------         ENDPROC       _PROG_HORARIO_DIAS
  -------         PROC          _VER_HORARIO_DIAS
  X:0074H         SYMBOL        addr
  -------         DO            
  X:0076H         SYMBOL        dataee
BL51 BANKED LINKER/LOCATER V6.22.2.0                                                  09/03/2021  14:20:36  PAGE 76


  -------         ENDDO         
  C:7269H         LINE#         857
  C:7271H         LINE#         858
  C:7271H         LINE#         861
  C:7281H         LINE#         862
  C:7287H         LINE#         863
  C:7287H         LINE#         864
  C:728BH         LINE#         865
  C:728DH         LINE#         867
  C:728DH         LINE#         868
  C:7294H         LINE#         869
  C:7294H         LINE#         872
  C:72ACH         LINE#         873
  C:72B2H         LINE#         874
  C:72B2H         LINE#         875
  C:72B6H         LINE#         876
  C:72B8H         LINE#         878
  C:72B8H         LINE#         879
  C:72BFH         LINE#         880
  C:72BFH         LINE#         883
  C:72D7H         LINE#         884
  C:72DDH         LINE#         885
  C:72DDH         LINE#         886
  C:72E1H         LINE#         887
  C:72E3H         LINE#         889
  C:72E3H         LINE#         890
  C:72EAH         LINE#         891
  C:72EAH         LINE#         893
  C:7302H         LINE#         894
  C:7308H         LINE#         895
  C:7308H         LINE#         896
  C:730CH         LINE#         897
  C:730EH         LINE#         899
  C:730EH         LINE#         900
  C:7315H         LINE#         901
  C:7315H         LINE#         903
  C:732DH         LINE#         904
  C:7333H         LINE#         905
  C:7333H         LINE#         906
  C:7337H         LINE#         907
  C:7339H         LINE#         909
  C:7339H         LINE#         910
  C:7340H         LINE#         911
  C:7340H         LINE#         914
  C:7358H         LINE#         915
  C:735EH         LINE#         916
  C:735EH         LINE#         917
  C:7362H         LINE#         918
  C:7364H         LINE#         920
  C:7364H         LINE#         921
  C:736BH         LINE#         922
  C:736BH         LINE#         924
  C:737DH         LINE#         925
  C:7383H         LINE#         926
  C:7383H         LINE#         927
  C:7387H         LINE#         928
  C:7389H         LINE#         930
BL51 BANKED LINKER/LOCATER V6.22.2.0                                                  09/03/2021  14:20:36  PAGE 77


  C:7389H         LINE#         931
  C:7390H         LINE#         932
  C:7390H         LINE#         933
  -------         ENDPROC       _VER_HORARIO_DIAS
  -------         PROC          PROG_HORARIOS
  -------         DO            
  X:0046H         SYMBOL        buffer
  X:0050H         SYMBOL        ee_addr_horario
  X:005BH         SYMBOL        addr
  X:005DH         SYMBOL        temp
  X:005FH         SYMBOL        dataee
  X:0060H         SYMBOL        j
  -------         ENDDO         
  C:68B5H         LINE#         934
  C:68B5H         LINE#         935
  C:68B5H         LINE#         944
  C:68C1H         LINE#         948
  C:68CAH         LINE#         949
  C:68D5H         LINE#         951
  C:68E4H         LINE#         955
  C:68FAH         LINE#         956
  C:6900H         LINE#         960
  C:690EH         LINE#         961
  C:6916H         LINE#         962
  C:6916H         LINE#         964
  C:6925H         LINE#         965
  C:6939H         LINE#         966
  C:6939H         LINE#         967
  C:694DH         LINE#         968
  C:6955H         LINE#         970
  C:6965H         LINE#         973
  C:6968H         LINE#         977
  C:6973H         LINE#         980
  C:697CH         LINE#         981
  C:6987H         LINE#         982
  C:6996H         LINE#         983
  C:69A9H         LINE#         985
  C:69C1H         LINE#         986
  C:69DBH         LINE#         987
  C:69E3H         LINE#         988
  C:69E3H         LINE#         990
  C:69F1H         LINE#         991
  C:69F9H         LINE#         992
  C:69F9H         LINE#         993
  C:69F9H         LINE#         995
  -------         ENDPROC       PROG_HORARIOS
  -------         PROC          PROG_VALIDAR_TIPO_VEHICULO_MENSUAL
  -------         DO            
  X:0046H         SYMBOL        buffer
  X:0050H         SYMBOL        dataee
  -------         ENDDO         
  C:7DD1H         LINE#         996
  C:7DD1H         LINE#         997
  C:7DD1H         LINE#         1002
  C:7DE4H         LINE#         1003
  C:7E01H         LINE#         1004
  C:7E0BH         LINE#         1005
BL51 BANKED LINKER/LOCATER V6.22.2.0                                                  09/03/2021  14:20:36  PAGE 78


  C:7E0BH         LINE#         1006
  C:7E1EH         LINE#         1007
  C:7E20H         LINE#         1009
  C:7E20H         LINE#         1010
  C:7E37H         LINE#         1011
  C:7E37H         LINE#         1013
  C:7E40H         LINE#         1014
  C:7E4BH         LINE#         1015
  C:7E5CH         LINE#         1016
  C:7E66H         LINE#         1018
  C:7E79H         LINE#         1019
  C:7E96H         LINE#         1020
  C:7EA0H         LINE#         1021
  C:7EA0H         LINE#         1022
  C:7EB3H         LINE#         1023
  C:7EB5H         LINE#         1025
  C:7EB5H         LINE#         1026
  C:7ECCH         LINE#         1027
  C:7ECCH         LINE#         1028
  -------         ENDPROC       PROG_VALIDAR_TIPO_VEHICULO_MENSUAL
  -------         PROC          PROG_APB_MENSUAL
  -------         DO            
  X:0046H         SYMBOL        buffer
  X:0050H         SYMBOL        dataee
  -------         ENDDO         
  C:7ECDH         LINE#         1029
  C:7ECDH         LINE#         1030
  C:7ECDH         LINE#         1035
  C:7EE0H         LINE#         1036
  C:7EFDH         LINE#         1037
  C:7F07H         LINE#         1038
  C:7F07H         LINE#         1039
  C:7F1AH         LINE#         1040
  C:7F1CH         LINE#         1042
  C:7F1CH         LINE#         1043
  C:7F33H         LINE#         1044
  C:7F33H         LINE#         1046
  C:7F3CH         LINE#         1047
  C:7F47H         LINE#         1048
  C:7F58H         LINE#         1049
  C:7F62H         LINE#         1051
  C:7F75H         LINE#         1052
  C:7F92H         LINE#         1053
  C:7F9CH         LINE#         1054
  C:7F9CH         LINE#         1055
  C:7FAFH         LINE#         1056
  C:7FB1H         LINE#         1058
  C:7FB1H         LINE#         1059
  C:7FC8H         LINE#         1060
  C:7FC8H         LINE#         1061
  -------         ENDPROC       PROG_APB_MENSUAL
  -------         PROC          PROG_FECHA_VENCIMIENTO
  -------         DO            
  X:0046H         SYMBOL        buffer
  X:0051H         SYMBOL        cmd
  X:0054H         SYMBOL        fecha
  X:005BH         SYMBOL        dataee
BL51 BANKED LINKER/LOCATER V6.22.2.0                                                  09/03/2021  14:20:36  PAGE 79


  -------         ENDDO         
  C:5965H         LINE#         1063
  C:5965H         LINE#         1064
  C:5965H         LINE#         1071
  C:5972H         LINE#         1072
  C:5989H         LINE#         1075
  C:59A0H         LINE#         1077
  C:59A0H         LINE#         1078
  C:59A9H         LINE#         1079
  C:59B6H         LINE#         1080
  C:59CDH         LINE#         1081
  C:59DFH         LINE#         1082
  C:59E8H         LINE#         1087
  C:59F3H         LINE#         1088
  C:5A07H         LINE#         1089
  C:5A14H         LINE#         1091
  C:5A1DH         LINE#         1094
  C:5A26H         LINE#         1095
  C:5A31H         LINE#         1096
  C:5A48H         LINE#         1098
  C:5A50H         LINE#         1099
  C:5A58H         LINE#         1100
  C:5A5BH         LINE#         1102
  C:5A6CH         LINE#         1103
  C:5A7DH         LINE#         1105
  C:5A8CH         LINE#         1106
  C:5A94H         LINE#         1107
  C:5A9CH         LINE#         1108
  C:5A9FH         LINE#         1109
  C:5AB0H         LINE#         1110
  C:5AC1H         LINE#         1111
  C:5AD0H         LINE#         1112
  C:5AD8H         LINE#         1113
  C:5AE0H         LINE#         1114
  C:5AE3H         LINE#         1115
  C:5AF4H         LINE#         1116
  C:5B05H         LINE#         1117
  C:5B14H         LINE#         1118
  C:5B1FH         LINE#         1120
  C:5B2CH         LINE#         1122
  C:5B43H         LINE#         1123
  -------         ENDPROC       PROG_FECHA_VENCIMIENTO
  -------         PROC          VER_HORARIO
  -------         DO            
  X:0059H         SYMBOL        buffer
  X:0063H         SYMBOL        ee_addr_horario
  X:006EH         SYMBOL        conta
  X:006FH         SYMBOL        addr
  X:0071H         SYMBOL        temp
  X:0073H         SYMBOL        dataee
  -------         ENDDO         
  C:6DB2H         LINE#         1126
  C:6DB2H         LINE#         1127
  C:6DB2H         LINE#         1136
  C:6DBEH         LINE#         1137
  C:6DD4H         LINE#         1138
  C:6DD4H         LINE#         1140
BL51 BANKED LINKER/LOCATER V6.22.2.0                                                  09/03/2021  14:20:36  PAGE 80


  C:6DE4H         LINE#         1143
  C:6DFDH         LINE#         1144
  C:6E03H         LINE#         1147
  C:6E11H         LINE#         1148
  C:6E20H         LINE#         1149
  C:6E3AH         LINE#         1150
  C:6E45H         LINE#         1151
  C:6E45H         LINE#         1152
  C:6E4EH         LINE#         1154
  C:6E57H         LINE#         1155
  C:6E67H         LINE#         1156
  C:6E6AH         LINE#         1158
  C:6E75H         LINE#         1159
  C:6E8DH         LINE#         1160
  C:6EA7H         LINE#         1161
  C:6EB1H         LINE#         1162
  C:6EB1H         LINE#         1163
  C:6EB8H         LINE#         1165
  C:6EC6H         LINE#         1166
  C:6ECEH         LINE#         1167
  C:6ED0H         LINE#         1169
  C:6ED0H         LINE#         1170
  C:6ED4H         LINE#         1171
  C:6ED4H         LINE#         1172
  C:6ED6H         LINE#         1174
  C:6ED6H         LINE#         1175
  C:6EDFH         LINE#         1176
  C:6EDFH         LINE#         1178
  C:6EE8H         LINE#         1181
  -------         ENDPROC       VER_HORARIO
  -------         PROC          PROG_MENSUALES
  -------         DO            
  X:0046H         SYMBOL        buffer
  X:0050H         SYMBOL        dataee
  -------         ENDDO         
  C:7FC9H         LINE#         1182
  C:7FC9H         LINE#         1183
  C:7FC9H         LINE#         1188
  C:7FDCH         LINE#         1189
  C:7FF9H         LINE#         1190
  C:8003H         LINE#         1191
  C:8003H         LINE#         1192
  C:8016H         LINE#         1193
  C:8018H         LINE#         1195
  C:8018H         LINE#         1196
  C:802FH         LINE#         1197
  C:802FH         LINE#         1199
  C:8038H         LINE#         1200
  C:8043H         LINE#         1201
  C:8054H         LINE#         1202
  C:805EH         LINE#         1204
  C:8071H         LINE#         1205
  C:808EH         LINE#         1206
  C:8098H         LINE#         1207
  C:8098H         LINE#         1208
  C:80ABH         LINE#         1209
  C:80ADH         LINE#         1211
BL51 BANKED LINKER/LOCATER V6.22.2.0                                                  09/03/2021  14:20:36  PAGE 81


  C:80ADH         LINE#         1212
  C:80C4H         LINE#         1213
  C:80C4H         LINE#         1215
  -------         ENDPROC       PROG_MENSUALES
  -------         PROC          VER_PROG
  -------         DO            
  X:0046H         SYMBOL        buffer
  X:0050H         SYMBOL        dataee
  X:0052H         SYMBOL        fecha
  -------         ENDDO         
  C:4222H         LINE#         1217
  C:4222H         LINE#         1218
  C:4222H         LINE#         1224
  C:4234H         LINE#         1225
  C:4251H         LINE#         1227
  C:4268H         LINE#         1229
  C:427BH         LINE#         1230
  C:4298H         LINE#         1232
  C:42AFH         LINE#         1234
  C:42C2H         LINE#         1235
  C:42DFH         LINE#         1236
  C:42EDH         LINE#         1237
  C:42EDH         LINE#         1238
  C:42F1H         LINE#         1239
  C:42F3H         LINE#         1241
  C:42F3H         LINE#         1242
  C:42FAH         LINE#         1243
  C:42FAH         LINE#         1245
  C:430DH         LINE#         1246
  C:432AH         LINE#         1247
  C:4336H         LINE#         1248
  C:4336H         LINE#         1249
  C:433AH         LINE#         1250
  C:433CH         LINE#         1252
  C:433CH         LINE#         1253
  C:4343H         LINE#         1254
  C:4343H         LINE#         1256
  C:4356H         LINE#         1257
  C:4373H         LINE#         1258
  C:437FH         LINE#         1259
  C:437FH         LINE#         1260
  C:4383H         LINE#         1261
  C:4385H         LINE#         1263
  C:4385H         LINE#         1264
  C:438CH         LINE#         1265
  C:438CH         LINE#         1267
  C:439FH         LINE#         1268
  C:43BCH         LINE#         1269
  C:43C8H         LINE#         1270
  C:43C8H         LINE#         1271
  C:43CCH         LINE#         1272
  C:43CEH         LINE#         1274
  C:43CEH         LINE#         1275
  C:43D5H         LINE#         1276
  C:43D5H         LINE#         1278
  C:43E8H         LINE#         1279
  C:4405H         LINE#         1280
BL51 BANKED LINKER/LOCATER V6.22.2.0                                                  09/03/2021  14:20:36  PAGE 82


  C:4411H         LINE#         1281
  C:4411H         LINE#         1282
  C:4415H         LINE#         1283
  C:4417H         LINE#         1285
  C:4417H         LINE#         1286
  C:441EH         LINE#         1287
  C:441EH         LINE#         1289
  C:4431H         LINE#         1290
  C:444EH         LINE#         1291
  C:445AH         LINE#         1292
  C:445AH         LINE#         1293
  C:445EH         LINE#         1294
  C:4460H         LINE#         1296
  C:4460H         LINE#         1297
  C:4467H         LINE#         1298
  C:4467H         LINE#         1301
  C:447AH         LINE#         1302
  C:4497H         LINE#         1304
  C:44AEH         LINE#         1306
  C:44B1H         LINE#         1310
  C:44C4H         LINE#         1311
  C:44E1H         LINE#         1312
  C:44EDH         LINE#         1313
  C:44EDH         LINE#         1314
  C:44F1H         LINE#         1315
  C:44F3H         LINE#         1317
  C:44F3H         LINE#         1318
  C:44FAH         LINE#         1319
  C:44FAH         LINE#         1321
  C:450DH         LINE#         1322
  C:452AH         LINE#         1323
  C:4536H         LINE#         1324
  C:4536H         LINE#         1325
  C:453AH         LINE#         1326
  C:453CH         LINE#         1328
  C:453CH         LINE#         1329
  C:4543H         LINE#         1330
  C:4543H         LINE#         1333
  C:4556H         LINE#         1334
  C:4573H         LINE#         1335
  C:457FH         LINE#         1336
  C:457FH         LINE#         1337
  C:4583H         LINE#         1338
  C:4585H         LINE#         1340
  C:4585H         LINE#         1341
  C:458CH         LINE#         1342
  C:458CH         LINE#         1345
  C:4599H         LINE#         1347
  C:45B0H         LINE#         1348
  C:45C7H         LINE#         1351
  C:45D3H         LINE#         1352
  -------         ENDPROC       VER_PROG
  -------         PROC          SHOW
  C:9844H         LINE#         1359
  C:9844H         LINE#         1360
  C:9844H         LINE#         1361
  C:984DH         LINE#         1362
BL51 BANKED LINKER/LOCATER V6.22.2.0                                                  09/03/2021  14:20:36  PAGE 83


  C:9856H         LINE#         1363
  C:985FH         LINE#         1364
  C:9868H         LINE#         1365
  C:9871H         LINE#         1366
  C:987AH         LINE#         1367
  C:9883H         LINE#         1368
  C:988CH         LINE#         1369
  C:9895H         LINE#         1370
  C:989EH         LINE#         1371
  C:98A7H         LINE#         1372
  C:98B0H         LINE#         1373
  C:98B9H         LINE#         1374
  C:98C2H         LINE#         1375
  C:98CBH         LINE#         1376
  C:98D4H         LINE#         1377
  C:98DDH         LINE#         1378
  -------         ENDPROC       SHOW
  -------         PROC          FIRST_CLAVE
  -------         DO            
  X:0046H         SYMBOL        clave
  -------         ENDDO         
  C:B0B6H         LINE#         1385
  C:B0B6H         LINE#         1386
  C:B0B6H         LINE#         1390
  C:B0BFH         LINE#         1391
  C:B0C4H         LINE#         1392
  C:B0D6H         LINE#         1393
  C:B0E3H         LINE#         1394
  C:B0E9H         LINE#         1395
  C:B0ECH         LINE#         1396
  C:B0EFH         LINE#         1397
  C:B0F1H         LINE#         1399
  -------         ENDPROC       FIRST_CLAVE
  -------         PROC          MENU
  -------         DO            
  X:0001H         SYMBOL        cmd
  X:0004H         SYMBOL        option1
  X:0007H         SYMBOL        option2
  X:000AH         SYMBOL        opt_buffer
  X:0032H         SYMBOL        buffer
  D:0007H         SYMBOL        dato
  -------         ENDDO         
  C:530FH         LINE#         1403
  C:530FH         LINE#         1404
  C:530FH         LINE#         1414
  C:5318H         LINE#         1419
  C:5324H         LINE#         1420
  C:5324H         LINE#         1421
  C:5327H         LINE#         1422
  C:5331H         LINE#         1425
  C:5331H         LINE#         1427
  C:5331H         LINE#         1428
  C:533AH         LINE#         1429
  C:5347H         LINE#         1430
  C:534CH         LINE#         1431
  C:5362H         LINE#         1432
  C:5374H         LINE#         1433
BL51 BANKED LINKER/LOCATER V6.22.2.0                                                  09/03/2021  14:20:36  PAGE 84


  C:537DH         LINE#         1438
  C:5388H         LINE#         1439
  C:5396H         LINE#         1440
  C:53A3H         LINE#         1442
  C:53ACH         LINE#         1445
  C:53B4H         LINE#         1446
  C:53B8H         LINE#         1447
  C:53B8H         LINE#         1448
  C:53B8H         LINE#         1449
  C:53BBH         LINE#         1451
  C:53BBH         LINE#         1452
  C:53C4H         LINE#         1453
  C:53CEH         LINE#         1454
  C:53CEH         LINE#         1455
  C:53CEH         LINE#         1456
  C:53CEH         LINE#         1457
  C:53D1H         LINE#         1460
  C:53DCH         LINE#         1461
  C:53EAH         LINE#         1462
  C:53FEH         LINE#         1463
  C:5412H         LINE#         1468
  C:5428H         LINE#         1469
  C:5428H         LINE#         1471
  C:5437H         LINE#         1472
  C:5439H         LINE#         1473
  C:5449H         LINE#         1474
  C:5449H         LINE#         1476
  C:5458H         LINE#         1477
  C:5476H         LINE#         1478
  C:5476H         LINE#         1484
  C:5489H         LINE#         1485
  C:5489H         LINE#         1486
  C:54D5H         LINE#         1487
  C:54D5H         LINE#         1488
  C:54D5H         LINE#         1489
  C:54D8H         LINE#         1491
  C:54DBH         LINE#         1493
  C:54DBH         LINE#         1494
  C:54DEH         LINE#         1495
  C:54E1H         LINE#         1496
  C:54E1H         LINE#         1497
  C:54E4H         LINE#         1498
  C:54E7H         LINE#         1499
  C:54E7H         LINE#         1500
  C:54EAH         LINE#         1501
  C:54EDH         LINE#         1502
  C:54EDH         LINE#         1503
  C:54F0H         LINE#         1504
  C:54F3H         LINE#         1505
  C:54F3H         LINE#         1506
  C:54F6H         LINE#         1507
  C:54F9H         LINE#         1508
  C:54F9H         LINE#         1509
  C:54FCH         LINE#         1510
  C:54FFH         LINE#         1511
  C:54FFH         LINE#         1512
  C:5502H         LINE#         1513
BL51 BANKED LINKER/LOCATER V6.22.2.0                                                  09/03/2021  14:20:36  PAGE 85


  C:5505H         LINE#         1514
  C:5505H         LINE#         1515
  C:5508H         LINE#         1516
  C:550BH         LINE#         1517
  C:550BH         LINE#         1518
  C:550EH         LINE#         1519
  C:5511H         LINE#         1520
  C:5511H         LINE#         1521
  C:5514H         LINE#         1522
  C:5517H         LINE#         1523
  C:5517H         LINE#         1524
  C:551AH         LINE#         1525
  C:551DH         LINE#         1526
  C:551DH         LINE#         1527
  C:5520H         LINE#         1528
  C:5523H         LINE#         1529
  C:5523H         LINE#         1530
  C:5526H         LINE#         1531
  C:5529H         LINE#         1533
  C:5529H         LINE#         1534
  C:552CH         LINE#         1535
  C:552FH         LINE#         1536
  C:552FH         LINE#         1537
  C:5532H         LINE#         1538
  C:5535H         LINE#         1539
  C:5535H         LINE#         1540
  C:5538H         LINE#         1541
  C:553BH         LINE#         1542
  C:553BH         LINE#         1544
  C:553BH         LINE#         1545
  C:553BH         LINE#         1546
  C:553EH         LINE#         1547
  C:5541H         LINE#         1550
  C:5541H         LINE#         1551
  C:555FH         LINE#         1552
  C:5562H         LINE#         1553
  C:5562H         LINE#         1554
  C:5562H         LINE#         1555
  C:5562H         LINE#         1556
  -------         ENDPROC       MENU
  -------         ENDMOD        PROG

  -------         MODULE        PTO_PARALELO
  C:0000H         SYMBOL        _ICE_DUMMY_
  D:0080H         PUBLIC        P0
  D:00A0H         PUBLIC        P2
  D:00B0H         PUBLIC        P3
  C:6C76H         PUBLIC        load_and_send_id_cod
  C:9BF7H         PUBLIC        _recibe_port
  B:00B0H.2       PUBLIC        ready
  B:0080H.6       PUBLIC        rx_in_data
  C:BC08H         PUBLIC        Pulso_Bus
  C:A1A0H         PUBLIC        _send_portERR
  B:00B0H.3       PUBLIC        busy
  C:AFD6H         PUBLIC        load_and_send_info_reloj
  C:9445H         PUBLIC        _send_port
  B:00B0H.4       PUBLIC        port_clk
BL51 BANKED LINKER/LOCATER V6.22.2.0                                                  09/03/2021  14:20:36  PAGE 86


  C:BC93H         PUBLIC        cond_ini_pto
  -------         PROC          _RECIBE_PORT
  X:0001H         SYMBOL        buffer_port
  -------         DO            
  D:0006H         SYMBOL        count
  X:0004H         SYMBOL        time_out
  X:0005H         SYMBOL        num_data
  X:0006H         SYMBOL        T_ANCHO
  X:0008H         SYMBOL        data_temp
  -------         ENDDO         
  C:9BF7H         LINE#         60
  C:9C02H         LINE#         61
  C:9C02H         LINE#         65
  C:9C0BH         LINE#         66
  C:9C0EH         LINE#         69
  C:9C11H         LINE#         70
  C:9C11H         LINE#         72
  C:9C14H         LINE#         73
  C:9C19H         LINE#         74
  C:9C1BH         LINE#         75
  C:9C1FH         LINE#         76
  C:9C21H         LINE#         79
  C:9C26H         LINE#         80
  C:9C2FH         LINE#         81
  C:9C2FH         LINE#         82
  C:9C32H         LINE#         83
  C:9C32H         LINE#         85
  C:9C37H         LINE#         86
  C:9C3BH         LINE#         87
  C:9C3BH         LINE#         88
  C:9C3DH         LINE#         89
  C:9C3FH         LINE#         90
  C:9C3FH         LINE#         91
  C:9C3FH         LINE#         93
  C:9C3FH         LINE#         94
  C:9C4CH         LINE#         95
  C:9C4CH         LINE#         97
  C:9C4FH         LINE#         98
  C:9C4FH         LINE#         100
  C:9C55H         LINE#         102
  C:9C57H         LINE#         103
  C:9C6BH         LINE#         104
  C:9C75H         LINE#         105
  C:9C7BH         LINE#         106
  C:9C81H         LINE#         107
  C:9C83H         LINE#         108
  C:9C83H         LINE#         109
  C:9C83H         LINE#         110
  C:9C83H         LINE#         113
  C:9C85H         LINE#         114
  C:9C87H         LINE#         115
  C:9C87H         LINE#         116
  C:9C8AH         LINE#         118
  C:9C8FH         LINE#         119
  -------         ENDPROC       _RECIBE_PORT
  -------         PROC          _SEND_PORT
  X:0016H         SYMBOL        buffer_port
BL51 BANKED LINKER/LOCATER V6.22.2.0                                                  09/03/2021  14:20:36  PAGE 87


  X:0019H         SYMBOL        length_char
  -------         DO            
  X:001AH         SYMBOL        cont
  X:001EH         SYMBOL        timeOut
  X:001FH         SYMBOL        length
  -------         ENDDO         
  C:9445H         LINE#         126
  C:9453H         LINE#         127
  C:9453H         LINE#         132
  C:9457H         LINE#         134
  C:9459H         LINE#         135
  C:945BH         LINE#         136
  C:945DH         LINE#         137
  C:9462H         LINE#         138
  C:9464H         LINE#         139
  C:946EH         LINE#         141
  C:9477H         LINE#         142
  C:9477H         LINE#         143
  C:9479H         LINE#         144
  C:947BH         LINE#         145
  C:949FH         LINE#         146
  C:94B3H         LINE#         147
  C:94B3H         LINE#         148
  C:94B6H         LINE#         150
  C:94B6H         LINE#         151
  C:94B8H         LINE#         152
  C:94C1H         LINE#         153
  C:94C1H         LINE#         157
  C:94C1H         LINE#         159
  C:94D1H         LINE#         160
  C:94D4H         LINE#         161
  C:94DEH         LINE#         163
  C:94E4H         LINE#         164
  C:94E7H         LINE#         166
  C:94E7H         LINE#         168
  C:94EAH         LINE#         169
  C:94ECH         LINE#         170
  C:94EEH         LINE#         171
  C:94F0H         LINE#         172
  -------         ENDPROC       _SEND_PORT
  -------         PROC          PULSO_BUS
  C:BC08H         LINE#         180
  C:BC08H         LINE#         181
  C:BC08H         LINE#         182
  C:BC0AH         LINE#         183
  C:BC11H         LINE#         184
  C:BC13H         LINE#         185
  -------         ENDPROC       PULSO_BUS
  -------         PROC          _SEND_PORTERR
  X:0018H         SYMBOL        cod_err
  -------         DO            
  X:0019H         SYMBOL        timeOut
  X:001AH         SYMBOL        cont
  -------         ENDDO         
  C:A1A0H         LINE#         190
  C:A1A6H         LINE#         191
  C:A1A6H         LINE#         195
BL51 BANKED LINKER/LOCATER V6.22.2.0                                                  09/03/2021  14:20:36  PAGE 88


  C:A1A8H         LINE#         196
  C:A1AAH         LINE#         197
  C:A1ADH         LINE#         198
  C:A1B5H         LINE#         200
  C:A1B7H         LINE#         201
  C:A1B9H         LINE#         202
  C:A1C2H         LINE#         203
  C:A1C2H         LINE#         204
  C:A1E4H         LINE#         205
  C:A1F8H         LINE#         206
  C:A1F8H         LINE#         207
  C:A1FDH         LINE#         208
  C:A1FDH         LINE#         209
  C:A1FFH         LINE#         210
  C:A208H         LINE#         211
  C:A208H         LINE#         212
  C:A20EH         LINE#         213
  C:A211H         LINE#         214
  C:A211H         LINE#         215
  C:A213H         LINE#         216
  C:A215H         LINE#         217
  C:A217H         LINE#         219
  C:A21AH         LINE#         221
  C:A221H         LINE#         222
  -------         ENDPROC       _SEND_PORTERR
  -------         PROC          COND_INI_PTO
  C:BC93H         LINE#         228
  C:BC93H         LINE#         229
  C:BC93H         LINE#         231
  C:BC95H         LINE#         232
  C:BC97H         LINE#         233
  C:BC99H         LINE#         234
  C:BC9CH         LINE#         235
  -------         ENDPROC       COND_INI_PTO
  -------         PROC          LOAD_AND_SEND_INFO_RELOJ
  -------         DO            
  X:0002H         SYMBOL        buffer_info
  -------         ENDDO         
  C:AFD6H         LINE#         240
  C:AFD6H         LINE#         241
  C:AFD6H         LINE#         244
  C:AFDCH         LINE#         246
  C:AFE0H         LINE#         252
  C:AFE9H         LINE#         255
  C:AFF3H         LINE#         256
  C:AFF7H         LINE#         257
  C:AFFAH         LINE#         258
  C:B003H         LINE#         259
  C:B014H         LINE#         260
  C:B017H         LINE#         261
  -------         ENDPROC       LOAD_AND_SEND_INFO_RELOJ
  -------         PROC          LOAD_AND_SEND_ID_COD
  -------         DO            
  X:0002H         SYMBOL        buffer_info
  X:000DH         SYMBOL        buf
  X:0011H         SYMBOL        i
  X:0012H         SYMBOL        ID_CLIENTE
BL51 BANKED LINKER/LOCATER V6.22.2.0                                                  09/03/2021  14:20:36  PAGE 89


  X:0014H         SYMBOL        COD_PARK
  -------         ENDDO         
  C:6C76H         LINE#         268
  C:6C76H         LINE#         269
  C:6C76H         LINE#         277
  C:6C86H         LINE#         279
  C:6C97H         LINE#         281
  C:6C9DH         LINE#         282
  C:6CA1H         LINE#         283
  C:6CA4H         LINE#         285
  C:6CCAH         LINE#         286
  C:6CE1H         LINE#         289
  C:6CF8H         LINE#         292
  C:6D1EH         LINE#         293
  C:6D35H         LINE#         295
  C:6D4CH         LINE#         296
  C:6D5AH         LINE#         297
  C:6D6BH         LINE#         298
  C:6D7EH         LINE#         299
  C:6D84H         LINE#         300
  C:6D8DH         LINE#         301
  C:6DA1H         LINE#         302
  C:6DA4H         LINE#         303
  -------         ENDPROC       LOAD_AND_SEND_ID_COD
  -------         ENDMOD        PTO_PARALELO

  -------         MODULE        TIBBO
  C:0000H         SYMBOL        _ICE_DUMMY_
  C:B25FH         PUBLIC        _Debug_HexDec
  C:B078H         PUBLIC        _Debug_txt_Tibbo
  D:0080H         PUBLIC        P0
  D:0090H         PUBLIC        P1
  B:0090H.0       PUBLIC        txd2
  B:00A8H.7       PUBLIC        EA
  C:B7BCH         PUBLIC        _Debug_txt_rs232
  C:AEA1H         PUBLIC        _Debug_Buffer_rs232_lcd
  C:B025H         PUBLIC        _tx_aux
  B:0080H.0       PUBLIC        rx_ip
  C:BC9DH         PUBLIC        Debug_Dividir_texto
  C:BCE9H         PUBLIC        cond_ini_tibbo
  C:BC5EH         PUBLIC        time_mbit
  C:A228H         PUBLIC        rx_Data
  C:BB9AH         PUBLIC        time_bit
  C:B471H         PUBLIC        _Debug_pto_paralelo
  C:B5E6H         PUBLIC        _Debug_monitor
  C:A445H         PUBLIC        _DebugBufferMF
  C:B0FEH         PUBLIC        _Debug_chr_Tibbo
  B:0080H.7       PUBLIC        sel_com
  C:B145H         PUBLIC        _Debug_chr_rs232_lcd
  C:BB94H         SYMBOL        L?0080
  -------         PROC          L?0079
  -------         ENDPROC       L?0079
  C:BB94H         SYMBOL        L?0080
  -------         PROC          TIME_BIT
  -------         DO            
  D:0007H         SYMBOL        j
  -------         ENDDO         
BL51 BANKED LINKER/LOCATER V6.22.2.0                                                  09/03/2021  14:20:36  PAGE 90


  C:BB9AH         LINE#         21
  C:BB9AH         LINE#         22
  C:BB9AH         LINE#         24
  C:BBA6H         LINE#         25
  C:BBA6H         LINE#         26
  C:BBA9H         LINE#         52
  -------         ENDPROC       TIME_BIT
  -------         PROC          TIME_MBIT
  -------         DO            
  D:0007H         SYMBOL        j
  -------         ENDDO         
  C:BC5EH         LINE#         55
  C:BC5EH         LINE#         56
  C:BC5EH         LINE#         60
  C:BC6AH         LINE#         61
  C:BC6AH         LINE#         71
  C:BC6DH         LINE#         73
  -------         ENDPROC       TIME_MBIT
  -------         PROC          L?0083
  -------         ENDPROC       L?0083
  -------         PROC          _TX_AUX
  D:0006H         SYMBOL        caracter
  -------         DO            
  D:0004H         SYMBOL        j
  D:0005H         SYMBOL        temporal
  D:0006H         SYMBOL        bitTX
  -------         ENDDO         
  C:B025H         LINE#         78
  C:B027H         LINE#         79
  C:B027H         LINE#         82
  C:B029H         LINE#         83
  C:B02BH         LINE#         84
  C:B02EH         LINE#         85
  C:B02FH         LINE#         86
  C:B030H         LINE#         87
  C:B032H         LINE#         88
  C:B036H         LINE#         89
  C:B038H         LINE#         90
  C:B038H         LINE#         91
  C:B03AH         LINE#         92
  C:B03CH         LINE#         94
  C:B03CH         LINE#         95
  C:B03EH         LINE#         96
  C:B03EH         LINE#         97
  C:B041H         LINE#         98
  C:B04DH         LINE#         99
  C:B04DH         LINE#         100
  C:B051H         LINE#         101
  C:B054H         LINE#         102
  C:B056H         LINE#         103
  C:B056H         LINE#         104
  C:B058H         LINE#         105
  C:B05AH         LINE#         107
  C:B05AH         LINE#         108
  C:B05CH         LINE#         109
  C:B05CH         LINE#         110
  C:B05FH         LINE#         111
BL51 BANKED LINKER/LOCATER V6.22.2.0                                                  09/03/2021  14:20:36  PAGE 91


  C:B062H         LINE#         112
  C:B064H         LINE#         113
  C:B067H         LINE#         114
  C:B06AH         LINE#         116
  C:B06CH         LINE#         117
  -------         ENDPROC       _TX_AUX
  -------         PROC          _DEBUG_HEXDEC
  D:0007H         SYMBOL        xfc
  -------         DO            
  X:0018H         SYMBOL        valor
  D:0006H         SYMBOL        centena
  D:0003H         SYMBOL        decena
  D:0002H         SYMBOL        unidad
  -------         ENDDO         
  C:B25FH         LINE#         120
  C:B25FH         LINE#         121
  C:B25FH         LINE#         124
  C:B266H         LINE#         126
  C:B267H         LINE#         127
  C:B268H         LINE#         128
  C:B269H         LINE#         129
  C:B271H         LINE#         130
  C:B271H         LINE#         131
  C:B27BH         LINE#         132
  C:B27BH         LINE#         133
  C:B27FH         LINE#         134
  C:B280H         LINE#         135
  C:B282H         LINE#         136
  C:B28CH         LINE#         137
  C:B28CH         LINE#         138
  C:B290H         LINE#         139
  C:B291H         LINE#         140
  C:B293H         LINE#         141
  C:B295H         LINE#         142
  C:B299H         LINE#         143
  C:B29DH         LINE#         144
  C:B2A4H         LINE#         146
  C:B2A4H         LINE#         147
  -------         ENDPROC       _DEBUG_HEXDEC
  -------         PROC          _DEBUG_CHR_TIBBO
  D:0003H         SYMBOL        Dat
  -------         DO            
  D:0007H         SYMBOL        temp
  -------         ENDDO         
  C:B0FEH         LINE#         152
  C:B100H         LINE#         153
  C:B100H         LINE#         155
  C:B108H         LINE#         156
  C:B108H         LINE#         157
  C:B10FH         LINE#         158
  C:B122H         LINE#         160
  C:B125H         LINE#         162
  C:B129H         LINE#         163
  C:B13CH         LINE#         164
  C:B13FH         LINE#         165
  C:B144H         LINE#         167
  C:B144H         LINE#         168
BL51 BANKED LINKER/LOCATER V6.22.2.0                                                  09/03/2021  14:20:36  PAGE 92


  -------         ENDPROC       _DEBUG_CHR_TIBBO
  -------         PROC          _DEBUG_CHR_RS232_LCD
  X:0017H         SYMBOL        Dat
  -------         DO            
  D:0007H         SYMBOL        temp
  D:0006H         SYMBOL        d
  -------         ENDDO         
  C:B145H         LINE#         169
  C:B14AH         LINE#         170
  C:B14AH         LINE#         172
  C:B150H         LINE#         173
  C:B163H         LINE#         174
  C:B168H         LINE#         175
  C:B16FH         LINE#         176
  C:B182H         LINE#         177
  C:B187H         LINE#         178
  -------         ENDPROC       _DEBUG_CHR_RS232_LCD
  -------         PROC          _DEBUGBUFFERMF
  X:0027H         SYMBOL        str
  X:002AH         SYMBOL        num_char
  X:002BH         SYMBOL        io
  -------         DO            
  X:002CH         SYMBOL        j
  -------         ENDDO         
  C:A445H         LINE#         186
  C:A453H         LINE#         187
  C:A453H         LINE#         191
  C:A45BH         LINE#         192
  C:A45BH         LINE#         193
  C:A46AH         LINE#         194
  C:A46AH         LINE#         195
  C:A470H         LINE#         196
  C:A472H         LINE#         197
  C:A47FH         LINE#         198
  C:A47FH         LINE#         199
  C:A488H         LINE#         200
  C:A488H         LINE#         202
  C:A49AH         LINE#         203
  C:A49AH         LINE#         204
  C:A4ACH         LINE#         205
  C:A4B6H         LINE#         206
  C:A4BEH         LINE#         207
  C:A4C3H         LINE#         208
  C:A4C8H         LINE#         209
  C:A4C8H         LINE#         211
  -------         ENDPROC       _DEBUGBUFFERMF
  -------         PROC          _DEBUG_BUFFER_RS232_LCD
  X:0011H         SYMBOL        str
  X:0014H         SYMBOL        num_char
  -------         DO            
  X:0015H         SYMBOL        j
  X:0016H         SYMBOL        d
  -------         ENDDO         
  C:AEA1H         LINE#         212
  C:AEAFH         LINE#         213
  C:AEAFH         LINE#         215
  C:AEB1H         LINE#         216
BL51 BANKED LINKER/LOCATER V6.22.2.0                                                  09/03/2021  14:20:36  PAGE 93


  C:AEBFH         LINE#         217
  C:AEBFH         LINE#         218
  C:AED1H         LINE#         219
  C:AEDBH         LINE#         220
  C:AEE3H         LINE#         221
  C:AEEDH         LINE#         224
  C:AEEFH         LINE#         225
  -------         ENDPROC       _DEBUG_BUFFER_RS232_LCD
  C:B072H         SYMBOL        L?0082
  -------         PROC          L?0081
  -------         ENDPROC       L?0081
  C:B072H         SYMBOL        L?0082
  -------         PROC          _DEBUG_TXT_TIBBO
  X:0064H         SYMBOL        str
  -------         DO            
  X:0067H         SYMBOL        i
  -------         ENDDO         
  C:B078H         LINE#         229
  C:B083H         LINE#         230
  C:B083H         LINE#         232
  C:B086H         LINE#         234
  C:B08EH         LINE#         235
  C:B08EH         LINE#         236
  C:B0AAH         LINE#         237
  C:B0AAH         LINE#         238
  C:B0ADH         LINE#         239
  C:B0B5H         LINE#         241
  C:B0B5H         LINE#         242
  -------         ENDPROC       _DEBUG_TXT_TIBBO
  -------         PROC          _DEBUG_TXT_RS232
  X:0007H         SYMBOL        str
  -------         DO            
  X:000AH         SYMBOL        i
  X:000BH         SYMBOL        d
  -------         ENDDO         
  C:B7BCH         LINE#         243
  C:B7C7H         LINE#         244
  C:B7C7H         LINE#         246
  C:B7CAH         LINE#         249
  C:B7E3H         LINE#         250
  C:B7E3H         LINE#         251
  C:B7EBH         LINE#         252
  C:B7F3H         LINE#         255
  -------         ENDPROC       _DEBUG_TXT_RS232
  -------         PROC          DEBUG_DIVIDIR_TEXTO
  C:BC9DH         LINE#         256
  C:BC9DH         LINE#         257
  C:BC9DH         LINE#         258
  -------         ENDPROC       DEBUG_DIVIDIR_TEXTO
  -------         PROC          RX_DATA
  -------         DO            
  D:0006H         SYMBOL        temporal
  -------         ENDDO         
  C:A228H         LINE#         264
  C:A228H         LINE#         265
  C:A228H         LINE#         268
  C:A22AH         LINE#         269
BL51 BANKED LINKER/LOCATER V6.22.2.0                                                  09/03/2021  14:20:36  PAGE 94


  C:A22DH         LINE#         271
  C:A230H         LINE#         273
  C:A23CH         LINE#         274
  C:A23CH         LINE#         276
  C:A23FH         LINE#         278
  C:A24BH         LINE#         279
  C:A24BH         LINE#         281
  C:A24EH         LINE#         283
  C:A25AH         LINE#         284
  C:A25AH         LINE#         286
  C:A25DH         LINE#         288
  C:A269H         LINE#         289
  C:A269H         LINE#         291
  C:A26CH         LINE#         293
  C:A278H         LINE#         294
  C:A278H         LINE#         296
  C:A27BH         LINE#         298
  C:A287H         LINE#         299
  C:A287H         LINE#         301
  C:A28AH         LINE#         303
  C:A296H         LINE#         304
  C:A296H         LINE#         306
  C:A299H         LINE#         307
  C:A2A7H         LINE#         309
  C:A2AAH         LINE#         310
  C:A2ADH         LINE#         311
  C:A2ADH         LINE#         312
  C:A2ADH         LINE#         315
  C:A2AFH         LINE#         317
  -------         ENDPROC       RX_DATA
  -------         PROC          COND_INI_TIBBO
  C:BCE9H         LINE#         335
  C:BCE9H         LINE#         336
  C:BCE9H         LINE#         338
  C:BCEBH         LINE#         339
  C:BCEDH         LINE#         340
  -------         ENDPROC       COND_INI_TIBBO
  -------         PROC          _DEBUG_PTO_PARALELO
  X:0001H         SYMBOL        buffer
  X:0004H         SYMBOL        Length_trama
  C:B471H         LINE#         341
  C:B47FH         LINE#         342
  C:B47FH         LINE#         344
  C:B488H         LINE#         345
  C:B49FH         LINE#         346
  C:B4A8H         LINE#         347
  C:B4ABH         LINE#         348
  C:B4AEH         LINE#         349
  -------         ENDPROC       _DEBUG_PTO_PARALELO
  -------         PROC          _DEBUG_MONITOR
  X:0011H         SYMBOL        buffer
  X:0014H         SYMBOL        Length_trama
  C:B5E6H         LINE#         352
  C:B5F4H         LINE#         353
  C:B5F4H         LINE#         354
  C:B5F7H         LINE#         355
  C:B600H         LINE#         356
BL51 BANKED LINKER/LOCATER V6.22.2.0                                                  09/03/2021  14:20:36  PAGE 95


  C:B60EH         LINE#         357
  C:B611H         LINE#         358
  C:B61AH         LINE#         359
  C:B61DH         LINE#         360
  C:B620H         LINE#         361
  -------         ENDPROC       _DEBUG_MONITOR
  -------         ENDMOD        TIBBO

  -------         MODULE        UART
  C:0000H         SYMBOL        _ICE_DUMMY_
  C:BA2AH         PUBLIC        com_getchar
  C:BC1AH         PUBLIC        com_rbuflen
  C:BC2CH         PUBLIC        com_tbuflen
  B:00A8H.4       PUBLIC        ES
  B:0098H.0       PUBLIC        RI
  C:B6D6H         PUBLIC        _com_putchar
  B:0098H.1       PUBLIC        TI
  B:0021H.4       PUBLIC        aSk
  B:00B8H.4       PUBLIC        PS
  D:000DH         SYMBOL        r_in
  D:000EH         SYMBOL        r_out
  D:000FH         SYMBOL        t_in
  D:0010H         SYMBOL        t_out
  D:0099H         PUBLIC        SBUF
  D:0087H         PUBLIC        PCON
  D:0089H         PUBLIC        TMOD
  B:0021H.5       SYMBOL        ti_restart
  B:00A8H.3       PUBLIC        ET1
  D:008DH         PUBLIC        TH1
  B:0098H.7       PUBLIC        SM0
  B:0098H.6       PUBLIC        SM1
  D:008BH         PUBLIC        TL1
  B:0098H.5       PUBLIC        SM2
  B:0088H.6       PUBLIC        TR1
  C:B987H         PUBLIC        com_initialize
  X:0217H         PUBLIC        cnt__ask_off
  B:0098H.4       PUBLIC        REN
  C:B3F0H         PUBLIC        com_baudrate
  C:5B5AH         SYMBOL        com_isr
  -------         PROC          COM_ISR
  -------         DO            
  X:0215H         SYMBOL        cDatoRx
  D:0006H         SYMBOL        k
  D:0007H         SYMBOL        bcc
  X:0216H         SYMBOL        num_datos
  -------         ENDDO         
  C:5B5AH         LINE#         102
  C:5B6FH         LINE#         110
  C:5B75H         LINE#         111
  C:5B75H         LINE#         113
  C:5B77H         LINE#         114
  C:5B7DH         LINE#         115
  C:5B8DH         LINE#         116
  C:5B8DH         LINE#         117
  C:5B98H         LINE#         118
  C:5B9AH         LINE#         120
  C:5B9AH         LINE#         121
BL51 BANKED LINKER/LOCATER V6.22.2.0                                                  09/03/2021  14:20:36  PAGE 96


  C:5BAAH         LINE#         122
  C:5BAAH         LINE#         123
  C:5BAFH         LINE#         124
  C:5BAFH         LINE#         125
  C:5BCCH         LINE#         126
  C:5BCCH         LINE#         130
  C:5BCCH         LINE#         133
  C:5BDBH         LINE#         134
  C:5BDBH         LINE#         135
  C:5BDDH         LINE#         136
  C:5BE5H         LINE#         137
  C:5BEAH         LINE#         139
  C:5BEAH         LINE#         141
  C:5BEDH         LINE#         145
  C:5BEDH         LINE#         146
  C:5BEDH         LINE#         147
  C:5C05H         LINE#         148
  C:5C14H         LINE#         149
  C:5C14H         LINE#         150
  C:5C14H         LINE#         151
  C:5C16H         LINE#         153
  C:5C16H         LINE#         154
  C:5C18H         LINE#         155
  C:5C18H         LINE#         156
  C:5C18H         LINE#         157
  C:5C1BH         LINE#         161
  C:5C1BH         LINE#         163
  C:5C24H         LINE#         164
  C:5C24H         LINE#         166
  C:5C2AH         LINE#         167
  C:5C3DH         LINE#         168
  C:5C3DH         LINE#         169
  C:5C40H         LINE#         171
  C:5C40H         LINE#         172
  C:5C55H         LINE#         173
  C:5C5BH         LINE#         174
  C:5C5BH         LINE#         176
  C:5C5EH         LINE#         180
  C:5C5EH         LINE#         182
  C:5C76H         LINE#         183
  C:5C7CH         LINE#         184
  C:5C7FH         LINE#         185
  C:5C7FH         LINE#         186
  C:5C97H         LINE#         187
  C:5C97H         LINE#         188
  C:5C98H         LINE#         189
  C:5CA5H         LINE#         190
  C:5CA5H         LINE#         191
  C:5CB2H         LINE#         192
  C:5CB5H         LINE#         193
  C:5CC3H         LINE#         194
  C:5CC3H         LINE#         195
  C:5CC5H         LINE#         196
  C:5CCAH         LINE#         197
  C:5CCCH         LINE#         198
  C:5CD0H         LINE#         200
  C:5CD2H         LINE#         202
BL51 BANKED LINKER/LOCATER V6.22.2.0                                                  09/03/2021  14:20:36  PAGE 97


  C:5CD2H         LINE#         203
  C:5CD2H         LINE#         204
  C:5CD2H         LINE#         205
  C:5CD4H         LINE#         207
  C:5CD4H         LINE#         208
  C:5CD4H         LINE#         209
  C:5CD4H         LINE#         211
  C:5CD6H         LINE#         213
  C:5CD6H         LINE#         214
  C:5CDCH         LINE#         215
  C:5CDCH         LINE#         217
  C:5CDEH         LINE#         218
  C:5CDEH         LINE#         219
  C:5CF6H         LINE#         220
  C:5D14H         LINE#         221
  C:5D14H         LINE#         222
  C:5D16H         LINE#         223
  C:5D18H         LINE#         224
  C:5D18H         LINE#         225
  C:5D18H         LINE#         227
  C:5D1AH         LINE#         231
  C:5D1AH         LINE#         232
  C:5D1FH         LINE#         233
  C:5D1FH         LINE#         234
  C:5D1FH         LINE#         235
  C:5D1FH         LINE#         240
  C:5D22H         LINE#         241
  C:5D22H         LINE#         242
  C:5D24H         LINE#         244
  C:5D2AH         LINE#         245
  C:5D2AH         LINE#         246
  C:5D34H         LINE#         248
  C:5D36H         LINE#         249
  C:5D38H         LINE#         250
  C:5D3AH         LINE#         252
  C:5D3AH         LINE#         253
  C:5D3CH         LINE#         254
  C:5D3CH         LINE#         255
  C:5D3CH         LINE#         257
  -------         ENDPROC       COM_ISR
  -------         PROC          COM_INITIALIZE
  C:B987H         LINE#         273
  C:B98EH         LINE#         274
  C:B98EH         LINE#         278
  C:B991H         LINE#         283
  C:B994H         LINE#         284
  C:B996H         LINE#         286
  C:B998H         LINE#         287
  C:B99AH         LINE#         292
  C:B99EH         LINE#         293
  C:B9A0H         LINE#         294
  C:B9A2H         LINE#         296
  C:B9A4H         LINE#         297
  C:B9A6H         LINE#         298
  C:B9A8H         LINE#         300
  C:B9AAH         LINE#         301
  C:B9ACH         LINE#         302
BL51 BANKED LINKER/LOCATER V6.22.2.0                                                  09/03/2021  14:20:36  PAGE 98


  -------         ENDPROC       COM_INITIALIZE
  -------         PROC          COM_BAUDRATE
  -------         DO            
  D:0007H         SYMBOL        dataee
  -------         ENDDO         
  C:B3F0H         LINE#         308
  C:B3F7H         LINE#         310
  C:B3F7H         LINE#         312
  C:B400H         LINE#         317
  C:B402H         LINE#         318
  C:B405H         LINE#         319
  C:B407H         LINE#         324
  C:B409H         LINE#         325
  C:B40BH         LINE#         327
  C:B40EH         LINE#         329
  C:B411H         LINE#         330
  C:B414H         LINE#         332
  C:B417H         LINE#         333
  C:B417H         LINE#         334
  C:B417H         LINE#         335
  C:B417H         LINE#         336
  C:B417H         LINE#         337
  C:B419H         LINE#         339
  C:B419H         LINE#         340
  C:B424H         LINE#         341
  C:B427H         LINE#         342
  C:B42AH         LINE#         343
  C:B42CH         LINE#         344
  C:B42CH         LINE#         345
  -------         ENDPROC       COM_BAUDRATE
  -------         PROC          _COM_PUTCHAR
  X:00AAH         SYMBOL        c
  C:B6D6H         LINE#         351
  C:B6E2H         LINE#         352
  C:B6E2H         LINE#         356
  C:B6EFH         LINE#         357
  C:B6F3H         LINE#         363
  C:B701H         LINE#         365
  C:B703H         LINE#         367
  C:B706H         LINE#         368
  C:B706H         LINE#         369
  C:B708H         LINE#         370
  C:B70AH         LINE#         371
  C:B70AH         LINE#         373
  C:B70CH         LINE#         374
  -------         ENDPROC       _COM_PUTCHAR
  -------         PROC          COM_GETCHAR
  C:BA2AH         LINE#         380
  C:BA31H         LINE#         381
  C:BA31H         LINE#         382
  C:BA37H         LINE#         383
  C:BA3DH         LINE#         385
  C:BA4BH         LINE#         386
  -------         ENDPROC       COM_GETCHAR
  -------         PROC          COM_RBUFLEN
  C:BC1AH         LINE#         392
  C:BC21H         LINE#         393
BL51 BANKED LINKER/LOCATER V6.22.2.0                                                  09/03/2021  14:20:36  PAGE 99


  C:BC21H         LINE#         394
  C:BC27H         LINE#         395
  -------         ENDPROC       COM_RBUFLEN
  -------         PROC          COM_TBUFLEN
  C:BC2CH         LINE#         401
  C:BC33H         LINE#         402
  C:BC33H         LINE#         403
  C:BC39H         LINE#         404
  -------         ENDPROC       COM_TBUFLEN
  -------         ENDMOD        UART

  -------         MODULE        LINTECH
  C:0000H         SYMBOL        _ICE_DUMMY_
  C:9A25H         PUBLIC        _Inicializa
  C:8E5CH         PUBLIC        _RD_MF
  C:9650H         PUBLIC        Dwload_EEprom
  C:9DB9H         PUBLIC        _Card_Insercion
  C:82A6H         PUBLIC        _Mov_Card
  C:77E5H         PUBLIC        _WR_MF
  C:9FFAH         PUBLIC        LoadVerify_EEprom
  C:A2B0H         PUBLIC        Unique_Identifier_UID
  C:A8D8H         PUBLIC        Power_off
  C:A3BFH         PUBLIC        _Check_Status
  C:95A6H         PUBLIC        Clave_Seguridad_S2
  C:A858H         PUBLIC        Aut_Card_check_Status
  -------         PROC          _INICIALIZA
  X:0002H         SYMBOL        TipoMovimiento
  -------         DO            
  D:0003H         SYMBOL        j
  X:0003H         SYMBOL        bcc
  X:0004H         SYMBOL        g_scArrTxComSoft
  -------         ENDDO         
  C:9A25H         LINE#         69
  C:9A2AH         LINE#         70
  C:9A2AH         LINE#         73
  C:9A2DH         LINE#         74
  C:9A43H         LINE#         75
  C:9A43H         LINE#         77
  C:9A4CH         LINE#         79
  C:9A52H         LINE#         80
  C:9A55H         LINE#         81
  C:9A57H         LINE#         82
  C:9A5BH         LINE#         83
  C:9A5FH         LINE#         84
  C:9A63H         LINE#         85
  C:9A6BH         LINE#         86
  C:9A6FH         LINE#         87
  C:9A7BH         LINE#         88
  C:9A7BH         LINE#         89
  C:9A8FH         LINE#         90
  C:9A92H         LINE#         91
  C:9A9AH         LINE#         92
  C:9A9CH         LINE#         93
  C:9AA1H         LINE#         94
  C:9AB0H         LINE#         95
  C:9ABBH         LINE#         96
  C:9AC1H         LINE#         97
BL51 BANKED LINKER/LOCATER V6.22.2.0                                                  09/03/2021  14:20:36  PAGE 100


  C:9AC1H         LINE#         98
  -------         ENDPROC       _INICIALIZA
  -------         PROC          _CHECK_STATUS
  X:0002H         SYMBOL        Detalle
  -------         DO            
  D:0006H         SYMBOL        j
  D:0007H         SYMBOL        bcc
  X:0003H         SYMBOL        g_scArrTxComSoft
  -------         ENDDO         
  C:A3BFH         LINE#         110
  C:A3C4H         LINE#         111
  C:A3C4H         LINE#         115
  C:A3CAH         LINE#         116
  C:A3CAH         LINE#         117
  C:A3CEH         LINE#         118
  C:A3D0H         LINE#         120
  C:A3D0H         LINE#         121
  C:A3D7H         LINE#         122
  C:A3D7H         LINE#         123
  C:A3D9H         LINE#         125
  C:A3DFH         LINE#         126
  C:A3E2H         LINE#         127
  C:A3E4H         LINE#         128
  C:A3E8H         LINE#         129
  C:A3ECH         LINE#         130
  C:A3F0H         LINE#         131
  C:A3F8H         LINE#         132
  C:A3FCH         LINE#         133
  C:A408H         LINE#         134
  C:A408H         LINE#         135
  C:A415H         LINE#         136
  C:A418H         LINE#         137
  C:A41DH         LINE#         138
  C:A41FH         LINE#         139
  C:A424H         LINE#         140
  C:A433H         LINE#         141
  C:A43EH         LINE#         142
  C:A444H         LINE#         143
  -------         ENDPROC       _CHECK_STATUS
  -------         PROC          _CARD_INSERCION
  D:0007H         SYMBOL        Tipo
  -------         DO            
  D:0006H         SYMBOL        j
  D:0007H         SYMBOL        bcc
  X:0002H         SYMBOL        g_scArrTxComSoft
  -------         ENDDO         
  C:9DB9H         LINE#         153
  C:9DB9H         LINE#         154
  C:9DB9H         LINE#         157
  C:9DC6H         LINE#         158
  C:9DC6H         LINE#         159
  C:9DCDH         LINE#         160
  C:9DD3H         LINE#         161
  C:9DD5H         LINE#         163
  C:9DD5H         LINE#         165
  C:9DDCH         LINE#         166
  C:9DE2H         LINE#         168
BL51 BANKED LINKER/LOCATER V6.22.2.0                                                  09/03/2021  14:20:36  PAGE 101


  C:9DE2H         LINE#         170
  C:9DE4H         LINE#         172
  C:9DEAH         LINE#         173
  C:9DEDH         LINE#         174
  C:9DEFH         LINE#         175
  C:9DF3H         LINE#         176
  C:9DF7H         LINE#         177
  C:9DFBH         LINE#         179
  C:9E01H         LINE#         180
  C:9E0DH         LINE#         181
  C:9E0DH         LINE#         182
  C:9E1AH         LINE#         183
  C:9E1DH         LINE#         185
  C:9E22H         LINE#         187
  C:9E24H         LINE#         188
  C:9E29H         LINE#         189
  C:9E38H         LINE#         190
  C:9E43H         LINE#         191
  C:9E49H         LINE#         192
  -------         ENDPROC       _CARD_INSERCION
  -------         PROC          _MOV_CARD
  X:0002H         SYMBOL        Posicion
  -------         DO            
  D:0003H         SYMBOL        j
  X:0003H         SYMBOL        bcc
  X:0004H         SYMBOL        g_scArrTxComSoft
  -------         ENDDO         
  C:82A6H         LINE#         203
  C:82ABH         LINE#         204
  C:82ABH         LINE#         207
  C:82AEH         LINE#         209
  C:82CEH         LINE#         210
  C:82CEH         LINE#         211
  C:82D5H         LINE#         212
  C:82D5H         LINE#         213
  C:82DBH         LINE#         214
  C:82DDH         LINE#         215
  C:82E4H         LINE#         216
  C:82E4H         LINE#         217
  C:82EAH         LINE#         218
  C:82ECH         LINE#         219
  C:82F3H         LINE#         220
  C:82F3H         LINE#         221
  C:82F9H         LINE#         222
  C:82FBH         LINE#         223
  C:8302H         LINE#         224
  C:8302H         LINE#         225
  C:8308H         LINE#         226
  C:830AH         LINE#         227
  C:8311H         LINE#         228
  C:8311H         LINE#         229
  C:831AH         LINE#         230
  C:831AH         LINE#         232
  C:8320H         LINE#         233
  C:8323H         LINE#         234
  C:8325H         LINE#         235
  C:8329H         LINE#         236
BL51 BANKED LINKER/LOCATER V6.22.2.0                                                  09/03/2021  14:20:36  PAGE 102


  C:832DH         LINE#         237
  C:8331H         LINE#         238
  C:8339H         LINE#         239
  C:833DH         LINE#         240
  C:8349H         LINE#         241
  C:8349H         LINE#         242
  C:835DH         LINE#         243
  C:8360H         LINE#         244
  C:8368H         LINE#         245
  C:836AH         LINE#         246
  C:836FH         LINE#         247
  C:837EH         LINE#         248
  C:8389H         LINE#         249
  C:838FH         LINE#         250
  C:838FH         LINE#         252
  -------         ENDPROC       _MOV_CARD
  -------         PROC          AUT_CARD_CHECK_STATUS
  -------         DO            
  D:0003H         SYMBOL        j
  X:0002H         SYMBOL        bcc
  X:0003H         SYMBOL        g_scArrTxComSoft
  -------         ENDDO         
  C:A858H         LINE#         258
  C:A858H         LINE#         259
  C:A858H         LINE#         262
  C:A85DH         LINE#         264
  C:A866H         LINE#         266
  C:A86CH         LINE#         267
  C:A86FH         LINE#         268
  C:A871H         LINE#         269
  C:A875H         LINE#         270
  C:A879H         LINE#         271
  C:A87DH         LINE#         272
  C:A881H         LINE#         273
  C:A885H         LINE#         274
  C:A891H         LINE#         275
  C:A891H         LINE#         276
  C:A8A5H         LINE#         277
  C:A8A8H         LINE#         278
  C:A8B0H         LINE#         279
  C:A8B2H         LINE#         280
  C:A8B7H         LINE#         281
  C:A8C6H         LINE#         282
  C:A8D1H         LINE#         283
  C:A8D7H         LINE#         284
  -------         ENDPROC       AUT_CARD_CHECK_STATUS
  -------         PROC          CLAVE_SEGURIDAD_S2
  -------         DO            
  D:0003H         SYMBOL        j
  X:0002H         SYMBOL        bcc
  X:0003H         SYMBOL        g_scArrTxComSoft
  -------         ENDDO         
  C:95A6H         LINE#         287
  C:95A6H         LINE#         288
  C:95A6H         LINE#         291
  C:95ABH         LINE#         292
  C:95B4H         LINE#         295
BL51 BANKED LINKER/LOCATER V6.22.2.0                                                  09/03/2021  14:20:36  PAGE 103


  C:95BAH         LINE#         296
  C:95BDH         LINE#         297
  C:95BFH         LINE#         298
  C:95C3H         LINE#         299
  C:95C7H         LINE#         300
  C:95CBH         LINE#         301
  C:95CFH         LINE#         302
  C:95D2H         LINE#         303
  C:95D6H         LINE#         304
  C:95D9H         LINE#         305
  C:95DDH         LINE#         307
  C:95E1H         LINE#         309
  C:95E5H         LINE#         310
  C:95E9H         LINE#         311
  C:95EDH         LINE#         312
  C:95F1H         LINE#         313
  C:95F5H         LINE#         314
  C:95F9H         LINE#         317
  C:95FDH         LINE#         319
  C:9609H         LINE#         320
  C:9609H         LINE#         321
  C:961DH         LINE#         322
  C:9620H         LINE#         323
  C:9628H         LINE#         324
  C:962AH         LINE#         325
  C:962FH         LINE#         326
  C:963EH         LINE#         327
  C:9649H         LINE#         328
  C:964FH         LINE#         331
  -------         ENDPROC       CLAVE_SEGURIDAD_S2
  -------         PROC          DWLOAD_EEPROM
  -------         DO            
  D:0003H         SYMBOL        j
  X:0002H         SYMBOL        bcc
  X:0003H         SYMBOL        g_scArrTxComSoft
  -------         ENDDO         
  C:9650H         LINE#         336
  C:9650H         LINE#         337
  C:9650H         LINE#         340
  C:9655H         LINE#         341
  C:965EH         LINE#         343
  C:9664H         LINE#         344
  C:9667H         LINE#         345
  C:9669H         LINE#         346
  C:966DH         LINE#         347
  C:9671H         LINE#         348
  C:9675H         LINE#         349
  C:9679H         LINE#         350
  C:967CH         LINE#         351
  C:9680H         LINE#         352
  C:9683H         LINE#         353
  C:9686H         LINE#         354
  C:968AH         LINE#         355
  C:968EH         LINE#         356
  C:9692H         LINE#         357
  C:9696H         LINE#         358
  C:969AH         LINE#         359
BL51 BANKED LINKER/LOCATER V6.22.2.0                                                  09/03/2021  14:20:36  PAGE 104


  C:969EH         LINE#         360
  C:96A2H         LINE#         361
  C:96A6H         LINE#         363
  C:96B2H         LINE#         364
  C:96B2H         LINE#         365
  C:96C6H         LINE#         366
  C:96C9H         LINE#         367
  C:96D1H         LINE#         368
  C:96D3H         LINE#         369
  C:96D8H         LINE#         370
  C:96E7H         LINE#         371
  C:96F2H         LINE#         372
  C:96F8H         LINE#         373
  -------         ENDPROC       DWLOAD_EEPROM
  -------         PROC          LOADVERIFY_EEPROM
  -------         DO            
  D:0003H         SYMBOL        j
  X:0002H         SYMBOL        bcc
  X:0003H         SYMBOL        g_scArrTxComSoft
  -------         ENDDO         
  C:9FFAH         LINE#         417
  C:9FFAH         LINE#         418
  C:9FFAH         LINE#         421
  C:9FFFH         LINE#         422
  C:A008H         LINE#         425
  C:A00EH         LINE#         426
  C:A011H         LINE#         427
  C:A013H         LINE#         428
  C:A017H         LINE#         429
  C:A01BH         LINE#         430
  C:A01FH         LINE#         431
  C:A023H         LINE#         432
  C:A026H         LINE#         433
  C:A02AH         LINE#         434
  C:A02DH         LINE#         435
  C:A030H         LINE#         436
  C:A034H         LINE#         441
  C:A040H         LINE#         442
  C:A040H         LINE#         443
  C:A054H         LINE#         444
  C:A057H         LINE#         445
  C:A05FH         LINE#         446
  C:A061H         LINE#         447
  C:A066H         LINE#         448
  C:A075H         LINE#         449
  C:A080H         LINE#         450
  C:A086H         LINE#         452
  -------         ENDPROC       LOADVERIFY_EEPROM
  -------         PROC          _RD_MF
  X:0002H         SYMBOL        Sector
  X:0003H         SYMBOL        Bloque
  -------         DO            
  D:0003H         SYMBOL        j
  X:0004H         SYMBOL        bcc
  X:0005H         SYMBOL        g_scArrTxComSoft
  -------         ENDDO         
  C:8E5CH         LINE#         458
BL51 BANKED LINKER/LOCATER V6.22.2.0                                                  09/03/2021  14:20:36  PAGE 105


  C:8E64H         LINE#         459
  C:8E64H         LINE#         463
  C:8E67H         LINE#         465
  C:8E70H         LINE#         466
  C:8E78H         LINE#         468
  C:8E81H         LINE#         469
  C:8E89H         LINE#         470
  C:8E92H         LINE#         473
  C:8E98H         LINE#         474
  C:8E9BH         LINE#         475
  C:8E9DH         LINE#         476
  C:8EA1H         LINE#         477
  C:8EA5H         LINE#         478
  C:8EA9H         LINE#         479
  C:8EADH         LINE#         480
  C:8EB0H         LINE#         481
  C:8EB4H         LINE#         482
  C:8EBCH         LINE#         483
  C:8EC4H         LINE#         484
  C:8EC8H         LINE#         485
  C:8ECCH         LINE#         487
  C:8ED8H         LINE#         488
  C:8ED8H         LINE#         489
  C:8EECH         LINE#         490
  C:8EEFH         LINE#         491
  C:8EF7H         LINE#         494
  C:8EF9H         LINE#         495
  C:8EFEH         LINE#         496
  C:8F0DH         LINE#         497
  C:8F18H         LINE#         498
  C:8F1EH         LINE#         500
  -------         ENDPROC       _RD_MF
  -------         PROC          _WR_MF
  X:0002H         SYMBOL        Sector
  X:0003H         SYMBOL        Bloque
  X:0004H         SYMBOL        buffer
  -------         DO            
  D:0005H         SYMBOL        j
  X:0007H         SYMBOL        bcc
  X:0008H         SYMBOL        g_scArrTxComSoft
  -------         ENDDO         
  C:77E5H         LINE#         507
  C:77F6H         LINE#         509
  C:77F6H         LINE#         512
  C:77F9H         LINE#         514
  C:7802H         LINE#         515
  C:780AH         LINE#         517
  C:7813H         LINE#         518
  C:781BH         LINE#         519
  C:7824H         LINE#         521
  C:782AH         LINE#         522
  C:782DH         LINE#         523
  C:782FH         LINE#         524
  C:7833H         LINE#         526
  C:7837H         LINE#         527
  C:783BH         LINE#         528
  C:783FH         LINE#         529
BL51 BANKED LINKER/LOCATER V6.22.2.0                                                  09/03/2021  14:20:36  PAGE 106


  C:7842H         LINE#         530
  C:7846H         LINE#         531
  C:784EH         LINE#         532
  C:7856H         LINE#         533
  C:785AH         LINE#         535
  C:7866H         LINE#         536
  C:7866H         LINE#         537
  C:7886H         LINE#         538
  C:7889H         LINE#         540
  C:788FH         LINE#         542
  C:789BH         LINE#         543
  C:789BH         LINE#         544
  C:78B2H         LINE#         545
  C:78B5H         LINE#         546
  C:78BDH         LINE#         549
  C:78BFH         LINE#         550
  C:78C4H         LINE#         551
  C:78D3H         LINE#         552
  C:78DEH         LINE#         553
  C:78E4H         LINE#         555
  -------         ENDPROC       _WR_MF
  -------         PROC          UNIQUE_IDENTIFIER_UID
  -------         DO            
  D:0003H         SYMBOL        j
  X:0002H         SYMBOL        bcc
  X:0003H         SYMBOL        g_scArrTxComSoft
  -------         ENDDO         
  C:A2B0H         LINE#         560
  C:A2B0H         LINE#         561
  C:A2B0H         LINE#         564
  C:A2B5H         LINE#         566
  C:A2BEH         LINE#         568
  C:A2C4H         LINE#         569
  C:A2C7H         LINE#         570
  C:A2C9H         LINE#         571
  C:A2CDH         LINE#         572
  C:A2D1H         LINE#         573
  C:A2D5H         LINE#         574
  C:A2D9H         LINE#         575
  C:A2DDH         LINE#         576
  C:A2E1H         LINE#         577
  C:A2E5H         LINE#         578
  C:A2F1H         LINE#         579
  C:A2F1H         LINE#         580
  C:A305H         LINE#         581
  C:A308H         LINE#         582
  C:A310H         LINE#         583
  C:A312H         LINE#         584
  C:A317H         LINE#         585
  C:A326H         LINE#         586
  C:A331H         LINE#         587
  C:A337H         LINE#         588
  -------         ENDPROC       UNIQUE_IDENTIFIER_UID
  -------         PROC          POWER_OFF
  -------         DO            
  D:0003H         SYMBOL        j
  X:0002H         SYMBOL        bcc
BL51 BANKED LINKER/LOCATER V6.22.2.0                                                  09/03/2021  14:20:36  PAGE 107


  X:0003H         SYMBOL        g_scArrTxComSoft
  -------         ENDDO         
  C:A8D8H         LINE#         589
  C:A8D8H         LINE#         590
  C:A8D8H         LINE#         593
  C:A8DDH         LINE#         595
  C:A8E6H         LINE#         597
  C:A8ECH         LINE#         598
  C:A8EFH         LINE#         599
  C:A8F1H         LINE#         600
  C:A8F5H         LINE#         601
  C:A8F9H         LINE#         602
  C:A8FDH         LINE#         603
  C:A901H         LINE#         604
  C:A905H         LINE#         605
  C:A911H         LINE#         606
  C:A911H         LINE#         607
  C:A925H         LINE#         608
  C:A928H         LINE#         609
  C:A930H         LINE#         610
  C:A932H         LINE#         611
  C:A937H         LINE#         612
  C:A946H         LINE#         613
  C:A951H         LINE#         614
  C:A957H         LINE#         617
  -------         ENDPROC       POWER_OFF
  -------         ENDMOD        LINTECH

  -------         MODULE        VERIFICADOR
  C:0000H         SYMBOL        _ICE_DUMMY_
  D:0080H         PUBLIC        P0
  C:9987H         PUBLIC        Ingreso_Vehiculo
  D:0090H         PUBLIC        P1
  C:B931H         PUBLIC        _Armar_Trama_Tarjeta_Sector1_Bloque0
  D:00B0H         PUBLIC        P3
  C:87E3H         PUBLIC        _Valida_Tipo_Tarjeta
  C:B63FH         PUBLIC        _Load_Secuencia_Expedidor
  C:5D4FH         PUBLIC        _Armar_Trama_Tarjeta_Sector1_Bloque2
  C:50B9H         PUBLIC        _Armar_Trama_Pto_Paralelo_Expedidor
  B:0080H.2       PUBLIC        led_err_imp
  C:B9B1H         PUBLIC        Analiza_Presencia_rotacion
  C:9F6AH         PUBLIC        _Disparo_Lock_Entrada_Vehiculo
  C:A4C9H         PUBLIC        _Armar_Trama_Placa
  C:8552H         PUBLIC        _rta_cmd_transporte
  C:4E16H         PUBLIC        _Armar_Trama_Monitor
  C:6B38H         PUBLIC        Secuencia_inicio_expedidor
  C:88BDH         PUBLIC        _Analiza_Uid_Card
  B:0080H.0       PUBLIC        rx_ip
  B:0080H.3       PUBLIC        Atascado_GP0_PIN_3
  B:0090H.7       PUBLIC        lock
  C:9C90H         PUBLIC        _Responde_Lectura_Tarjeta_Sector1_Bloque0
  C:8FE1H         PUBLIC        error_rx_pto
  C:5F3AH         PUBLIC        _Responde_Lectura_Tarjeta_Sector1_Bloque1
  C:7017H         PUBLIC        _Responde_Lectura_Tarjeta_Sector1_Bloque2
  C:AA4DH         PUBLIC        Respuesta_Placa_Cancel
  B:0090H.1       PUBLIC        DataIn
  C:979FH         PUBLIC        _Send_Pto_Paralelo
BL51 BANKED LINKER/LOCATER V6.22.2.0                                                  09/03/2021  14:20:36  PAGE 108


  C:B52EH         PUBLIC        Trama_Validacion_P_N
  B:0022H.0       PUBLIC        MenSual
  C:6EE9H         PUBLIC        _Armar_Trama_Pto_Paralelo_Expedidor_Mensual
  C:6766H         PUBLIC        _Responde_ReeLectura_Tarjeta_Sector1_Bloque2
  C:38C9H         PUBLIC        _SecuenciaExpedidorMF
  C:B8F9H         PUBLIC        Pregunta_Placa_Habilitada
  C:AD36H         PUBLIC        _Pregunta_Lpr
  C:A087H         PUBLIC        Wait_Placa
  C:A9D5H         PUBLIC        Responde_Estado_Sensores_Transporte
  C:9AC2H         PUBLIC        Entrega_Card_Captura
  C:AD93H         PUBLIC        _Respuesta_Segunda_clave
  X:0147H         SYMBOL        Estado
  C:B82AH         PUBLIC        _Responde_Write_Tarjeta_Sector1_Bloque0
  C:B7F4H         PUBLIC        _Responde_Write_Tarjeta_Sector1_Bloque1
  C:B18CH         PUBLIC        _Responde_Write_Tarjeta_Sector2_Bloque0
  C:A338H         PUBLIC        _Responde_Write_Tarjeta_Sector1_Bloque2
  C:A654H         PUBLIC        Responde_Tipo_Tarjeta
  C:B8C8H         PUBLIC        _Tarjeta_Rotacion
  -------         PROC          TRAMA_VALIDACION_P_N
  -------         DO            
  D:0007H         SYMBOL        Trama_Validacion_P_N
  -------         ENDDO         
  C:B52EH         LINE#         579
  C:B52EH         LINE#         580
  C:B52EH         LINE#         581
  C:B530H         LINE#         583
  C:B546H         LINE#         584
  C:B546H         LINE#         585
  C:B549H         LINE#         586
  C:B549H         LINE#         587
  C:B54BH         LINE#         590
  C:B553H         LINE#         591
  C:B553H         LINE#         593
  C:B555H         LINE#         595
  C:B556H         LINE#         596
  C:B55AH         LINE#         597
  C:B55AH         LINE#         599
  C:B55CH         LINE#         601
  C:B55DH         LINE#         603
  C:B55DH         LINE#         604
  C:B566H         LINE#         605
  C:B568H         LINE#         607
  C:B568H         LINE#         608
  C:B569H         LINE#         610
  C:B569H         LINE#         612
  C:B56BH         LINE#         614
  C:B56BH         LINE#         616
  C:B56BH         LINE#         618
  C:B56BH         LINE#         619
  -------         ENDPROC       TRAMA_VALIDACION_P_N
  -------         PROC          ERROR_RX_PTO
  -------         DO            
  X:00B7H         SYMBOL        cnt_espera_ask_on
  X:0007H         SYMBOL        error_rx_pto
  -------         ENDDO         
  C:8FE1H         LINE#         643
  C:8FE1H         LINE#         644
BL51 BANKED LINKER/LOCATER V6.22.2.0                                                  09/03/2021  14:20:36  PAGE 109


  C:8FE1H         LINE#         647
  C:8FE7H         LINE#         651
  C:8FF0H         LINE#         652
  C:8FF8H         LINE#         653
  C:9001H         LINE#         654
  C:9009H         LINE#         655
  C:9012H         LINE#         656
  C:9015H         LINE#         658
  C:9015H         LINE#         659
  C:901BH         LINE#         660
  C:9025H         LINE#         661
  C:9025H         LINE#         662
  C:902EH         LINE#         663
  C:9030H         LINE#         664
  C:9037H         LINE#         665
  C:903CH         LINE#         666
  C:9042H         LINE#         667
  C:9047H         LINE#         668
  C:9049H         LINE#         669
  C:9050H         LINE#         670
  C:9056H         LINE#         671
  C:9056H         LINE#         673
  C:9056H         LINE#         674
  C:905BH         LINE#         675
  C:905BH         LINE#         676
  C:905BH         LINE#         677
  C:905DH         LINE#         679
  C:905DH         LINE#         680
  C:906BH         LINE#         681
  C:907EH         LINE#         682
  C:907EH         LINE#         683
  C:907FH         LINE#         685
  C:9085H         LINE#         686
  C:9089H         LINE#         687
  C:908BH         LINE#         688
  C:908BH         LINE#         689
  C:908DH         LINE#         691
  C:908DH         LINE#         692
  C:908EH         LINE#         693
  C:9093H         LINE#         694
  C:9099H         LINE#         695
  C:9099H         LINE#         696
  C:9099H         LINE#         697
  C:909EH         LINE#         698
  -------         ENDPROC       ERROR_RX_PTO
  -------         PROC          _RTA_CMD_TRANSPORTE
  X:0002H         SYMBOL        secuencia_Expedidor
  -------         DO            
  X:0005H         SYMBOL        temp
  X:0006H         SYMBOL        EstadoComSeqMF
  -------         ENDDO         
  C:8552H         LINE#         714
  C:855DH         LINE#         715
  C:855DH         LINE#         721
  C:856AH         LINE#         722
  C:856AH         LINE#         723
  C:8572H         LINE#         724
BL51 BANKED LINKER/LOCATER V6.22.2.0                                                  09/03/2021  14:20:36  PAGE 110


  C:8572H         LINE#         725
  C:8580H         LINE#         726
  C:8583H         LINE#         727
  C:8589H         LINE#         728
  C:8589H         LINE#         729
  C:8592H         LINE#         730
  C:85A6H         LINE#         731
  C:85AEH         LINE#         732
  C:85AEH         LINE#         733
  C:85B7H         LINE#         734
  C:85B7H         LINE#         736
  C:85C8H         LINE#         738
  C:85CAH         LINE#         740
  C:85CAH         LINE#         743
  C:85E2H         LINE#         744
  C:85E2H         LINE#         745
  C:85EDH         LINE#         746
  C:85EFH         LINE#         748
  C:85EFH         LINE#         749
  C:85FDH         LINE#         750
  C:85FDH         LINE#         751
  C:85FDH         LINE#         752
  C:85FFH         LINE#         754
  C:85FFH         LINE#         756
  C:8613H         LINE#         757
  C:8628H         LINE#         758
  C:8628H         LINE#         759
  C:862DH         LINE#         760
  -------         ENDPROC       _RTA_CMD_TRANSPORTE
  -------         PROC          ANALIZA_PRESENCIA_ROTACION
  -------         DO            
  X:0002H         SYMBOL        Estado_expedidor
  -------         ENDDO         
  C:B9B1H         LINE#         821
  C:B9B1H         LINE#         822
  C:B9B1H         LINE#         824
  C:B9B7H         LINE#         825
  C:B9B7H         LINE#         827
  C:B9BDH         LINE#         828
  C:B9BFH         LINE#         830
  C:B9BFH         LINE#         832
  C:B9C4H         LINE#         833
  C:B9C9H         LINE#         834
  C:B9CFH         LINE#         835
  C:B9D5H         LINE#         837
  C:B9D5H         LINE#         838
  C:B9DAH         LINE#         839
  -------         ENDPROC       ANALIZA_PRESENCIA_ROTACION
  -------         PROC          _ANALIZA_UID_CARD
  X:0002H         SYMBOL        Atributos_Expedidor
  -------         DO            
  X:0005H         SYMBOL        Estado_expedidor
  D:0007H         SYMBOL        temp
  X:0006H         SYMBOL        buffer_UID
  -------         ENDDO         
  C:88BDH         LINE#         843
  C:88C8H         LINE#         844
BL51 BANKED LINKER/LOCATER V6.22.2.0                                                  09/03/2021  14:20:36  PAGE 111


  C:88C8H         LINE#         848
  C:88D8H         LINE#         849
  C:88D8H         LINE#         851
  C:88E4H         LINE#         852
  C:88E4H         LINE#         853
  C:88FCH         LINE#         855
  C:88FFH         LINE#         857
  C:8908H         LINE#         858
  C:8919H         LINE#         861
  C:8922H         LINE#         862
  C:892AH         LINE#         863
  C:8932H         LINE#         864
  C:893AH         LINE#         865
  C:8942H         LINE#         866
  C:894BH         LINE#         868
  C:8962H         LINE#         869
  C:896CH         LINE#         870
  C:8976H         LINE#         871
  C:8980H         LINE#         872
  C:8986H         LINE#         873
  C:8988H         LINE#         875
  C:8988H         LINE#         876
  C:898EH         LINE#         877
  C:898EH         LINE#         878
  C:8993H         LINE#         879
  -------         ENDPROC       _ANALIZA_UID_CARD
  -------         PROC          INGRESO_VEHICULO
  -------         DO            
  X:0002H         SYMBOL        CardAutomatic
  X:00B9H         SYMBOL        pulseboton
  -------         ENDDO         
  C:9987H         LINE#         883
  C:9987H         LINE#         884
  C:9987H         LINE#         887
  C:9990H         LINE#         889
  C:9999H         LINE#         890
  C:9999H         LINE#         892
  C:99A7H         LINE#         894
  C:99AAH         LINE#         895
  C:99AAH         LINE#         897
  C:99ADH         LINE#         899
  C:99ADH         LINE#         901
  C:99B5H         LINE#         902
  C:99B5H         LINE#         903
  C:99BEH         LINE#         904
  C:99C3H         LINE#         905
  C:99C3H         LINE#         906
  C:99C5H         LINE#         908
  C:99C5H         LINE#         910
  C:99C8H         LINE#         911
  C:99C8H         LINE#         913
  C:99CBH         LINE#         915
  C:99CBH         LINE#         917
  C:99D8H         LINE#         918
  C:99DDH         LINE#         919
  C:99E2H         LINE#         920
  C:99E4H         LINE#         922
BL51 BANKED LINKER/LOCATER V6.22.2.0                                                  09/03/2021  14:20:36  PAGE 112


  C:99E4H         LINE#         923
  C:99EAH         LINE#         926
  C:99EAH         LINE#         927
  C:99EDH         LINE#         928
  C:99F0H         LINE#         929
  C:99F0H         LINE#         930
  C:99F2H         LINE#         931
  C:99F7H         LINE#         932
  C:99FBH         LINE#         933
  C:9A01H         LINE#         934
  C:9A03H         LINE#         936
  C:9A03H         LINE#         937
  C:9A06H         LINE#         938
  C:9A06H         LINE#         940
  C:9A09H         LINE#         942
  C:9A09H         LINE#         943
  C:9A0FH         LINE#         944
  C:9A15H         LINE#         945
  C:9A15H         LINE#         948
  C:9A15H         LINE#         949
  C:9A17H         LINE#         951
  C:9A17H         LINE#         954
  C:9A19H         LINE#         955
  C:9A1FH         LINE#         956
  C:9A1FH         LINE#         957
  C:9A24H         LINE#         958
  -------         ENDPROC       INGRESO_VEHICULO
  -------         PROC          RESPONDE_ESTADO_SENSORES_TRANSPORTE
  -------         DO            
  X:0002H         SYMBOL        Estado_expedidor
  -------         ENDDO         
  C:A9D5H         LINE#         965
  C:A9D5H         LINE#         966
  C:A9D5H         LINE#         969
  C:A9DEH         LINE#         971
  C:A9E6H         LINE#         972
  C:A9E6H         LINE#         974
  C:A9F1H         LINE#         975
  C:A9F1H         LINE#         976
  C:A9F5H         LINE#         977
  C:A9F5H         LINE#         978
  C:A9FEH         LINE#         979
  C:AA03H         LINE#         981
  C:AA03H         LINE#         983
  C:AA05H         LINE#         985
  C:AA05H         LINE#         988
  C:AA0BH         LINE#         990
  C:AA0BH         LINE#         991
  C:AA0DH         LINE#         993
  C:AA0DH         LINE#         995
  C:AA16H         LINE#         997
  C:AA1BH         LINE#         1000
  C:AA20H         LINE#         1001
  C:AA20H         LINE#         1002
  C:AA22H         LINE#         1003
  C:AA29H         LINE#         1004
  C:AA29H         LINE#         1006
BL51 BANKED LINKER/LOCATER V6.22.2.0                                                  09/03/2021  14:20:36  PAGE 113


  C:AA2FH         LINE#         1008
  C:AA2FH         LINE#         1009
  C:AA31H         LINE#         1010
  C:AA38H         LINE#         1012
  C:AA38H         LINE#         1013
  C:AA41H         LINE#         1014
  C:AA47H         LINE#         1015
  C:AA47H         LINE#         1020
  C:AA4CH         LINE#         1021
  -------         ENDPROC       RESPONDE_ESTADO_SENSORES_TRANSPORTE
  -------         PROC          RESPONDE_TIPO_TARJETA
  -------         DO            
  X:0002H         SYMBOL        Estado_expedidor
  -------         ENDDO         
  C:A654H         LINE#         1037
  C:A654H         LINE#         1038
  C:A654H         LINE#         1041
  C:A65DH         LINE#         1043
  C:A665H         LINE#         1044
  C:A665H         LINE#         1045
  C:A670H         LINE#         1046
  C:A670H         LINE#         1047
  C:A679H         LINE#         1048
  C:A67FH         LINE#         1049
  C:A67FH         LINE#         1050
  C:A67FH         LINE#         1051
  C:A681H         LINE#         1053
  C:A681H         LINE#         1054
  C:A684H         LINE#         1055
  C:A684H         LINE#         1056
  C:A686H         LINE#         1058
  C:A686H         LINE#         1059
  C:A68DH         LINE#         1060
  C:A68DH         LINE#         1062
  C:A696H         LINE#         1064
  C:A69BH         LINE#         1065
  C:A6A0H         LINE#         1067
  C:A6A3H         LINE#         1069
  C:A6A5H         LINE#         1071
  C:A6A5H         LINE#         1073
  C:A6A5H         LINE#         1074
  C:A6A5H         LINE#         1075
  C:A6A5H         LINE#         1076
  C:A6A5H         LINE#         1077
  C:A6A7H         LINE#         1079
  C:A6A7H         LINE#         1080
  C:A6AEH         LINE#         1081
  C:A6AEH         LINE#         1084
  C:A6B7H         LINE#         1086
  C:A6BCH         LINE#         1087
  C:A6C1H         LINE#         1089
  C:A6C7H         LINE#         1092
  C:A6C9H         LINE#         1094
  C:A6C9H         LINE#         1096
  C:A6CBH         LINE#         1097
  C:A6D0H         LINE#         1098
  C:A6D0H         LINE#         1099
BL51 BANKED LINKER/LOCATER V6.22.2.0                                                  09/03/2021  14:20:36  PAGE 114


  C:A6D0H         LINE#         1101
  C:A6D5H         LINE#         1102
  -------         ENDPROC       RESPONDE_TIPO_TARJETA
  -------         PROC          _RESPONDE_LECTURA_TARJETA_SECTOR1_BLOQUE1
  X:0002H         SYMBOL        Atributos_Expedidor
  -------         DO            
  D:0007H         SYMBOL        temp
  X:0005H         SYMBOL        Estado_expedidor
  X:0006H         SYMBOL        buffer_S1_B1
  X:0017H         SYMBOL        ID_CLIENTE
  D:0007H         SYMBOL        COD_PARK
  X:00BAH         SYMBOL        falla
  -------         ENDDO         
  C:5F3AH         LINE#         1114
  C:5F45H         LINE#         1115
  C:5F45H         LINE#         1122
  C:5F4EH         LINE#         1126
  C:5F5EH         LINE#         1127
  C:5F5EH         LINE#         1129
  C:5F6AH         LINE#         1130
  C:5F6AH         LINE#         1131
  C:5F82H         LINE#         1133
  C:5F85H         LINE#         1136
  C:5F8EH         LINE#         1137
  C:5F9FH         LINE#         1138
  C:5FACH         LINE#         1139
  C:5FB5H         LINE#         1142
  C:5FD4H         LINE#         1143
  C:5FD4H         LINE#         1145
  C:5FDDH         LINE#         1146
  C:5FE5H         LINE#         1147
  C:5FEEH         LINE#         1149
  C:5FF7H         LINE#         1150
  C:5FFFH         LINE#         1151
  C:6008H         LINE#         1153
  C:6011H         LINE#         1154
  C:6019H         LINE#         1155
  C:6022H         LINE#         1157
  C:602BH         LINE#         1158
  C:6033H         LINE#         1159
  C:603CH         LINE#         1161
  C:6045H         LINE#         1162
  C:604DH         LINE#         1163
  C:6056H         LINE#         1165
  C:606DH         LINE#         1167
  C:6077H         LINE#         1168
  C:6081H         LINE#         1169
  C:608BH         LINE#         1171
  C:6090H         LINE#         1172
  C:60A3H         LINE#         1173
  C:60A8H         LINE#         1174
  C:60AEH         LINE#         1176
  C:60B0H         LINE#         1178
  C:60B0H         LINE#         1179
  C:60B5H         LINE#         1180
  C:60BEH         LINE#         1181
  C:60C3H         LINE#         1182
BL51 BANKED LINKER/LOCATER V6.22.2.0                                                  09/03/2021  14:20:36  PAGE 115


  C:60C5H         LINE#         1183
  C:60C5H         LINE#         1184
  C:60C5H         LINE#         1185
  C:60C7H         LINE#         1187
  C:60C7H         LINE#         1189
  C:60CFH         LINE#         1190
  C:60CFH         LINE#         1191
  C:60D5H         LINE#         1192
  C:60D5H         LINE#         1193
  C:60E2H         LINE#         1195
  C:60E2H         LINE#         1196
  C:60EBH         LINE#         1197
  C:60F1H         LINE#         1199
  C:60F3H         LINE#         1201
  C:60F3H         LINE#         1202
  C:60F8H         LINE#         1203
  C:6101H         LINE#         1204
  C:6106H         LINE#         1205
  C:610BH         LINE#         1206
  C:6111H         LINE#         1207
  C:6111H         LINE#         1208
  C:6111H         LINE#         1210
  C:6116H         LINE#         1211
  -------         ENDPROC       _RESPONDE_LECTURA_TARJETA_SECTOR1_BLOQUE1
  -------         PROC          _RESPONDE_LECTURA_TARJETA_SECTOR1_BLOQUE2
  X:0002H         SYMBOL        Atributos_Expedidor
  -------         DO            
  D:0007H         SYMBOL        temp
  X:0005H         SYMBOL        Estado_expedidor
  X:0006H         SYMBOL        buffer_S1_B2
  -------         ENDDO         
  C:7017H         LINE#         1216
  C:7022H         LINE#         1217
  C:7022H         LINE#         1223
  C:702BH         LINE#         1227
  C:703BH         LINE#         1228
  C:703BH         LINE#         1230
  C:7047H         LINE#         1231
  C:7047H         LINE#         1232
  C:705FH         LINE#         1233
  C:7062H         LINE#         1234
  C:706BH         LINE#         1235
  C:707CH         LINE#         1239
  C:7085H         LINE#         1240
  C:7092H         LINE#         1241
  C:70AEH         LINE#         1242
  C:70B7H         LINE#         1244
  C:70C0H         LINE#         1246
  C:70DCH         LINE#         1247
  C:70E6H         LINE#         1248
  C:70EFH         LINE#         1251
  C:70F8H         LINE#         1252
  C:7100H         LINE#         1253
  C:7109H         LINE#         1257
  C:7120H         LINE#         1260
  C:712CH         LINE#         1261
  C:7132H         LINE#         1264
BL51 BANKED LINKER/LOCATER V6.22.2.0                                                  09/03/2021  14:20:36  PAGE 116


  C:7134H         LINE#         1266
  C:7134H         LINE#         1267
  C:713AH         LINE#         1268
  C:713AH         LINE#         1269
  C:713FH         LINE#         1270
  -------         ENDPROC       _RESPONDE_LECTURA_TARJETA_SECTOR1_BLOQUE2
  -------         PROC          _RESPONDE_LECTURA_TARJETA_SECTOR1_BLOQUE0
  X:0002H         SYMBOL        Nombre_Mensual
  -------         DO            
  D:0007H         SYMBOL        temp
  X:0005H         SYMBOL        Estado_expedidor
  -------         ENDDO         
  C:9C90H         LINE#         1272
  C:9C9BH         LINE#         1273
  C:9C9BH         LINE#         1279
  C:9CA4H         LINE#         1283
  C:9CB1H         LINE#         1284
  C:9CB1H         LINE#         1286
  C:9CBDH         LINE#         1287
  C:9CBDH         LINE#         1288
  C:9CDDH         LINE#         1289
  C:9CE0H         LINE#         1290
  C:9CF4H         LINE#         1291
  C:9CFDH         LINE#         1292
  C:9D0BH         LINE#         1293
  C:9D14H         LINE#         1294
  C:9D1AH         LINE#         1297
  C:9D1CH         LINE#         1299
  C:9D1CH         LINE#         1300
  C:9D22H         LINE#         1301
  C:9D22H         LINE#         1302
  C:9D27H         LINE#         1303
  -------         ENDPROC       _RESPONDE_LECTURA_TARJETA_SECTOR1_BLOQUE0
  -------         PROC          _RESPONDE_REELECTURA_TARJETA_SECTOR1_BLOQUE2
  X:0002H         SYMBOL        lectura_anterior
  X:0005H         SYMBOL        Atributos_Expedidor
  -------         DO            
  D:0007H         SYMBOL        temp
  X:0008H         SYMBOL        Estado_expedidor
  X:0009H         SYMBOL        reelectura
  X:00BBH         SYMBOL        error_lectura
  -------         ENDDO         
  C:6766H         LINE#         1304
  C:6771H         LINE#         1305
  C:6771H         LINE#         1311
  C:677AH         LINE#         1314
  C:678AH         LINE#         1315
  C:678AH         LINE#         1317
  C:6796H         LINE#         1318
  C:6796H         LINE#         1319
  C:67B6H         LINE#         1320
  C:67B9H         LINE#         1321
  C:67CDH         LINE#         1322
  C:67D6H         LINE#         1323
  C:67ECH         LINE#         1324
  C:67F5H         LINE#         1326
  C:6819H         LINE#         1327
BL51 BANKED LINKER/LOCATER V6.22.2.0                                                  09/03/2021  14:20:36  PAGE 117


  C:6819H         LINE#         1328
  C:681DH         LINE#         1329
  C:6826H         LINE#         1330
  C:682FH         LINE#         1331
  C:683FH         LINE#         1332
  C:6851H         LINE#         1333
  C:6857H         LINE#         1334
  C:6857H         LINE#         1335
  C:6859H         LINE#         1337
  C:6859H         LINE#         1338
  C:685FH         LINE#         1339
  C:686FH         LINE#         1340
  C:686FH         LINE#         1341
  C:6872H         LINE#         1342
  C:6878H         LINE#         1344
  C:687AH         LINE#         1346
  C:687AH         LINE#         1347
  C:687DH         LINE#         1348
  C:6886H         LINE#         1349
  C:6896H         LINE#         1350
  C:68A9H         LINE#         1351
  C:68AFH         LINE#         1353
  C:68AFH         LINE#         1354
  C:68AFH         LINE#         1356
  C:68AFH         LINE#         1357
  C:68B4H         LINE#         1358
  -------         ENDPROC       _RESPONDE_REELECTURA_TARJETA_SECTOR1_BLOQUE2
  -------         PROC          _RESPONDE_WRITE_TARJETA_SECTOR1_BLOQUE1
  X:0002H         SYMBOL        Buffer_Write_MF
  -------         DO            
  D:0007H         SYMBOL        Estado_expedidor
  -------         ENDDO         
  C:B7F4H         LINE#         1359
  C:B7FFH         LINE#         1360
  C:B7FFH         LINE#         1362
  C:B808H         LINE#         1363
  C:B811H         LINE#         1364
  C:B827H         LINE#         1365
  C:B829H         LINE#         1366
  C:B829H         LINE#         1367
  -------         ENDPROC       _RESPONDE_WRITE_TARJETA_SECTOR1_BLOQUE1
  -------         PROC          _RESPONDE_WRITE_TARJETA_SECTOR1_BLOQUE2
  X:0002H         SYMBOL        Atributos_Expedidor
  X:0005H         SYMBOL        Buffer_Write_MF
  -------         DO            
  X:0008H         SYMBOL        Estado_expedidor
  -------         ENDDO         
  C:A338H         LINE#         1368
  C:A343H         LINE#         1369
  C:A343H         LINE#         1371
  C:A34CH         LINE#         1372
  C:A355H         LINE#         1373
  C:A36BH         LINE#         1374
  C:A37BH         LINE#         1375
  C:A37BH         LINE#         1378
  C:A37EH         LINE#         1379
  C:A390H         LINE#         1380
BL51 BANKED LINKER/LOCATER V6.22.2.0                                                  09/03/2021  14:20:36  PAGE 118


  C:A396H         LINE#         1381
  C:A39CH         LINE#         1382
  C:A39EH         LINE#         1384
  C:A39EH         LINE#         1385
  C:A3A1H         LINE#         1386
  C:A3B3H         LINE#         1387
  C:A3B9H         LINE#         1389
  C:A3B9H         LINE#         1390
  C:A3BEH         LINE#         1391
  -------         ENDPROC       _RESPONDE_WRITE_TARJETA_SECTOR1_BLOQUE2
  -------         PROC          _RESPONDE_WRITE_TARJETA_SECTOR1_BLOQUE0
  X:0002H         SYMBOL        Buffer_Write_MF
  C:B82AH         LINE#         1394
  C:B835H         LINE#         1395
  C:B835H         LINE#         1397
  C:B83EH         LINE#         1398
  C:B847H         LINE#         1399
  C:B85DH         LINE#         1401
  C:B85FH         LINE#         1402
  -------         ENDPROC       _RESPONDE_WRITE_TARJETA_SECTOR1_BLOQUE0
  -------         PROC          _RESPONDE_WRITE_TARJETA_SECTOR2_BLOQUE0
  X:0002H         SYMBOL        Buffer_Write_MF
  C:B18CH         LINE#         1405
  C:B197H         LINE#         1406
  C:B197H         LINE#         1408
  C:B1A0H         LINE#         1409
  C:B1A9H         LINE#         1410
  C:B1B2H         LINE#         1411
  C:B1BBH         LINE#         1412
  C:B1D0H         LINE#         1413
  C:B1D2H         LINE#         1414
  -------         ENDPROC       _RESPONDE_WRITE_TARJETA_SECTOR2_BLOQUE0
  -------         PROC          _PREGUNTA_LPR
  X:0002H         SYMBOL        Atributos_Expedidor
  -------         DO            
  D:0007H         SYMBOL        Estado_expedidor
  X:0005H         SYMBOL        contador
  X:0007H         SYMBOL        time_out
  -------         ENDDO         
  C:AD36H         LINE#         1418
  C:AD41H         LINE#         1419
  C:AD41H         LINE#         1421
  C:AD46H         LINE#         1422
  C:AD4AH         LINE#         1423
  C:AD53H         LINE#         1424
  C:AD61H         LINE#         1425
  C:AD6FH         LINE#         1426
  C:AD6FH         LINE#         1428
  C:AD80H         LINE#         1429
  C:AD8CH         LINE#         1430
  C:AD8CH         LINE#         1431
  C:AD90H         LINE#         1433
  C:AD90H         LINE#         1434
  C:AD90H         LINE#         1437
  C:AD92H         LINE#         1439
  C:AD92H         LINE#         1440
  -------         ENDPROC       _PREGUNTA_LPR
BL51 BANKED LINKER/LOCATER V6.22.2.0                                                  09/03/2021  14:20:36  PAGE 119


  -------         PROC          PREGUNTA_PLACA_HABILITADA
  -------         DO            
  X:0002H         SYMBOL        Estado_expedidor
  -------         ENDDO         
  C:B8F9H         LINE#         1442
  C:B8F9H         LINE#         1443
  C:B8F9H         LINE#         1445
  C:B902H         LINE#         1446
  C:B911H         LINE#         1447
  C:B911H         LINE#         1449
  C:B914H         LINE#         1450
  C:B919H         LINE#         1451
  C:B91EH         LINE#         1452
  C:B920H         LINE#         1454
  C:B920H         LINE#         1455
  C:B923H         LINE#         1456
  C:B923H         LINE#         1457
  C:B928H         LINE#         1458
  -------         ENDPROC       PREGUNTA_PLACA_HABILITADA
  -------         PROC          _RESPUESTA_SEGUNDA_CLAVE
  X:0002H         SYMBOL        Atributos_Expedidor
  X:0005H         SYMBOL        Buffer_Write_MF
  C:AD93H         LINE#         1459
  C:AD9EH         LINE#         1460
  C:AD9EH         LINE#         1462
  C:ADA7H         LINE#         1463
  C:ADBDH         LINE#         1466
  C:ADCDH         LINE#         1467
  C:ADDFH         LINE#         1468
  C:ADEDH         LINE#         1470
  C:ADEFH         LINE#         1471
  -------         ENDPROC       _RESPUESTA_SEGUNDA_CLAVE
  -------         PROC          RESPUESTA_PLACA_CANCEL
  -------         DO            
  X:0003H         SYMBOL        Estado_expedidor
  X:0004H         SYMBOL        Cancel
  -------         ENDDO         
  C:AA4DH         LINE#         1472
  C:AA4DH         LINE#         1473
  C:AA4DH         LINE#         1475
  C:AA5BH         LINE#         1476
  C:AA64H         LINE#         1477
  C:AA6DH         LINE#         1478
  C:AA76H         LINE#         1487
  C:AA8CH         LINE#         1488
  C:AA8CH         LINE#         1489
  C:AA94H         LINE#         1490
  C:AA94H         LINE#         1491
  C:AA96H         LINE#         1492
  C:AAACH         LINE#         1493
  C:AAACH         LINE#         1494
  C:AAB4H         LINE#         1495
  C:AAB4H         LINE#         1496
  C:AAB6H         LINE#         1498
  C:AAB6H         LINE#         1506
  C:AABCH         LINE#         1508
  C:AABCH         LINE#         1509
BL51 BANKED LINKER/LOCATER V6.22.2.0                                                  09/03/2021  14:20:36  PAGE 120


  C:AAC1H         LINE#         1510
  -------         ENDPROC       RESPUESTA_PLACA_CANCEL
  -------         PROC          _ARMAR_TRAMA_TARJETA_SECTOR1_BLOQUE2
  X:000FH         SYMBOL        Atributos_Expedidor
  X:0012H         SYMBOL        Buffer_Write_MF
  C:5D4FH         LINE#         1542
  C:5D5AH         LINE#         1543
  C:5D5AH         LINE#         1548
  C:5D7EH         LINE#         1549
  C:5DA5H         LINE#         1550
  C:5DCCH         LINE#         1551
  C:5DF3H         LINE#         1552
  C:5E1AH         LINE#         1555
  C:5E21H         LINE#         1556
  C:5E28H         LINE#         1557
  C:5E2FH         LINE#         1559
  C:5E44H         LINE#         1560
  C:5E44H         LINE#         1561
  C:5E5BH         LINE#         1562
  C:5E74H         LINE#         1563
  C:5E74H         LINE#         1564
  C:5E77H         LINE#         1568
  C:5E77H         LINE#         1570
  C:5EA6H         LINE#         1571
  C:5ED5H         LINE#         1573
  C:5EEDH         LINE#         1574
  C:5EEDH         LINE#         1575
  C:5EFAH         LINE#         1576
  C:5EFCH         LINE#         1578
  C:5EFCH         LINE#         1579
  C:5F0CH         LINE#         1580
  C:5F0CH         LINE#         1581
  C:5F0CH         LINE#         1583
  C:5F1EH         LINE#         1584
  C:5F25H         LINE#         1585
  C:5F2CH         LINE#         1586
  C:5F33H         LINE#         1587
  -------         ENDPROC       _ARMAR_TRAMA_TARJETA_SECTOR1_BLOQUE2
  -------         PROC          L?0349
  -------         ENDPROC       L?0349
  -------         PROC          _ARMAR_TRAMA_TARJETA_SECTOR1_BLOQUE0
  X:000CH         SYMBOL        Buffer_Write_MF
  C:B931H         LINE#         1589
  C:B93CH         LINE#         1590
  C:B93CH         LINE#         1592
  -------         ENDPROC       _ARMAR_TRAMA_TARJETA_SECTOR1_BLOQUE0
  -------         PROC          _ARMAR_TRAMA_PTO_PARALELO_EXPEDIDOR
  X:0009H         SYMBOL        Atributos_Expedidor
  X:000CH         SYMBOL        longitud_trama_pto_paralelo
  -------         DO            
  X:00BCH         SYMBOL        buffer
  X:000FH         SYMBOL        ticket
  X:001AH         SYMBOL        j
  -------         ENDDO         
  C:50B9H         LINE#         1594
  C:50C4H         LINE#         1595
  C:50C4H         LINE#         1602
BL51 BANKED LINKER/LOCATER V6.22.2.0                                                  09/03/2021  14:20:36  PAGE 121


  C:50CAH         LINE#         1603
  C:50CEH         LINE#         1604
  C:50D1H         LINE#         1605
  C:50DDH         LINE#         1606
  C:50F4H         LINE#         1607
  C:5102H         LINE#         1609
  C:5113H         LINE#         1611
  C:513FH         LINE#         1612
  C:516BH         LINE#         1613
  C:5197H         LINE#         1614
  C:51C3H         LINE#         1615
  C:51EFH         LINE#         1616
  C:5203H         LINE#         1626
  C:5212H         LINE#         1627
  C:5212H         LINE#         1628
  C:5218H         LINE#         1629
  C:5218H         LINE#         1630
  C:522FH         LINE#         1631
  C:5245H         LINE#         1632
  C:525BH         LINE#         1633
  C:5271H         LINE#         1634
  C:5287H         LINE#         1635
  C:529CH         LINE#         1636
  C:529CH         LINE#         1637
  C:529EH         LINE#         1639
  C:529EH         LINE#         1640
  C:52B1H         LINE#         1641
  C:52B1H         LINE#         1642
  C:52B1H         LINE#         1643
  C:52B3H         LINE#         1645
  C:52B3H         LINE#         1646
  C:52C7H         LINE#         1647
  C:52DAH         LINE#         1648
  C:52DAH         LINE#         1649
  C:52E8H         LINE#         1650
  C:52F6H         LINE#         1651
  C:5308H         LINE#         1653
  C:530EH         LINE#         1654
  -------         ENDPROC       _ARMAR_TRAMA_PTO_PARALELO_EXPEDIDOR
  -------         PROC          _ARMAR_TRAMA_PTO_PARALELO_EXPEDIDOR_MENSUAL
  X:0009H         SYMBOL        Atributos_Expedidor
  X:000CH         SYMBOL        longitud_trama_pto_paralelo
  -------         DO            
  X:00D8H         SYMBOL        buffer
  -------         ENDDO         
  C:6EE9H         LINE#         1655
  C:6EF4H         LINE#         1656
  C:6EF4H         LINE#         1662
  C:6EFAH         LINE#         1663
  C:6EFEH         LINE#         1664
  C:6F13H         LINE#         1665
  C:6F1DH         LINE#         1666
  C:6F27H         LINE#         1667
  C:6F31H         LINE#         1671
  C:6F42H         LINE#         1672
  C:6F5EH         LINE#         1673
  C:6F7AH         LINE#         1674
BL51 BANKED LINKER/LOCATER V6.22.2.0                                                  09/03/2021  14:20:36  PAGE 122


  C:6F96H         LINE#         1675
  C:6FB2H         LINE#         1685
  C:6FBEH         LINE#         1686
  C:6FBEH         LINE#         1688
  C:6FC5H         LINE#         1689
  C:6FC9H         LINE#         1690
  C:6FCDH         LINE#         1691
  C:6FD1H         LINE#         1692
  C:6FD5H         LINE#         1693
  C:6FD9H         LINE#         1695
  C:6FD9H         LINE#         1697
  C:6FEFH         LINE#         1698
  C:6FEFH         LINE#         1699
  C:6FF2H         LINE#         1700
  C:6FF4H         LINE#         1702
  C:6FF4H         LINE#         1703
  C:6FF7H         LINE#         1704
  C:6FF7H         LINE#         1706
  C:6FFDH         LINE#         1707
  C:7000H         LINE#         1708
  C:7010H         LINE#         1709
  C:7016H         LINE#         1710
  -------         ENDPROC       _ARMAR_TRAMA_PTO_PARALELO_EXPEDIDOR_MENSUAL
  -------         PROC          _ARMAR_TRAMA_MONITOR
  X:0009H         SYMBOL        Atributos_Expedidor
  -------         DO            
  X:00F4H         SYMBOL        buffer
  X:000CH         SYMBOL        ticket
  X:0017H         SYMBOL        j
  -------         ENDDO         
  C:4E16H         LINE#         1711
  C:4E21H         LINE#         1712
  C:4E21H         LINE#         1718
  C:4E26H         LINE#         1719
  C:4E2CH         LINE#         1720
  C:4E34H         LINE#         1721
  C:4E38H         LINE#         1722
  C:4E41H         LINE#         1723
  C:4E41H         LINE#         1724
  C:4E44H         LINE#         1725
  C:4E46H         LINE#         1727
  C:4E46H         LINE#         1728
  C:4E49H         LINE#         1729
  C:4E49H         LINE#         1732
  C:4E4CH         LINE#         1733
  C:4E4CH         LINE#         1734
  C:4E51H         LINE#         1735
  C:4E5DH         LINE#         1736
  C:4E74H         LINE#         1737
  C:4E77H         LINE#         1739
  C:4E77H         LINE#         1740
  C:4E92H         LINE#         1741
  C:4EA0H         LINE#         1742
  C:4EAEH         LINE#         1743
  C:4EBAH         LINE#         1744
  C:4EC8H         LINE#         1745
  C:4F01H         LINE#         1747
BL51 BANKED LINKER/LOCATER V6.22.2.0                                                  09/03/2021  14:20:36  PAGE 123


  C:4F01H         LINE#         1748
  C:4F0FH         LINE#         1749
  C:4F20H         LINE#         1752
  C:4F4CH         LINE#         1753
  C:4F6AH         LINE#         1756
  C:4F8BH         LINE#         1757
  C:4FA9H         LINE#         1760
  C:4FCAH         LINE#         1761
  C:4FE8H         LINE#         1764
  C:5009H         LINE#         1765
  C:5027H         LINE#         1768
  C:5048H         LINE#         1769
  C:5066H         LINE#         1770
  C:5079H         LINE#         1773
  C:5087H         LINE#         1775
  C:5095H         LINE#         1776
  C:50A2H         LINE#         1777
  C:50AEH         LINE#         1778
  C:50B3H         LINE#         1779
  C:50B8H         LINE#         1780
  -------         ENDPROC       _ARMAR_TRAMA_MONITOR
  -------         PROC          _ARMAR_TRAMA_PLACA
  X:0008H         SYMBOL        Buffer_Write_MF
  -------         DO            
  D:0007H         SYMBOL        j
  X:000BH         SYMBOL        len_placa
  -------         ENDDO         
  C:A4C9H         LINE#         1781
  C:A4D4H         LINE#         1782
  C:A4D4H         LINE#         1785
  C:A4E2H         LINE#         1786
  C:A4E4H         LINE#         1787
  C:A4E4H         LINE#         1788
  C:A4F2H         LINE#         1789
  C:A4F2H         LINE#         1790
  C:A500H         LINE#         1791
  C:A50CH         LINE#         1792
  C:A50CH         LINE#         1793
  C:A526H         LINE#         1794
  C:A529H         LINE#         1795
  C:A535H         LINE#         1796
  C:A535H         LINE#         1797
  C:A549H         LINE#         1798
  C:A54CH         LINE#         1799
  -------         ENDPROC       _ARMAR_TRAMA_PLACA
  C:B623H         SYMBOL        L?0348
  -------         PROC          L?0347
  -------         ENDPROC       L?0347
  C:B623H         SYMBOL        L?0348
  -------         PROC          _LOAD_SECUENCIA_EXPEDIDOR
  D:0001H         SYMBOL        Secuencia_Expedidor
  D:0004H         SYMBOL        estadoactivo
  X:0007H         SYMBOL        estadoactual
  X:0009H         SYMBOL        estadofuturo
  C:B63FH         LINE#         1800
  C:B63FH         LINE#         1801
  C:B63FH         LINE#         1802
BL51 BANKED LINKER/LOCATER V6.22.2.0                                                  09/03/2021  14:20:36  PAGE 124


  C:B646H         LINE#         1803
  C:B64EH         LINE#         1804
  C:B659H         LINE#         1805
  C:B65FH         LINE#         1806
  -------         ENDPROC       _LOAD_SECUENCIA_EXPEDIDOR
  -------         PROC          _DISPARO_LOCK_ENTRADA_VEHICULO
  X:0002H         SYMBOL        Nombre_Mensual
  -------         DO            
  X:0005H         SYMBOL        Estado_expedidor
  X:010CH         SYMBOL        take_card
  -------         ENDDO         
  C:9F6AH         LINE#         1807
  C:9F75H         LINE#         1808
  C:9F75H         LINE#         1813
  C:9F7EH         LINE#         1817
  C:9F85H         LINE#         1818
  C:9F85H         LINE#         1820
  C:9F8EH         LINE#         1822
  C:9F94H         LINE#         1823
  C:9F96H         LINE#         1824
  C:9F9BH         LINE#         1826
  C:9FABH         LINE#         1827
  C:9FB1H         LINE#         1830
  C:9FB3H         LINE#         1831
  C:9FBBH         LINE#         1832
  C:9FBBH         LINE#         1833
  C:9FC1H         LINE#         1834
  C:9FC1H         LINE#         1835
  C:9FCEH         LINE#         1836
  C:9FD3H         LINE#         1837
  C:9FD8H         LINE#         1838
  C:9FDAH         LINE#         1840
  C:9FDAH         LINE#         1841
  C:9FE0H         LINE#         1843
  C:9FE0H         LINE#         1845
  C:9FE6H         LINE#         1846
  C:9FECH         LINE#         1848
  C:9FEEH         LINE#         1850
  C:9FEEH         LINE#         1851
  C:9FF4H         LINE#         1852
  C:9FF4H         LINE#         1854
  C:9FF4H         LINE#         1859
  C:9FF9H         LINE#         1860
  -------         ENDPROC       _DISPARO_LOCK_ENTRADA_VEHICULO
  -------         PROC          _SEND_PTO_PARALELO
  X:0002H         SYMBOL        Atributos_Expedidor
  -------         DO            
  X:0005H         SYMBOL        Trama_Expedidor
  X:0008H         SYMBOL        leng_trama_pto
  -------         ENDDO         
  C:979FH         LINE#         1861
  C:97AAH         LINE#         1862
  C:97AAH         LINE#         1865
  C:97ADH         LINE#         1866
  C:97ADH         LINE#         1867
  C:97D4H         LINE#         1868
  C:97D6H         LINE#         1870
BL51 BANKED LINKER/LOCATER V6.22.2.0                                                  09/03/2021  14:20:36  PAGE 125


  C:97D6H         LINE#         1871
  C:97FDH         LINE#         1872
  C:9800H         LINE#         1873
  C:9800H         LINE#         1875
  C:9811H         LINE#         1876
  C:981AH         LINE#         1877
  C:9831H         LINE#         1881
  C:9834H         LINE#         1882
  C:983AH         LINE#         1883
  C:983FH         LINE#         1884
  C:9841H         LINE#         1885
  C:9843H         LINE#         1886
  -------         ENDPROC       _SEND_PTO_PARALELO
  -------         PROC          ENTREGA_CARD_CAPTURA
  -------         DO            
  X:0002H         SYMBOL        Estado_expedidor
  -------         ENDDO         
  C:9AC2H         LINE#         1890
  C:9AC2H         LINE#         1891
  C:9AC2H         LINE#         1895
  C:9ACBH         LINE#         1896
  C:9ACEH         LINE#         1897
  C:9AD1H         LINE#         1898
  C:9AD1H         LINE#         1899
  C:9ADBH         LINE#         1900
  C:9ADBH         LINE#         1901
  C:9ADDH         LINE#         1902
  C:9ADFH         LINE#         1903
  C:9AE8H         LINE#         1904
  C:9AE8H         LINE#         1905
  C:9AE8H         LINE#         1907
  C:9AEAH         LINE#         1909
  C:9AEAH         LINE#         1910
  C:9AF0H         LINE#         1911
  C:9AF0H         LINE#         1913
  C:9AF6H         LINE#         1915
  C:9B09H         LINE#         1916
  C:9B09H         LINE#         1917
  C:9B16H         LINE#         1918
  C:9B16H         LINE#         1919
  C:9B18H         LINE#         1920
  C:9B21H         LINE#         1922
  C:9B23H         LINE#         1923
  C:9B28H         LINE#         1924
  C:9B2EH         LINE#         1926
  C:9B30H         LINE#         1927
  C:9B3DH         LINE#         1928
  C:9B3DH         LINE#         1929
  C:9B43H         LINE#         1930
  C:9B43H         LINE#         1931
  C:9B43H         LINE#         1933
  C:9B45H         LINE#         1935
  C:9B45H         LINE#         1936
  C:9B47H         LINE#         1937
  C:9B50H         LINE#         1938
  C:9B52H         LINE#         1939
  C:9B57H         LINE#         1940
BL51 BANKED LINKER/LOCATER V6.22.2.0                                                  09/03/2021  14:20:36  PAGE 126


  C:9B57H         LINE#         1941
  C:9B57H         LINE#         1943
  C:9B5CH         LINE#         1944
  -------         ENDPROC       ENTREGA_CARD_CAPTURA
  -------         PROC          WAIT_PLACA
  -------         DO            
  X:0002H         SYMBOL        Estado_expedidor
  -------         ENDDO         
  C:A087H         LINE#         1945
  C:A087H         LINE#         1946
  C:A087H         LINE#         1950
  C:A090H         LINE#         1952
  C:A0A6H         LINE#         1953
  C:A0A6H         LINE#         1954
  C:A0A9H         LINE#         1955
  C:A0A9H         LINE#         1957
  C:A0ACH         LINE#         1958
  C:A0ACH         LINE#         1959
  C:A0AEH         LINE#         1961
  C:A0B4H         LINE#         1962
  C:A0B4H         LINE#         1965
  C:A0BCH         LINE#         1966
  C:A0BEH         LINE#         1969
  C:A0BEH         LINE#         1970
  C:A0C4H         LINE#         1971
  C:A0D7H         LINE#         1972
  C:A0D7H         LINE#         1973
  C:A0E4H         LINE#         1974
  C:A0E4H         LINE#         1976
  C:A0F3H         LINE#         1977
  C:A0F9H         LINE#         1978
  C:A0FBH         LINE#         1979
  C:A108H         LINE#         1980
  C:A108H         LINE#         1981
  C:A10EH         LINE#         1982
  C:A10EH         LINE#         1983
  C:A10EH         LINE#         1984
  C:A10EH         LINE#         1985
  C:A113H         LINE#         1986
  -------         ENDPROC       WAIT_PLACA
  -------         PROC          _TARJETA_ROTACION
  D:0001H         SYMBOL        Atributos_Expedidor
  X:000CH         SYMBOL        Buffer_Write_MF
  C:B8C8H         LINE#         2064
  C:B8C8H         LINE#         2065
  C:B8C8H         LINE#         2066
  C:B8CDH         LINE#         2067
  C:B8D6H         LINE#         2068
  C:B8F6H         LINE#         2069
  C:B8F8H         LINE#         2072
  -------         ENDPROC       _TARJETA_ROTACION
  -------         PROC          _VALIDA_TIPO_TARJETA
  X:0002H         SYMBOL        Atributos_Expedidor
  X:0005H         SYMBOL        Buffer_Write_MF
  -------         DO            
  X:0008H         SYMBOL        Estado_expedidor
  -------         ENDDO         
BL51 BANKED LINKER/LOCATER V6.22.2.0                                                  09/03/2021  14:20:36  PAGE 127


  C:87E3H         LINE#         2073
  C:87EEH         LINE#         2074
  C:87EEH         LINE#         2115
  C:87FBH         LINE#         2116
  C:87FBH         LINE#         2118
  C:8804H         LINE#         2119
  C:880AH         LINE#         2120
  C:880AH         LINE#         2121
  C:8816H         LINE#         2122
  C:8816H         LINE#         2123
  C:8833H         LINE#         2125
  C:8833H         LINE#         2126
  C:8850H         LINE#         2127
  C:8852H         LINE#         2129
  C:8852H         LINE#         2130
  C:885BH         LINE#         2131
  C:8860H         LINE#         2132
  C:8862H         LINE#         2133
  C:8862H         LINE#         2134
  C:8862H         LINE#         2135
  C:8864H         LINE#         2137
  C:8864H         LINE#         2138
  C:886DH         LINE#         2139
  C:8895H         LINE#         2140
  C:8895H         LINE#         2141
  C:8897H         LINE#         2143
  C:8897H         LINE#         2145
  C:889CH         LINE#         2146
  C:88A1H         LINE#         2147
  C:88A1H         LINE#         2148
  C:88A1H         LINE#         2149
  C:88A3H         LINE#         2151
  C:88A3H         LINE#         2152
  C:88ACH         LINE#         2153
  C:88B1H         LINE#         2155
  C:88B7H         LINE#         2156
  C:88B7H         LINE#         2158
  C:88BCH         LINE#         2159
  -------         ENDPROC       _VALIDA_TIPO_TARJETA
  -------         PROC          SECUENCIA_INICIO_EXPEDIDOR
  -------         DO            
  X:0001H         SYMBOL        temp
  -------         ENDDO         
  C:6B38H         LINE#         2413
  C:6B38H         LINE#         2414
  C:6B38H         LINE#         2416
  C:6B58H         LINE#         2417
  C:6B58H         LINE#         2418
  C:6B58H         LINE#         2421
  C:6B5DH         LINE#         2422
  C:6B63H         LINE#         2425
  C:6B65H         LINE#         2426
  C:6B65H         LINE#         2437
  C:6B65H         LINE#         2439
  C:6B73H         LINE#         2440
  C:6B73H         LINE#         2441
  C:6B7FH         LINE#         2442
BL51 BANKED LINKER/LOCATER V6.22.2.0                                                  09/03/2021  14:20:36  PAGE 128


  C:6B7FH         LINE#         2443
  C:6B85H         LINE#         2444
  C:6B88H         LINE#         2445
  C:6B90H         LINE#         2446
  C:6B90H         LINE#         2447
  C:6B97H         LINE#         2448
  C:6BABH         LINE#         2449
  C:6BABH         LINE#         2450
  C:6BADH         LINE#         2452
  C:6BADH         LINE#         2453
  C:6BB4H         LINE#         2454
  C:6BBAH         LINE#         2455
  C:6BBAH         LINE#         2456
  C:6BBDH         LINE#         2458
  C:6BBDH         LINE#         2459
  C:6BC6H         LINE#         2460
  C:6BDAH         LINE#         2461
  C:6BE0H         LINE#         2462
  C:6BE0H         LINE#         2463
  C:6BE3H         LINE#         2464
  C:6BE3H         LINE#         2470
  C:6BE3H         LINE#         2472
  C:6BE6H         LINE#         2473
  C:6BECH         LINE#         2477
  C:6BEEH         LINE#         2478
  C:6BEEH         LINE#         2488
  C:6BEEH         LINE#         2490
  C:6BFCH         LINE#         2491
  C:6BFCH         LINE#         2492
  C:6C08H         LINE#         2493
  C:6C08H         LINE#         2494
  C:6C0EH         LINE#         2495
  C:6C10H         LINE#         2496
  C:6C18H         LINE#         2497
  C:6C18H         LINE#         2498
  C:6C1FH         LINE#         2499
  C:6C33H         LINE#         2500
  C:6C33H         LINE#         2501
  C:6C35H         LINE#         2503
  C:6C35H         LINE#         2504
  C:6C3CH         LINE#         2505
  C:6C42H         LINE#         2506
  C:6C42H         LINE#         2507
  C:6C44H         LINE#         2509
  C:6C44H         LINE#         2510
  C:6C4DH         LINE#         2511
  C:6C61H         LINE#         2512
  C:6C66H         LINE#         2513
  C:6C66H         LINE#         2515
  C:6C68H         LINE#         2516
  C:6C68H         LINE#         2522
  C:6C68H         LINE#         2524
  C:6C6EH         LINE#         2525
  C:6C6EH         LINE#         2528
  C:6C6EH         LINE#         2529
  C:6C75H         LINE#         2530
  C:6C75H         LINE#         2531
BL51 BANKED LINKER/LOCATER V6.22.2.0                                                  09/03/2021  14:20:36  PAGE 129


  C:6C75H         LINE#         2532
  -------         ENDPROC       SECUENCIA_INICIO_EXPEDIDOR
  -------         PROC          _SECUENCIAEXPEDIDORMF
  X:0001H         SYMBOL        EstadoActivo
  -------         DO            
  X:010DH         SYMBOL        Buffer_Write_MF
  X:011EH         SYMBOL        Atributos_Expedidor
  X:0132H         SYMBOL        Secuencia_Expedidor
  X:0136H         SYMBOL        Nombre_Mensual
  -------         ENDDO         
  C:38C9H         LINE#         2542
  C:38CEH         LINE#         2543
  C:38CEH         LINE#         2551
  C:393AH         LINE#         2552
  C:393AH         LINE#         2555
  C:393AH         LINE#         2557
  C:394DH         LINE#         2558
  C:394DH         LINE#         2559
  C:394FH         LINE#         2560
  C:3951H         LINE#         2561
  C:3956H         LINE#         2562
  C:395EH         LINE#         2563
  C:3963H         LINE#         2564
  C:3963H         LINE#         2566
  C:3966H         LINE#         2567
  C:3966H         LINE#         2569
  C:396FH         LINE#         2570
  C:3972H         LINE#         2571
  C:3972H         LINE#         2572
  C:3977H         LINE#         2573
  C:3997H         LINE#         2574
  C:399AH         LINE#         2575
  C:399AH         LINE#         2576
  C:399DH         LINE#         2577
  C:39A5H         LINE#         2578
  C:39ABH         LINE#         2579
  C:39AEH         LINE#         2581
  C:39AEH         LINE#         2582
  C:39B1H         LINE#         2583
  C:39D6H         LINE#         2584
  C:39DCH         LINE#         2585
  C:39DEH         LINE#         2586
  C:39E1H         LINE#         2587
  C:39E1H         LINE#         2588
  C:39ECH         LINE#         2589
  C:39F4H         LINE#         2590
  C:39FAH         LINE#         2591
  C:39FDH         LINE#         2592
  C:39FDH         LINE#         2593
  C:3A0EH         LINE#         2594
  C:3A16H         LINE#         2595
  C:3A1CH         LINE#         2596
  C:3A1FH         LINE#         2597
  C:3A1FH         LINE#         2598
  C:3A24H         LINE#         2599
  C:3A47H         LINE#         2600
  C:3A49H         LINE#         2601
BL51 BANKED LINKER/LOCATER V6.22.2.0                                                  09/03/2021  14:20:36  PAGE 130


  C:3A4CH         LINE#         2602
  C:3A4CH         LINE#         2603
  C:3A51H         LINE#         2604
  C:3A71H         LINE#         2605
  C:3A74H         LINE#         2606
  C:3A74H         LINE#         2607
  C:3A79H         LINE#         2608
  C:3A7BH         LINE#         2609
  C:3A99H         LINE#         2610
  C:3A9CH         LINE#         2611
  C:3A9CH         LINE#         2612
  C:3AA1H         LINE#         2613
  C:3AC1H         LINE#         2614
  C:3AC4H         LINE#         2615
  C:3AC4H         LINE#         2616
  C:3AD7H         LINE#         2617
  C:3AD7H         LINE#         2618
  C:3ADCH         LINE#         2619
  C:3AE4H         LINE#         2620
  C:3AE7H         LINE#         2621
  C:3AE7H         LINE#         2622
  C:3AEAH         LINE#         2624
  C:3AEAH         LINE#         2625
  C:3AEDH         LINE#         2626
  C:3B0DH         LINE#         2627
  C:3B10H         LINE#         2628
  C:3B10H         LINE#         2629
  C:3B12H         LINE#         2630
  C:3B15H         LINE#         2631
  C:3B18H         LINE#         2632
  C:3B18H         LINE#         2633
  C:3B21H         LINE#         2634
  C:3B24H         LINE#         2635
  C:3B24H         LINE#         2637
  C:3B2AH         LINE#         2638
  C:3B2DH         LINE#         2639
  C:3B30H         LINE#         2640
  C:3B30H         LINE#         2641
  C:3B33H         LINE#         2642
  C:3B3BH         LINE#         2643
  C:3B41H         LINE#         2644
  C:3B44H         LINE#         2645
  C:3B44H         LINE#         2646
  C:3B4DH         LINE#         2647
  C:3B50H         LINE#         2648
  C:3B50H         LINE#         2649
  C:3B52H         LINE#         2650
  C:3B55H         LINE#         2651
  C:3B58H         LINE#         2652
  C:3B58H         LINE#         2653
  C:3B6FH         LINE#         2654
  C:3B72H         LINE#         2655
  C:3B72H         LINE#         2658
  C:3B77H         LINE#         2659
  C:3B7FH         LINE#         2660
  C:3B85H         LINE#         2662
  C:3B88H         LINE#         2663
BL51 BANKED LINKER/LOCATER V6.22.2.0                                                  09/03/2021  14:20:36  PAGE 131


  C:3B88H         LINE#         2664
  C:3B8BH         LINE#         2665
  C:3BABH         LINE#         2666
  C:3BAEH         LINE#         2667
  C:3BAEH         LINE#         2668
  C:3BB1H         LINE#         2669
  C:3BD1H         LINE#         2670
  C:3BD4H         LINE#         2671
  C:3BD4H         LINE#         2672
  C:3BD7H         LINE#         2673
  C:3BDFH         LINE#         2674
  C:3BE5H         LINE#         2675
  C:3BE8H         LINE#         2676
  C:3BE8H         LINE#         2678
  C:3BF3H         LINE#         2679
  C:3BFBH         LINE#         2680
  C:3C0FH         LINE#         2681
  C:3C12H         LINE#         2682
  C:3C12H         LINE#         2683
  C:3C25H         LINE#         2684
  C:3C25H         LINE#         2685
  C:3C28H         LINE#         2686
  C:3C28H         LINE#         2687
  C:3C2BH         LINE#         2688
  C:3C2BH         LINE#         2689
  C:3C3EH         LINE#         2690
  C:3C3EH         LINE#         2691
  C:3C41H         LINE#         2692
  C:3C41H         LINE#         2693
  C:3C44H         LINE#         2694
  C:3C44H         LINE#         2695
  C:3C47H         LINE#         2696
  C:3C4AH         LINE#         2698
  C:3C4AH         LINE#         2699
  C:3C50H         LINE#         2700
  C:3C50H         LINE#         2701
  C:3C53H         LINE#         2702
  C:3C53H         LINE#         2703
  C:3C53H         LINE#         2704
  C:3C56H         LINE#         2708
  C:3C56H         LINE#         2709
  C:3C5CH         LINE#         2710
  C:3C62H         LINE#         2711
  C:3C62H         LINE#         2712
  C:3C6AH         LINE#         2713
  C:3C70H         LINE#         2715
  C:3C73H         LINE#         2716
  C:3C7BH         LINE#         2717
  C:3C7BH         LINE#         2719
  C:3C7EH         LINE#         2720
  C:3C81H         LINE#         2721
  C:3C89H         LINE#         2722
  C:3C89H         LINE#         2723
  C:3C97H         LINE#         2724
  C:3C97H         LINE#         2725
  C:3CA0H         LINE#         2726
  C:3CA3H         LINE#         2727
BL51 BANKED LINKER/LOCATER V6.22.2.0                                                  09/03/2021  14:20:36  PAGE 132


  C:3CAFH         LINE#         2728
  C:3CAFH         LINE#         2729
  C:3CB8H         LINE#         2730
  C:3CBBH         LINE#         2732
  C:3CBBH         LINE#         2733
  C:3CC4H         LINE#         2734
  C:3CC4H         LINE#         2735
  C:3CC7H         LINE#         2736
  C:3CCFH         LINE#         2737
  C:3CCFH         LINE#         2738
  C:3CDDH         LINE#         2739
  C:3CDDH         LINE#         2740
  C:3CF3H         LINE#         2741
  C:3CF6H         LINE#         2742
  C:3D02H         LINE#         2743
  C:3D02H         LINE#         2744
  C:3D0BH         LINE#         2745
  C:3D0DH         LINE#         2746
  C:3D1BH         LINE#         2747
  C:3D1BH         LINE#         2748
  C:3D24H         LINE#         2749
  C:3D26H         LINE#         2751
  C:3D26H         LINE#         2752
  C:3D2FH         LINE#         2753
  C:3D2FH         LINE#         2754
  C:3D31H         LINE#         2755
  C:3D39H         LINE#         2756
  C:3D39H         LINE#         2757
  C:3D42H         LINE#         2758
  C:3D44H         LINE#         2759
  C:3D4CH         LINE#         2760
  C:3D4CH         LINE#         2761
  C:3D62H         LINE#         2762
  C:3D64H         LINE#         2764
  C:3D6CH         LINE#         2765
  C:3D6CH         LINE#         2766
  C:3D75H         LINE#         2767
  C:3D77H         LINE#         2770
  C:3D7FH         LINE#         2771
  C:3D7FH         LINE#         2772
  C:3D87H         LINE#         2773
  C:3D89H         LINE#         2775
  C:3D89H         LINE#         2776
  C:3D92H         LINE#         2777
  C:3D92H         LINE#         2778
  C:3D94H         LINE#         2779
  C:3D94H         LINE#         2780
  C:3D99H         LINE#         2781
  C:3D99H         LINE#         2783
  C:3D99H         LINE#         2784
  C:3D9EH         LINE#         2785
  -------         ENDPROC       _SECUENCIAEXPEDIDORMF
  -------         ENDMOD        VERIFICADOR

  -------         MODULE        MONITOR
  C:0000H         SYMBOL        _ICE_DUMMY_
  D:0080H         PUBLIC        P0
BL51 BANKED LINKER/LOCATER V6.22.2.0                                                  09/03/2021  14:20:36  PAGE 133


  D:0090H         PUBLIC        P1
  I:0011H         PUBLIC        placa
  B:0080H.2       PUBLIC        led_err_imp
  C:B74BH         PUBLIC        Rx_Monitor
  B:0080H.0       PUBLIC        rx_ip
  B:0090H.7       PUBLIC        lock
  C:8A6AH         PUBLIC        _recibe_cmd_Monitor
  C:BB4DH         PUBLIC        clear_placa
  C:9219H         PUBLIC        _Valida_Trama_Monitor
  -------         PROC          _RECIBE_CMD_MONITOR
  X:0011H         SYMBOL        buffer_cmd
  -------         DO            
  X:0014H         SYMBOL        j
  X:0015H         SYMBOL        NumDatos
  X:0016H         SYMBOL        time_out
  X:0017H         SYMBOL        MaxChrRx
  X:0018H         SYMBOL        contador
  -------         ENDDO         
  C:8A6AH         LINE#         51
  C:8A75H         LINE#         52
  C:8A75H         LINE#         56
  C:8A7AH         LINE#         57
  C:8A80H         LINE#         58
  C:8A84H         LINE#         61
  C:8A98H         LINE#         62
  C:8A98H         LINE#         63
  C:8A9FH         LINE#         64
  C:8AA3H         LINE#         65
  C:8AACH         LINE#         66
  C:8AACH         LINE#         67
  C:8ABAH         LINE#         68
  C:8AD1H         LINE#         69
  C:8AD1H         LINE#         70
  C:8AD7H         LINE#         71
  C:8ADDH         LINE#         72
  C:8ADDH         LINE#         73
  C:8ADFH         LINE#         74
  C:8AE7H         LINE#         75
  C:8AEDH         LINE#         77
  C:8AFFH         LINE#         78
  C:8B11H         LINE#         79
  C:8B11H         LINE#         80
  C:8B1BH         LINE#         81
  C:8B1BH         LINE#         82
  C:8B24H         LINE#         84
  C:8B33H         LINE#         88
  C:8B38H         LINE#         89
  -------         ENDPROC       _RECIBE_CMD_MONITOR
  -------         PROC          _VALIDA_TRAMA_MONITOR
  X:0011H         SYMBOL        buffer
  D:0005H         SYMBOL        length_trama
  -------         DO            
  X:0014H         SYMBOL        j
  X:0015H         SYMBOL        p
  X:0016H         SYMBOL        cont
  -------         ENDDO         
  C:9219H         LINE#         94
BL51 BANKED LINKER/LOCATER V6.22.2.0                                                  09/03/2021  14:20:36  PAGE 134


  C:9224H         LINE#         95
  C:9224H         LINE#         96
  C:9227H         LINE#         97
  C:922BH         LINE#         98
  C:922EH         LINE#         99
  C:9230H         LINE#         102
  C:9244H         LINE#         103
  C:9244H         LINE#         105
  C:9246H         LINE#         107
  C:924DH         LINE#         108
  C:9252H         LINE#         110
  C:9252H         LINE#         112
  C:926DH         LINE#         113
  C:926DH         LINE#         116
  C:926DH         LINE#         117
  C:928EH         LINE#         118
  C:9292H         LINE#         119
  C:9298H         LINE#         120
  C:92AAH         LINE#         121
  C:92C2H         LINE#         122
  C:92CBH         LINE#         123
  C:92CDH         LINE#         124
  C:92D3H         LINE#         125
  C:92D5H         LINE#         127
  C:92D5H         LINE#         130
  -------         ENDPROC       _VALIDA_TRAMA_MONITOR
  -------         PROC          CLEAR_PLACA
  -------         DO            
  D:0007H         SYMBOL        i
  -------         ENDDO         
  C:BB4DH         LINE#         131
  C:BB4DH         LINE#         132
  C:BB4DH         LINE#         134
  C:BB59H         LINE#         135
  C:BB59H         LINE#         136
  C:BB5FH         LINE#         137
  C:BB62H         LINE#         138
  C:BB64H         LINE#         139
  C:BB66H         LINE#         140
  -------         ENDPROC       CLEAR_PLACA
  -------         PROC          RX_MONITOR
  -------         DO            
  X:0003H         SYMBOL        Length_trama
  X:0004H         SYMBOL        buffer1
  -------         ENDDO         
  C:B74BH         LINE#         141
  C:B74BH         LINE#         142
  C:B74BH         LINE#         145
  C:B750H         LINE#         146
  C:B75FH         LINE#         147
  C:B768H         LINE#         148
  C:B776H         LINE#         149
  -------         ENDPROC       RX_MONITOR
  -------         ENDMOD        MONITOR

  -------         MODULE        ?C?FPADD
  C:145DH         PUBLIC        ?C?FPADD
BL51 BANKED LINKER/LOCATER V6.22.2.0                                                  09/03/2021  14:20:36  PAGE 135


  C:1459H         PUBLIC        ?C?FPSUB
  -------         ENDMOD        ?C?FPADD

  -------         MODULE        ?C?FPMUL
  C:154EH         PUBLIC        ?C?FPMUL
  -------         ENDMOD        ?C?FPMUL

  -------         MODULE        ?C?FCAST
  C:165EH         PUBLIC        ?C?FCASTC
  C:1659H         PUBLIC        ?C?FCASTI
  C:1654H         PUBLIC        ?C?FCASTL
  -------         ENDMOD        ?C?FCAST

  -------         MODULE        ?C?CASTF
  C:1692H         PUBLIC        ?C?CASTF
  -------         ENDMOD        ?C?CASTF

  -------         MODULE        PRINTF
  X:0077H         PUBLIC        ?_PRINTF?BYTE
  X:0077H         PUBLIC        ?_SPRINTF?BYTE
  C:3E0AH         PUBLIC        _PRINTF
  C:3E04H         PUBLIC        _SPRINTF
  -------         ENDMOD        PRINTF

  -------         MODULE        POW
  X:0024H         PUBLIC        ?_pow?BYTE
  C:6600H         PUBLIC        _pow
  -------         ENDMOD        POW

  -------         MODULE        ?C?CHKFLOAT
  C:1713H         PUBLIC        ?C?CHKFLOAT
  -------         ENDMOD        ?C?CHKFLOAT

  -------         MODULE        ?C?FPCMP
  C:172FH         PUBLIC        ?C?FPCMP
  C:172DH         PUBLIC        ?C?FPCMP3
  -------         ENDMOD        ?C?FPCMP

  -------         MODULE        ?C?FPNEG
  C:17A6H         PUBLIC        ?C?FPNEG
  -------         ENDMOD        ?C?FPNEG

  -------         MODULE        ?C?FPROUND
  C:17B7H         PUBLIC        ?C?FPROUND
  -------         ENDMOD        ?C?FPROUND

  -------         MODULE        ?C?FPCONVERT
  C:17F4H         PUBLIC        ?C?FPCONVERT
  -------         ENDMOD        ?C?FPCONVERT

  -------         MODULE        EXP
  C:9B95H         PUBLIC        _EXP
  -------         ENDMOD        EXP

  -------         MODULE        LOG
  C:7174H         PUBLIC        _LOG
  C:7170H         PUBLIC        _LOG10
BL51 BANKED LINKER/LOCATER V6.22.2.0                                                  09/03/2021  14:20:36  PAGE 136


  -------         ENDMOD        LOG

  -------         MODULE        ?C?FPDIV
  C:18FCH         PUBLIC        ?C?FPDIV
  -------         ENDMOD        ?C?FPDIV

  -------         MODULE        ?C?FTNPWR
  C:19C9H         PUBLIC        ?C?FTNPWR
  -------         ENDMOD        ?C?FTNPWR

  -------         MODULE        ?C?COPY
  C:1B26H         PUBLIC        ?C?COPY
  -------         ENDMOD        ?C?COPY

  -------         MODULE        ?C?CLDPTR
  C:1B4CH         PUBLIC        ?C?CLDPTR
  -------         ENDMOD        ?C?CLDPTR

  -------         MODULE        ?C?CLDOPTR
  C:1B65H         PUBLIC        ?C?CLDOPTR
  -------         ENDMOD        ?C?CLDOPTR

  -------         MODULE        ?C?CSTPTR
  C:1B92H         PUBLIC        ?C?CSTPTR
  -------         ENDMOD        ?C?CSTPTR

  -------         MODULE        ?C?CSTOPTR
  C:1BA4H         PUBLIC        ?C?CSTOPTR
  -------         ENDMOD        ?C?CSTOPTR

  -------         MODULE        ?C?IMUL
  C:1BC6H         PUBLIC        ?C?IMUL
  -------         ENDMOD        ?C?IMUL

  -------         MODULE        ?C?IILDX
  C:1BD8H         PUBLIC        ?C?IILDX
  -------         ENDMOD        ?C?IILDX

  -------         MODULE        ?C?LNEG
  C:1BEEH         PUBLIC        ?C?LNEG
  -------         ENDMOD        ?C?LNEG

  -------         MODULE        ?C?SLCMP
  C:1BFCH         PUBLIC        ?C?SLCMP
  -------         ENDMOD        ?C?SLCMP

  -------         MODULE        ?C?ULCMP
  C:1C12H         PUBLIC        ?C?ULCMP
  -------         ENDMOD        ?C?ULCMP

  -------         MODULE        ?C?ULSHR
  C:1C23H         PUBLIC        ?C?ULSHR
  -------         ENDMOD        ?C?ULSHR

  -------         MODULE        ?C?LSHL
  C:1C36H         PUBLIC        ?C?LSHL
  -------         ENDMOD        ?C?LSHL
BL51 BANKED LINKER/LOCATER V6.22.2.0                                                  09/03/2021  14:20:36  PAGE 137



  -------         MODULE        ?C?LLDCODE
  C:1C49H         PUBLIC        ?C?LLDCODE
  -------         ENDMOD        ?C?LLDCODE

  -------         MODULE        ?C?LLDXDATA0
  C:1C59H         PUBLIC        ?C?LLDXDATA0
  -------         ENDMOD        ?C?LLDXDATA0

  -------         MODULE        ?C?LLDCODE0
  C:1C65H         PUBLIC        ?C?LLDCODE0
  -------         ENDMOD        ?C?LLDCODE0

  -------         MODULE        ?C?LSTXDATA
  C:1C75H         PUBLIC        ?C?LSTXDATA
  -------         ENDMOD        ?C?LSTXDATA

  -------         MODULE        ?C?LSTKXDATA
  C:1C81H         PUBLIC        ?C?LSTKXDATA
  -------         ENDMOD        ?C?LSTKXDATA

  -------         MODULE        ?C?PLDIXDATA
  C:1CB2H         PUBLIC        ?C?PLDIXDATA
  -------         ENDMOD        ?C?PLDIXDATA

  -------         MODULE        ?C?PSTXDATA
  C:1CC9H         PUBLIC        ?C?PSTXDATA
  -------         ENDMOD        ?C?PSTXDATA

  -------         MODULE        ?C?CCASE
  C:1CD2H         PUBLIC        ?C?CCASE
  -------         ENDMOD        ?C?CCASE

  -------         MODULE        STRCAT
  X:0046H         PUBLIC        ?_strcat?BYTE
  C:ABA5H         PUBLIC        _strcat
  -------         ENDMOD        STRCAT

  -------         MODULE        ?C?STRCMP
  C:1E76H         PUBLIC        ?C?STRCMP
  -------         ENDMOD        ?C?STRCMP

  -------         MODULE        ?C?STRCPY
  C:1F5FH         PUBLIC        ?C?STRCPY
  -------         ENDMOD        ?C?STRCPY

  -------         MODULE        STRLEN
  C:000EH         PUBLIC        _STRLEN
  -------         ENDMOD        STRLEN

  -------         MODULE        STRTOK
  X:0064H         PUBLIC        ?_strtok?BYTE
  C:8390H         PUBLIC        _strtok
  -------         ENDMOD        STRTOK

  -------         MODULE        ATOL
  C:76D9H         PUBLIC        _atol
BL51 BANKED LINKER/LOCATER V6.22.2.0                                                  09/03/2021  14:20:36  PAGE 138


  -------         ENDMOD        ATOL

  -------         MODULE        ATOI
  C:862EH         PUBLIC        _atoi
  -------         ENDMOD        ATOI

  -------         MODULE        ?C?ILDIX
  C:1F7CH         PUBLIC        ?C?ILDIX
  -------         ENDMOD        ?C?ILDIX

  -------         MODULE        ?C?LMUL
  C:1F92H         PUBLIC        ?C?LMUL
  -------         ENDMOD        ?C?LMUL

  -------         MODULE        ISDIGIT
  C:BC6EH         PUBLIC        _isdigit
  -------         ENDMOD        ISDIGIT

  -------         MODULE        ISSPACE
  C:BBBEH         PUBLIC        _isspace
  -------         ENDMOD        ISSPACE

  -------         MODULE        STRSPN
  X:006AH         PUBLIC        ?_strspn?BYTE
  C:A54DH         PUBLIC        _strspn
  -------         ENDMOD        STRSPN

  -------         MODULE        STRPBRK
  X:006AH         PUBLIC        ?_strpbrk?BYTE
  C:A757H         PUBLIC        _strpbrk
  -------         ENDMOD        STRPBRK

Program Size: data=99.1 xdata=543 code=48370
LINK/LOCATE RUN COMPLETE.  0 WARNING(S),  0 ERROR(S)
