BL51 BANKED LINKER/LOCATER V6.22.2.0                                                    09/10/2021  16:23:10  PAGE 1


BL51 BANKED LINKER/LOCATER V6.22.2.0, INVOKED BY:
C:\KEIL_V5\C51\BIN\BL51.EXE .\Objects\main.obj, .\Objects\Accescan.obj, .\Objects\Clock.obj, .\Objects\delay.obj, .\Obje
>> cts\eeprom.obj, .\Objects\io_sensores.obj, .\Objects\pantallas.obj, .\Objects\prog.obj, .\Objects\pto_paralelo.obj, .
>> \Objects\tibbo.obj, .\Objects\uart.obj, .\Objects\lintech.obj, .\Objects\verificador.obj, .\Objects\Monitor.obj TO .\
>> Objects\expedidor_v_101 PRINT (.\Listings\expedidor_v_101.m51) RAMSIZE (256)


MEMORY MODEL: LARGE WITH FLOATING POINT ARITHMETIC


INPUT MODULES INCLUDED:
  .\Objects\main.obj (MAIN)
  .\Objects\Accescan.obj (ACCESCAN)
  .\Objects\Clock.obj (CLOCK)
  .\Objects\delay.obj (DELAY)
  .\Objects\eeprom.obj (EEPROM)
  .\Objects\io_sensores.obj (IO_SENSORES)
  .\Objects\pantallas.obj (PANTALLAS)
  .\Objects\prog.obj (PROG)
  .\Objects\pto_paralelo.obj (PTO_PARALELO)
  .\Objects\tibbo.obj (TIBBO)
  .\Objects\uart.obj (UART)
  .\Objects\lintech.obj (LINTECH)
  .\Objects\verificador.obj (VERIFICADOR)
  .\Objects\Monitor.obj (MONITOR)
  C:\KEIL_V5\C51\LIB\C51FPL.LIB (?C?FPADD)
  C:\KEIL_V5\C51\LIB\C51FPL.LIB (?C?FPMUL)
  C:\KEIL_V5\C51\LIB\C51FPL.LIB (?C?FCAST)
  C:\KEIL_V5\C51\LIB\C51FPL.LIB (?C?CASTF)
  C:\KEIL_V5\C51\LIB\C51FPL.LIB (PRINTF)
  C:\KEIL_V5\C51\LIB\C51FPL.LIB (POW)
  C:\KEIL_V5\C51\LIB\C51FPL.LIB (?C?FPGETOPN)
  C:\KEIL_V5\C51\LIB\C51FPL.LIB (?C?CHKFLOAT)
  C:\KEIL_V5\C51\LIB\C51FPL.LIB (?C?FPCMP)
  C:\KEIL_V5\C51\LIB\C51FPL.LIB (?C?FPNEG)
  C:\KEIL_V5\C51\LIB\C51FPL.LIB (?C?FPROUND)
  C:\KEIL_V5\C51\LIB\C51FPL.LIB (?C?FPCONVERT)
  C:\KEIL_V5\C51\LIB\C51FPL.LIB (EXP)
  C:\KEIL_V5\C51\LIB\C51FPL.LIB (LOG)
  C:\KEIL_V5\C51\LIB\C51FPL.LIB (?C?FPDIV)
  C:\KEIL_V5\C51\LIB\C51FPL.LIB (?C?FTNPWR)
  C:\KEIL_V5\C51\LIB\C51FPL.LIB (?C?FPSERIES)
  C:\KEIL_V5\C51\LIB\C51L.LIB (?C_STARTUP)
  C:\KEIL_V5\C51\LIB\C51L.LIB (?C?COPY)
  C:\KEIL_V5\C51\LIB\C51L.LIB (?C?CLDPTR)
  C:\KEIL_V5\C51\LIB\C51L.LIB (?C?CLDOPTR)
  C:\KEIL_V5\C51\LIB\C51L.LIB (?C?CSTPTR)
  C:\KEIL_V5\C51\LIB\C51L.LIB (?C?CSTOPTR)
  C:\KEIL_V5\C51\LIB\C51L.LIB (?C?IMUL)
  C:\KEIL_V5\C51\LIB\C51L.LIB (?C?IILDX)
  C:\KEIL_V5\C51\LIB\C51L.LIB (?C?LNEG)
  C:\KEIL_V5\C51\LIB\C51L.LIB (?C?SLCMP)
  C:\KEIL_V5\C51\LIB\C51L.LIB (?C?ULCMP)
  C:\KEIL_V5\C51\LIB\C51L.LIB (?C?ULSHR)
  C:\KEIL_V5\C51\LIB\C51L.LIB (?C?LSHL)
  C:\KEIL_V5\C51\LIB\C51L.LIB (?C?LLDCODE)
  C:\KEIL_V5\C51\LIB\C51L.LIB (?C?LLDXDATA0)
  C:\KEIL_V5\C51\LIB\C51L.LIB (?C?LLDCODE0)
BL51 BANKED LINKER/LOCATER V6.22.2.0                                                  09/10/2021  16:23:10  PAGE 2


  C:\KEIL_V5\C51\LIB\C51L.LIB (?C?LSTXDATA)
  C:\KEIL_V5\C51\LIB\C51L.LIB (?C?LSTKXDATA)
  C:\KEIL_V5\C51\LIB\C51L.LIB (?C?PLDIXDATA)
  C:\KEIL_V5\C51\LIB\C51L.LIB (?C?PSTXDATA)
  C:\KEIL_V5\C51\LIB\C51L.LIB (?C?CCASE)
  C:\KEIL_V5\C51\LIB\C51L.LIB (STRCAT)
  C:\KEIL_V5\C51\LIB\C51L.LIB (?C?STRCMP)
  C:\KEIL_V5\C51\LIB\C51L.LIB (?C?STRCPY)
  C:\KEIL_V5\C51\LIB\C51L.LIB (STRLEN)
  C:\KEIL_V5\C51\LIB\C51L.LIB (STRTOK)
  C:\KEIL_V5\C51\LIB\C51L.LIB (ATOL)
  C:\KEIL_V5\C51\LIB\C51L.LIB (ATOI)
  C:\KEIL_V5\C51\LIB\C51L.LIB (?C_INIT)
  C:\KEIL_V5\C51\LIB\C51L.LIB (?C?ILDIX)
  C:\KEIL_V5\C51\LIB\C51L.LIB (?C?LMUL)
  C:\KEIL_V5\C51\LIB\C51L.LIB (ISDIGIT)
  C:\KEIL_V5\C51\LIB\C51L.LIB (ISSPACE)
  C:\KEIL_V5\C51\LIB\C51L.LIB (STRSPN)
  C:\KEIL_V5\C51\LIB\C51L.LIB (STRPBRK)


LINK MAP OF MODULE:  .\Objects\expedidor_v_101 (MAIN)


            TYPE    BASE      LENGTH    RELOCATION   SEGMENT NAME
            -----------------------------------------------------

            * * * * * * *   D A T A   M E M O R Y   * * * * * * *
            REG     0000H     0008H     ABSOLUTE     "REG BANK 0"
            DATA    0008H     0005H     UNIT         _DATA_GROUP_
            DATA    000DH     0004H     UNIT         ?DT?UART
            IDATA   0011H     0009H     UNIT         ?ID?MONITOR
                    001AH     0006H                  *** GAP ***
            BIT     0020H.0   0001H.1   UNIT         _BIT_GROUP_
            BIT     0021H.1   0000H.3   UNIT         ?BI?MAIN
            BIT     0021H.4   0000H.2   UNIT         ?BI?UART
            BIT     0021H.6   0000H.1   UNIT         ?BI?EEPROM
            BIT     0021H.7   0000H.1   UNIT         ?BI?IO_SENSORES
            BIT     0022H.0   0000H.1   UNIT         ?BI?VERIFICADOR
                    0022H.1   0000H.7                *** GAP ***
            IDATA   0023H     0046H     UNIT         ?ID?MAIN
            IDATA   0069H     0001H     UNIT         ?STACK

            * * * * * * *  X D A T A   M E M O R Y  * * * * * * *
            XDATA   0000H     00B7H     UNIT         _XDATA_GROUP_
            XDATA   00B7H     0091H     UNIT         ?XD?VERIFICADOR
            XDATA   0148H     006EH     UNIT         ?XD?MAIN
            XDATA   01B6H     005CH     UNIT         ?XD?PROG
            XDATA   0212H     0003H     UNIT         ?XD?EEPROM
            XDATA   0215H     0003H     UNIT         ?XD?UART
            XDATA   0218H     0003H     UNIT         ?XD?STRTOK
            XDATA   021BH     0002H     UNIT         ?XD?IO_SENSORES
            XDATA   021DH     0001H     UNIT         ?XD?ACCESCAN
            XDATA   021EH     0001H     UNIT         ?XD?CLOCK

            * * * * * * *   C O D E   M E M O R Y   * * * * * * *
            CODE    0000H     0003H     ABSOLUTE     
BL51 BANKED LINKER/LOCATER V6.22.2.0                                                  09/10/2021  16:23:10  PAGE 3


            CODE    0003H     0008H     UNIT         ?PR?P_CK?CLOCK
            CODE    000BH     0003H     ABSOLUTE     
            CODE    000EH     0015H     UNIT         ?PR?_STRLEN?STRLEN
            CODE    0023H     0003H     ABSOLUTE     
            CODE    0026H     1430H     UNIT         ?CO?PROG
            CODE    1456H     0B8BH     UNIT         ?C?LIB_CODE
            CODE    1FE1H     06EFH     UNIT         ?CO?PANTALLAS
            CODE    26D0H     0681H     UNIT         ?CO?VERIFICADOR
            CODE    2D51H     062CH     UNIT         ?PR?_PANTALLALCD?PANTALLAS
            CODE    337DH     0532H     UNIT         ?PR?_VALIDA_TRAMA_PTO?ACCESCAN
            CODE    38AFH     04D6H     UNIT         ?PR?_SECUENCIAEXPEDIDORMF?VERIFICADOR
            CODE    3D85H     0483H     UNIT         ?PR?PRINTF?PRINTF
            CODE    4208H     03C8H     UNIT         ?PR?VER_PROG?PROG
            CODE    45D0H     02D0H     UNIT         ?PR?_TWO_BYTEHEX_DECIMAL?CLOCK
            CODE    48A0H     02B7H     UNIT         ?PR?_PROG_HORARIO_DIAS?PROG
            CODE    4B57H     02A5H     UNIT         ?PR?_PANTALLALCD_LINEA_2?PANTALLAS
            CODE    4DFCH     02A3H     UNIT         ?PR?_ARMAR_TRAMA_MONITOR?VERIFICADOR
            CODE    509FH     0256H     UNIT         ?PR?_ARMAR_TRAMA_PTO_PARALELO_EXPEDIDOR?VERIFICADOR
            CODE    52F5H     0254H     UNIT         ?PR?MENU?PROG
            CODE    5549H     0208H     UNIT         ?PR?_HASH_ID?PROG
            CODE    5751H     01FAH     UNIT         ?PR?_PROG_HORARIO_DESDE_HASTA?PROG
            CODE    594BH     01F5H     UNIT         ?PR?PROG_FECHA_VENCIMIENTO?PROG
            CODE    5B40H     01F5H     UNIT         ?PR?COM_ISR?UART
            CODE    5D35H     01EBH     UNIT         ?PR?_ARMAR_TRAMA_TARJETA_SECTOR1_BLOQUE2?VERIFICADOR
            CODE    5F20H     01DDH     UNIT         ?PR?_RESPONDE_LECTURA_TARJETA_SECTOR1_BLOQUE1?VERIFICADOR
            CODE    60FDH     01D8H     UNIT         ?PR?_BLOCK_READ_CLOCK_ASCII_RASBERRY?CLOCK
            CODE    62D5H     01A3H     UNIT         ?CO?LINTECH
            CODE    6478H     016EH     UNIT         ?PR?_BLOCK_READ_CLOCK_ASCII?CLOCK
            CODE    65E6H     0166H     UNIT         ?PR?_POW?POW
            CODE    674CH     014FH     UNIT         ?PR?_RESPONDE_REELECTURA_TARJETA_SECTOR1_BLOQUE2?VERIFICADOR
            CODE    689BH     0145H     UNIT         ?PR?PROG_HORARIOS?PROG
            CODE    69E0H     013EH     UNIT         ?PR?PROG_SIN_COBRO?PROG
            CODE    6B1EH     013EH     UNIT         ?PR?SECUENCIA_INICIO_EXPEDIDOR?VERIFICADOR
            CODE    6C5CH     013CH     UNIT         ?PR?LOAD_AND_SEND_ID_COD?PTO_PARALELO
            CODE    6D98H     0137H     UNIT         ?PR?VER_HORARIO?PROG
            CODE    6ECFH     012EH     UNIT         ?PR?_ARMAR_TRAMA_PTO_PARALELO_EXPEDIDOR_MENSUAL?VERIFICADOR
            CODE    6FFDH     0129H     UNIT         ?PR?_RESPONDE_LECTURA_TARJETA_SECTOR1_BLOQUE2?VERIFICADOR
            CODE    7126H     0129H     UNIT         ?PR?LOG?LOG
            CODE    724FH     0128H     UNIT         ?PR?_VER_HORARIO_DIAS?PROG
            CODE    7377H     011AH     UNIT         ?PR?_PROG_HORARIOS_ON_OFF?PROG
            CODE    7491H     0119H     UNIT         ?PR?_VER_HORARIO_DESDE_HASTA?PROG
            CODE    75AAH     0115H     UNIT         ?PR?_VALIDAR_CLK?CLOCK
            CODE    76BFH     010CH     UNIT         ?PR?_ATOL?ATOL
            CODE    77CBH     0100H     UNIT         ?PR?_WR_MF?LINTECH
            CODE    78CBH     00FCH     UNIT         ?PR?PROG_DEBUG?PROG
            CODE    79C7H     00FCH     UNIT         ?PR?PROG_USE_LPR?PROG
            CODE    7AC3H     00FCH     UNIT         ?PR?TIPO_PANTALLA?PROG
            CODE    7BBFH     00FCH     UNIT         ?PR?PROG_ANTIPASSBACK?PROG
            CODE    7CBBH     00FCH     UNIT         ?PR?PROG_PLACA?PROG
            CODE    7DB7H     00FCH     UNIT         ?PR?PROG_VALIDAR_TIPO_VEHICULO_MENSUAL?PROG
            CODE    7EB3H     00FCH     UNIT         ?PR?PROG_APB_MENSUAL?PROG
            CODE    7FAFH     00FCH     UNIT         ?PR?PROG_MENSUALES?PROG
            CODE    80ABH     00F5H     UNIT         ?PR?_RECIBE_CMD_MONITOR?MONITOR
            CODE    81A0H     00F1H     UNIT         ?PR?_WRITE_EEPROM_TICKET?EEPROM
            CODE    8291H     00F0H     UNIT         ?CO?IO_SENSORES
            CODE    8381H     00EAH     UNIT         ?PR?_MOV_CARD?LINTECH
            CODE    846BH     00E4H     UNIT         ?PR?_STRTOK?STRTOK
BL51 BANKED LINKER/LOCATER V6.22.2.0                                                  09/10/2021  16:23:10  PAGE 4


            CODE    854FH     00DEH     UNIT         ?PR?PROG_ADDRESS_HIGH_BOARD?PROG
            CODE    862DH     00DCH     UNIT         ?PR?_RTA_CMD_TRANSPORTE?VERIFICADOR
            CODE    8709H     00DBH     UNIT         ?PR?_ATOI?ATOI
            CODE    87E4H     00DAH     UNIT         ?C_INITSEG
            CODE    88BEH     00DAH     UNIT         ?PR?_VALIDA_TIPO_TARJETA?VERIFICADOR
            CODE    8998H     00D7H     UNIT         ?PR?_ANALIZA_UID_CARD?VERIFICADOR
            CODE    8A6FH     00D6H     UNIT         ?PR?_CMD_LPR_SALIDA_WIEGAND?ACCESCAN
            CODE    8B45H     00CCH     UNIT         ?PR?_GRABA_SERIE?EEPROM
            CODE    8C11H     00CAH     UNIT         ?PR?READ_EEPROM_TICKET?EEPROM
            CODE    8CDBH     00C9H     UNIT         ?PR?_CHECK_FECHAOUT?CLOCK
            CODE    8DA4H     00C4H     UNIT         ?PR?_BLOCK_READ_CLOCK?CLOCK
            CODE    8E68H     00C3H     UNIT         ?PR?_RD_MF?LINTECH
            CODE    8F2BH     00C2H     UNIT         ?PR?PROG_TARJETA_AUTOMATICA_O_BOTON?PROG
            CODE    8FEDH     00BEH     UNIT         ?PR?ERROR_RX_PTO?VERIFICADOR
            CODE    90ABH     00BDH     UNIT         ?PR?PROG_COD_PARK?PROG
            CODE    9168H     00BDH     UNIT         ?PR?PROG_TIEMPO_GRACIA?PROG
            CODE    9225H     00BDH     UNIT         ?PR?_VALIDA_TRAMA_MONITOR?MONITOR
            CODE    92E2H     00B9H     UNIT         ?CO?TIBBO
            CODE    939BH     00B9H     UNIT         ?PR?_DWLOAD_EEPROM_PROG?LINTECH
            CODE    9454H     00B6H     UNIT         ?PR?PROG_ID_CLIENTE?PROG
            CODE    950AH     00B2H     UNIT         ?PR?_SEND_PORT?PTO_PARALELO
            CODE    95BCH     00AFH     UNIT         ?PR?MSJ_LCD_INFORMATIVO?IO_SENSORES
            CODE    966BH     00AAH     UNIT         ?PR?CLAVE_SEGURIDAD_S2?LINTECH
            CODE    9715H     00A9H     UNIT         ?PR?DWLOAD_EEPROM?LINTECH
            CODE    97BEH     00A6H     UNIT         ?PR?_BLOCK_READ_CLOCK_HEX?CLOCK
            CODE    9864H     00A5H     UNIT         ?PR?_SEND_PTO_PARALELO?VERIFICADOR
            CODE    9909H     00A2H     UNIT         ?PR?SHOW?PROG
            CODE    99ABH     00A1H     UNIT         ?PR?_BLOCK_WRITE_CLOCK_ASCII?CLOCK
            CODE    9A4CH     009EH     UNIT         ?PR?INGRESO_VEHICULO?VERIFICADOR
            CODE    9AEAH     009DH     UNIT         ?PR?_INICIALIZA?LINTECH
            CODE    9B87H     009BH     UNIT         ?PR?ENTREGA_CARD_CAPTURA?VERIFICADOR
            CODE    9C22H     009AH     UNIT         ?PR?EXP?EXP
            CODE    9CBCH     0099H     UNIT         ?PR?_RECIBE_PORT?PTO_PARALELO
            CODE    9D55H     0098H     UNIT         ?PR?_RESPONDE_LECTURA_TARJETA_SECTOR1_BLOQUE0?VERIFICADOR
            CODE    9DEDH     0091H     UNIT         ?PR?_HEX_ASCII?CLOCK
            CODE    9E7EH     0091H     UNIT         ?PR?_CARD_INSERCION?LINTECH
            CODE    9F0FH     0090H     UNIT         ?PR?_LEE_CLK?CLOCK
            CODE    9F9FH     0090H     UNIT         ?PR?_GETOPTION?PROG
            CODE    A02FH     0090H     UNIT         ?PR?_DISPARO_LOCK_ENTRADA_VEHICULO?VERIFICADOR
            CODE    A0BFH     008DH     UNIT         ?PR?LOADVERIFY_EEPROM?LINTECH
            CODE    A14CH     008DH     UNIT         ?PR?WAIT_PLACA?VERIFICADOR
            CODE    A1D9H     008CH     UNIT         ?C_C51STARTUP
            CODE    A265H     0088H     UNIT         ?PR?_SEND_PORTERR?PTO_PARALELO
            CODE    A2EDH     0088H     UNIT         ?PR?RX_DATA?TIBBO
            CODE    A375H     0088H     UNIT         ?PR?UNIQUE_IDENTIFIER_UID?LINTECH
            CODE    A3FDH     0087H     UNIT         ?PR?_RESPONDE_WRITE_TARJETA_SECTOR1_BLOQUE2?VERIFICADOR
            CODE    A484H     0086H     UNIT         ?PR?_CHECK_STATUS?LINTECH
            CODE    A50AH     0084H     UNIT         ?PR?_DEBUGBUFFERMF?TIBBO
            CODE    A58EH     0084H     UNIT         ?PR?_ARMAR_TRAMA_PLACA?VERIFICADOR
            CODE    A612H     0084H     UNIT         ?PR?_STRSPN?STRSPN
            CODE    A696H     0083H     UNIT         ?PR?_RASPBERRY_DATA?PANTALLAS
            CODE    A719H     0082H     UNIT         ?PR?RESPONDE_TIPO_TARJETA?VERIFICADOR
            CODE    A79BH     0081H     UNIT         ?PR?MAIN?MAIN
            CODE    A81CH     0081H     UNIT         ?PR?_STRPBRK?STRPBRK
            CODE    A89DH     0080H     UNIT         ?PR?_INGRESADATO?PROG
            CODE    A91DH     0080H     UNIT         ?PR?AUT_CARD_CHECK_STATUS?LINTECH
            CODE    A99DH     0080H     UNIT         ?PR?POWER_OFF?LINTECH
BL51 BANKED LINKER/LOCATER V6.22.2.0                                                  09/10/2021  16:23:10  PAGE 5


            CODE    AA1DH     007DH     UNIT         ?PR?RELOJ_PANTALLA_LCD?PANTALLAS
            CODE    AA9AH     0078H     UNIT         ?PR?RESPONDE_ESTADO_SENSORES_TRANSPORTE?VERIFICADOR
            CODE    AB12H     0074H     UNIT         ?PR?_HORA_ENTRADA_VEHICULO?CLOCK
            CODE    AB86H     006FH     UNIT         ?PR?_ESCRIBIRMEMORIA?EEPROM
            CODE    ABF5H     006BH     UNIT         ?PR?_STRCAT?STRCAT
            CODE    AC60H     0066H     UNIT         ?PR?_LEERMEMORIA?EEPROM
            CODE    ACC6H     0062H     UNIT         ?PR?_LISTACOMANDOS?PROG
            CODE    AD28H     005EH     UNIT         ?PR?_BYTEHEX_DECIMAL?CLOCK
            CODE    AD86H     005DH     UNIT         ?PR?_PREGUNTA_LPR?VERIFICADOR
            CODE    ADE3H     005DH     UNIT         ?PR?_RESPUESTA_SEGUNDA_CLAVE?VERIFICADOR
            CODE    AE40H     005BH     UNIT         ?PR?VALIDA_SENSOR1_AUTO?IO_SENSORES
            CODE    AE9BH     0057H     UNIT         ?PR?FORMATO_EEPROM?EEPROM
            CODE    AEF2H     0056H     UNIT         ?PR?_WR_EEPROM?EEPROM
            CODE    AF48H     0051H     UNIT         ?PR?TIMER_MONITOR_CHAR?MONITOR
            CODE    AF99H     004FH     UNIT         ?PR?_DEBUG_BUFFER_RS232_LCD?TIBBO
            CODE    AFE8H     004DH     UNIT         ?PR?VARIABLE_INICIO?MAIN
            CODE    B035H     004DH     UNIT         ?PR?L_D_M?EEPROM
            CODE    B082H     004CH     UNIT         ?PR?LEE_NO_TICKET?EEPROM
            CODE    B0CEH     004CH     UNIT         ?PR?LOAD_AND_SEND_INFO_RELOJ?PTO_PARALELO
            CODE    B11AH     004BH     UNIT         ?PR?_TX_AUX?TIBBO
            CODE    B165H     0049H     UNIT         ?PR?_DEBUG_TXT_TIBBO?TIBBO
            CODE    B1AEH     0048H     UNIT         ?PR?FIRST_CLAVE?PROG
            CODE    B1F6H     0047H     UNIT         ?PR?_DEBUG_CHR_TIBBO?TIBBO
            CODE    B23DH     0047H     UNIT         ?PR?_DEBUG_CHR_RS232_LCD?TIBBO
            CODE    B284H     0047H     UNIT         ?PR?_RESPONDE_WRITE_TARJETA_SECTOR2_BLOQUE0?VERIFICADOR
            CODE    B2CBH     0047H     UNIT         ?PR?RESPUESTA_PLACA_CANCEL?VERIFICADOR
            CODE    B312H     0046H     UNIT         ?PR?_ESCRIBIRCADENASOFT_BUFFER?MAIN
            CODE    B358H     0046H     UNIT         ?PR?_LCD_TXT_NUM_CHAR?PANTALLAS
            CODE    B39EH     0046H     UNIT         ?PR?_DEBUG_HEXDEC?TIBBO
            CODE    B3E4H     0044H     UNIT         ?PR?_LCD_TXT?PANTALLAS
            CODE    B428H     0043H     UNIT         ?PR?DIR_BOARD?IO_SENSORES
            CODE    B46BH     0042H     UNIT         ?CO?EEPROM
            CODE    B4ADH     0042H     UNIT         ?PR?_VALIDARCLAVE?PROG
            CODE    B4EFH     0041H     UNIT         ?PR?_MONITOR_CHR?ACCESCAN
            CODE    B530H     0041H     UNIT         ?PR?_TWO_ONE?CLOCK
            CODE    B571H     0040H     UNIT         ?PR?_GETCMD?PROG
            CODE    B5B1H     0040H     UNIT         ?PR?_DEBUG_PTO_PARALELO?TIBBO
            CODE    B5F1H     003FH     UNIT         ?PR?_EB_CLK?CLOCK
            CODE    B630H     003EH     UNIT         ?PR?_PUTCHAR?MAIN
            CODE    B66EH     003EH     UNIT         ?PR?COM_BAUDRATE?UART
            CODE    B6ACH     003EH     UNIT         ?PR?TRAMA_VALIDACION_P_N?VERIFICADOR
            CODE    B6EAH     003DH     UNIT         ?PR?_HEX_BCD?CLOCK
            CODE    B727H     003DH     UNIT         ?PR?_RD_EEPROM?EEPROM
            CODE    B764H     003DH     UNIT         ?PR?_DEBUG_MONITOR?TIBBO
            CODE    B7A1H     003DH     UNIT         ?PR?_LOAD_SECUENCIA_EXPEDIDOR?VERIFICADOR
            CODE    B7DEH     003CH     UNIT         ?PR?CONFIRMACION?EEPROM
            CODE    B81AH     003BH     UNIT         ?CO?ACCESCAN
            CODE    B855H     003BH     UNIT         ?PR?_COM_PUTCHAR?UART
            CODE    B890H     003AH     UNIT         ?PR?_DELAY_10MS?DELAY
            CODE    B8CAH     0039H     UNIT         ?PR?RX_MONITOR?MONITOR
            CODE    B903H     0038H     UNIT         ?PR?VALIDASENSORESPASO?IO_SENSORES
            CODE    B93BH     0038H     UNIT         ?PR?_DEBUG_TXT_RS232?TIBBO
            CODE    B973H     0036H     UNIT         ?PR?_RESPONDE_WRITE_TARJETA_SECTOR1_BLOQUE1?VERIFICADOR
            CODE    B9A9H     0036H     UNIT         ?PR?_RESPONDE_WRITE_TARJETA_SECTOR1_BLOQUE0?VERIFICADOR
            CODE    B9DFH     0034H     UNIT         ?PR?INCREMENTE_TICKET?EEPROM
            CODE    BA13H     0034H     UNIT         ?PR?ADDR_HORARIOS?PROG
            CODE    BA47H     0031H     UNIT         ?PR?_TARJETA_ROTACION?VERIFICADOR
BL51 BANKED LINKER/LOCATER V6.22.2.0                                                  09/10/2021  16:23:10  PAGE 6


            CODE    BA78H     0030H     UNIT         ?PR?PREGUNTA_PLACA_HABILITADA?VERIFICADOR
            CODE    BAA8H     0030H     UNIT         ?PR?_ARMAR_TRAMA_TARJETA_SECTOR1_BLOQUE0?VERIFICADOR
            CODE    BAD8H     002EH     UNIT         ?PR?TIMER0_INT?MAIN
            CODE    BB06H     002AH     UNIT         ?PR?COM_INITIALIZE?UART
            CODE    BB30H     002AH     UNIT         ?PR?ANALIZA_PRESENCIA_ROTACION?VERIFICADOR
            CODE    BB5AH     0028H     UNIT         ?PR?_WR_CLK?CLOCK
            CODE    BB82H     0027H     UNIT         ?PR?_TX_CHRLCD?PANTALLAS
            CODE    BBA9H     0026H     UNIT         ?PR?COM_GETCHAR?UART
            CODE    BBCFH     0022H     UNIT         ?PR?_E_D_M?EEPROM
            CODE    BBF1H     0022H     UNIT         ?PR?VALIDASENSOR_CERO?IO_SENSORES
            CODE    BC13H     0021H     UNIT         ?CO?PTO_PARALELO
            CODE    BC34H     0020H     UNIT         ?PR?ACKD?EEPROM
            CODE    BC54H     0020H     UNIT         ?PR?ACK_LECT?EEPROM
            CODE    BC74H     001FH     UNIT         ?PR?VALIDASENSOR?IO_SENSORES
            CODE    BC93H     001EH     UNIT         ?PR?_BCD_HEX?CLOCK
            CODE    BCB1H     001BH     UNIT         ?PR?_DELAY_1MS?DELAY
            CODE    BCCCH     001AH     UNIT         ?PR?CLEAR_PLACA?MONITOR
            CODE    BCE6H     0017H     UNIT         ?PR?DISPLAYCURSOR?PROG
            CODE    BCFDH     0016H     UNIT         ?PR?DIR_BOARD_MONITOR?IO_SENSORES
            CODE    BD13H     0016H     UNIT         ?PR?TIME_BIT?TIBBO
            CODE    BD29H     0014H     UNIT         ?CO?CLOCK
            CODE    BD3DH     0014H     UNIT         ?PR?_ISSPACE?ISSPACE
            CODE    BD51H     0012H     UNIT         ?PR?_DELAY_20US?DELAY
            CODE    BD63H     0012H     UNIT         ?PR?START?EEPROM
            CODE    BD75H     0012H     UNIT         ?PR?BOTTON?IO_SENSORES
            CODE    BD87H     0012H     UNIT         ?PR?PULSO_BUS?PTO_PARALELO
            CODE    BD99H     0012H     UNIT         ?PR?COM_RBUFLEN?UART
            CODE    BDABH     0012H     UNIT         ?PR?COM_TBUFLEN?UART
            CODE    BDBDH     0010H     UNIT         ?PR?INI_TIMER?MAIN
            CODE    BDCDH     0010H     UNIT         ?PR?INICIA_BOARD?MAIN
            CODE    BDDDH     0010H     UNIT         ?PR?TIME_MBIT?TIBBO
            CODE    BDEDH     000FH     UNIT         ?PR?_ISDIGIT?ISDIGIT
            CODE    BDFCH     000CH     UNIT         ?PR?_GETKEY?MAIN
            CODE    BE08H     000CH     UNIT         ?PR?COND_INI_PTO?PTO_PARALELO
            CODE    BE14H     000AH     UNIT         ?PR?STOP?EEPROM
            CODE    BE1EH     0009H     UNIT         ?PR?DEBUG_DIVIDIR_TEXTO?TIBBO
            CODE    BE27H     0007H     UNIT         ?PR?COND_INI_CLOCK?CLOCK
            CODE    BE2EH     0007H     UNIT         ?PR?SEL_FUNCION?IO_SENSORES
            CODE    BE35H     0007H     UNIT         ?PR?SEL_AUTO?IO_SENSORES
            CODE    BE3CH     0007H     UNIT         ?PR?SEL_PULSA?IO_SENSORES
            CODE    BE43H     0007H     UNIT         ?PR?SEL_SENSOR2?IO_SENSORES
            CODE    BE4AH     0007H     UNIT         ?PR?SEL_SENSOR1?IO_SENSORES
            CODE    BE51H     0007H     UNIT         ?PR?SEL_DIR1?IO_SENSORES
            CODE    BE58H     0007H     UNIT         ?PR?SEL_DIR2?IO_SENSORES
            CODE    BE5FH     0006H     UNIT         ?PR?P_ME?EEPROM
            CODE    BE65H     0005H     UNIT         ?PR?ON_TIMER0_INTERRUP?MAIN
            CODE    BE6AH     0005H     UNIT         ?PR?COND_INI_TIBBO?TIBBO
            CODE    BE6FH     0003H     UNIT         ?PR?OFF_TIMER0_INTERRUP?MAIN
            CODE    BE72H     0001H     UNIT         ?PR?DELAY?DELAY



OVERLAY MAP OF MODULE:   .\Objects\expedidor_v_101 (MAIN)


SEGMENT                                             BIT_GROUP          DATA_GROUP          XDATA_GROUP
  +--> CALLED SEGMENT                            START    LENGTH     START    LENGTH     START    LENGTH
BL51 BANKED LINKER/LOCATER V6.22.2.0                                                  09/10/2021  16:23:10  PAGE 7


--------------------------------------------------------------------------------------------------------
?C_C51STARTUP                                    -----    -----      -----    -----      -----    -----
  +--> ?PR?MAIN?MAIN
  +--> ?C_INITSEG

?PR?MAIN?MAIN                                    -----    -----      -----    -----      0000H    0001H
  +--> ?PR?INI_TIMER?MAIN
  +--> ?PR?ON_TIMER0_INTERRUP?MAIN
  +--> ?PR?COM_INITIALIZE?UART
  +--> ?PR?COM_BAUDRATE?UART
  +--> ?PR?INICIA_BOARD?MAIN
  +--> ?PR?TIME_BIT?TIBBO
  +--> ?PR?_DELAY_20US?DELAY
  +--> ?PR?TIME_MBIT?TIBBO
  +--> ?PR?_TX_AUX?TIBBO
  +--> ?PR?SEL_FUNCION?IO_SENSORES
  +--> ?PR?MENU?PROG
  +--> ?PR?VARIABLE_INICIO?MAIN
  +--> ?PR?SECUENCIA_INICIO_EXPEDIDOR?VERIFI...
  +--> ?PR?RX_MONITOR?MONITOR
  +--> ?PR?_SECUENCIAEXPEDIDORMF?VERIFICADOR
  +--> ?PR?_RECIBE_PORT?PTO_PARALELO
  +--> ?PR?_DEBUG_PTO_PARALELO?TIBBO
  +--> ?PR?_VALIDA_TRAMA_PTO?ACCESCAN
  +--> ?PR?MSJ_LCD_INFORMATIVO?IO_SENSORES

?PR?COM_INITIALIZE?UART                          -----    -----      -----    -----      -----    -----
  +--> ?PR?COM_BAUDRATE?UART

?PR?COM_BAUDRATE?UART                            -----    -----      -----    -----      -----    -----
  +--> ?PR?_RD_EEPROM?EEPROM

?PR?_RD_EEPROM?EEPROM                            -----    -----      -----    -----      -----    -----
  +--> ?PR?START?EEPROM
  +--> ?PR?ACK_LECT?EEPROM
  +--> ?PR?_E_D_M?EEPROM
  +--> ?PR?ACKD?EEPROM
  +--> ?PR?L_D_M?EEPROM
  +--> ?PR?STOP?EEPROM

?PR?ACK_LECT?EEPROM                              -----    -----      -----    -----      -----    -----
  +--> ?PR?_E_D_M?EEPROM

?PR?_E_D_M?EEPROM                                -----    -----      -----    -----      -----    -----
  +--> ?PR?P_ME?EEPROM

?PR?ACKD?EEPROM                                  -----    -----      -----    -----      -----    -----
  +--> ?PR?_E_D_M?EEPROM

?PR?INICIA_BOARD?MAIN                            -----    -----      -----    -----      -----    -----
  +--> ?PR?COND_INI_TIBBO?TIBBO
  +--> ?PR?COND_INI_CLOCK?CLOCK
  +--> ?PR?COND_INI_PTO?PTO_PARALELO

?PR?COND_INI_PTO?PTO_PARALELO                    -----    -----      -----    -----      -----    -----
  +--> ?PR?CONFIRMACION?EEPROM

BL51 BANKED LINKER/LOCATER V6.22.2.0                                                  09/10/2021  16:23:10  PAGE 8


?PR?CONFIRMACION?EEPROM                          -----    -----      -----    -----      0011H    000BH
  +--> ?PR?_BLOCK_READ_CLOCK_ASCII?CLOCK
  +--> ?PR?FORMATO_EEPROM?EEPROM

?PR?_BLOCK_READ_CLOCK_ASCII?CLOCK                -----    -----      -----    -----      0051H    0003H
  +--> ?PR?_LEE_CLK?CLOCK

?PR?_LEE_CLK?CLOCK                               -----    -----      -----    -----      00B1H    0003H
  +--> ?PR?_DELAY_20US?DELAY
  +--> ?PR?_EB_CLK?CLOCK
  +--> ?PR?P_CK?CLOCK

?PR?_EB_CLK?CLOCK                                -----    -----      -----    -----      00B4H    0003H
  +--> ?PR?P_CK?CLOCK

?PR?P_CK?CLOCK                                   -----    -----      -----    -----      -----    -----
  +--> ?PR?DELAY?DELAY

?PR?FORMATO_EEPROM?EEPROM                        -----    -----      -----    -----      001CH    000AH
  +--> ?PR?_WR_EEPROM?EEPROM
  +--> ?CO?EEPROM
  +--> ?PR?_DWLOAD_EEPROM_PROG?LINTECH

?PR?_WR_EEPROM?EEPROM                            -----    -----      -----    -----      -----    -----
  +--> ?PR?START?EEPROM
  +--> ?PR?ACKD?EEPROM
  +--> ?PR?_E_D_M?EEPROM
  +--> ?PR?STOP?EEPROM
  +--> ?PR?_DELAY_1MS?DELAY
  +--> ?PR?_DELAY_20US?DELAY

?PR?_DELAY_1MS?DELAY                             -----    -----      -----    -----      -----    -----
  +--> ?PR?_DELAY_20US?DELAY

?PR?_DWLOAD_EEPROM_PROG?LINTECH                  -----    -----      -----    -----      0026H    0019H
  +--> ?CO?LINTECH
  +--> ?PR?_DEBUG_TXT_TIBBO?TIBBO

?PR?_DEBUG_TXT_TIBBO?TIBBO                       -----    -----      -----    -----      0064H    0004H
  +--> ?PR?_DEBUG_CHR_TIBBO?TIBBO
  +--> ?CO?TIBBO
  +--> ?PR?_TX_AUX?TIBBO

?PR?_DEBUG_CHR_TIBBO?TIBBO                       -----    -----      -----    -----      -----    -----
  +--> ?PR?_TX_AUX?TIBBO

?PR?_TX_AUX?TIBBO                                -----    -----      -----    -----      -----    -----
  +--> ?PR?TIME_BIT?TIBBO

?PR?MENU?PROG                                    -----    -----      -----    -----      0001H    0045H
  +--> ?CO?PROG
  +--> ?PR?PRINTF?PRINTF
  +--> ?PR?_RD_EEPROM?EEPROM
  +--> ?PR?FIRST_CLAVE?PROG
  +--> ?PR?_WR_EEPROM?EEPROM
  +--> ?PR?_LEERMEMORIA?EEPROM
  +--> ?PR?_HASH_ID?PROG
BL51 BANKED LINKER/LOCATER V6.22.2.0                                                  09/10/2021  16:23:10  PAGE 9


  +--> ?PR?_INGRESADATO?PROG
  +--> ?PR?_GETCMD?PROG
  +--> ?PR?_ESCRIBIRMEMORIA?EEPROM
  +--> ?PR?_VALIDARCLAVE?PROG
  +--> ?PR?DISPLAYCURSOR?PROG
  +--> ?PR?_STRLEN?STRLEN
  +--> ?PR?_GETOPTION?PROG
  +--> ?PR?_STRCAT?STRCAT
  +--> ?PR?_LISTACOMANDOS?PROG
  +--> ?PR?PROG_ID_CLIENTE?PROG
  +--> ?PR?PROG_COD_PARK?PROG
  +--> ?PR?PROG_TIEMPO_GRACIA?PROG
  +--> ?PR?PROG_SIN_COBRO?PROG
  +--> ?PR?PROG_DEBUG?PROG
  +--> ?PR?PROG_USE_LPR?PROG
  +--> ?PR?TIPO_PANTALLA?PROG
  +--> ?PR?PROG_TARJETA_AUTOMATICA_O_BOTON?PROG
  +--> ?PR?PROG_ANTIPASSBACK?PROG
  +--> ?PR?PROG_PLACA?PROG
  +--> ?PR?PROG_ADDRESS_HIGH_BOARD?PROG
  +--> ?PR?PROG_HORARIOS?PROG
  +--> ?PR?PROG_VALIDAR_TIPO_VEHICULO_MENSUA...
  +--> ?PR?PROG_APB_MENSUAL?PROG
  +--> ?PR?PROG_MENSUALES?PROG
  +--> ?PR?VER_PROG?PROG
  +--> ?PR?SHOW?PROG
  +--> ?PR?PROG_FECHA_VENCIMIENTO?PROG

?PR?PRINTF?PRINTF                                0020H.0  0001H.1    0008H    0005H      0077H    0030H
  +--> ?PR?_PUTCHAR?MAIN

?PR?_PUTCHAR?MAIN                                -----    -----      -----    -----      00A7H    0003H
  +--> ?PR?_COM_PUTCHAR?UART

?PR?_COM_PUTCHAR?UART                            -----    -----      -----    -----      00AAH    0001H
  +--> ?PR?COM_TBUFLEN?UART

?PR?FIRST_CLAVE?PROG                             -----    -----      -----    -----      0046H    000BH
  +--> ?PR?_BLOCK_READ_CLOCK_ASCII?CLOCK
  +--> ?PR?_HASH_ID?PROG
  +--> ?PR?_ESCRIBIRMEMORIA?EEPROM

?PR?_HASH_ID?PROG                                -----    -----      -----    -----      005DH    003FH
  +--> ?CO?PROG
  +--> ?PR?_LEERMEMORIA?EEPROM
  +--> ?PR?_CHECK_FECHAOUT?CLOCK
  +--> ?PR?_STRLEN?STRLEN

?PR?_LEERMEMORIA?EEPROM                          -----    -----      -----    -----      009CH    0005H
  +--> ?PR?_RD_EEPROM?EEPROM

?PR?_CHECK_FECHAOUT?CLOCK                        -----    -----      -----    -----      009CH    0012H
  +--> ?PR?_BLOCK_READ_CLOCK_HEX?CLOCK

?PR?_BLOCK_READ_CLOCK_HEX?CLOCK                  -----    -----      -----    -----      00AEH    0003H
  +--> ?PR?_LEE_CLK?CLOCK
  +--> ?PR?_BCD_HEX?CLOCK
BL51 BANKED LINKER/LOCATER V6.22.2.0                                                  09/10/2021  16:23:10  PAGE 10



?PR?_ESCRIBIRMEMORIA?EEPROM                      -----    -----      -----    -----      005DH    0005H
  +--> ?PR?_WR_EEPROM?EEPROM

?PR?_INGRESADATO?PROG                            -----    -----      -----    -----      0071H    0004H
  +--> ?PR?_GETKEY?MAIN
  +--> ?CO?PROG
  +--> ?PR?PRINTF?PRINTF
  +--> ?PR?_PUTCHAR?MAIN

?PR?_GETKEY?MAIN                                 -----    -----      -----    -----      -----    -----
  +--> ?PR?COM_GETCHAR?UART

?PR?COM_GETCHAR?UART                             -----    -----      -----    -----      -----    -----
  +--> ?PR?COM_RBUFLEN?UART

?PR?_GETCMD?PROG                                 -----    -----      -----    -----      005DH    0007H
  +--> ?CO?PROG
  +--> ?PR?_STRTOK?STRTOK

?PR?_STRTOK?STRTOK                               -----    -----      -----    -----      0064H    0006H
  +--> ?PR?_STRSPN?STRSPN
  +--> ?PR?_STRPBRK?STRPBRK

?PR?_STRSPN?STRSPN                               -----    -----      -----    -----      006AH    0008H

?PR?_STRPBRK?STRPBRK                             -----    -----      -----    -----      006AH    0009H

?PR?_VALIDARCLAVE?PROG                           -----    -----      -----    -----      005DH    000EH

?PR?DISPLAYCURSOR?PROG                           -----    -----      -----    -----      -----    -----
  +--> ?CO?PROG
  +--> ?PR?PRINTF?PRINTF

?PR?_GETOPTION?PROG                              -----    -----      -----    -----      0046H    000BH
  +--> ?CO?PROG
  +--> ?PR?_STRTOK?STRTOK

?PR?_STRCAT?STRCAT                               -----    -----      -----    -----      0046H    0009H

?PR?_LISTACOMANDOS?PROG                          -----    -----      -----    -----      0046H    0007H

?PR?PROG_ID_CLIENTE?PROG                         -----    -----      -----    -----      0046H    000CH
  +--> ?PR?_RD_EEPROM?EEPROM
  +--> ?CO?PROG
  +--> ?PR?PRINTF?PRINTF
  +--> ?PR?_INGRESADATO?PROG
  +--> ?PR?_ATOI?ATOI
  +--> ?PR?_WR_EEPROM?EEPROM

?PR?_ATOI?ATOI                                   0020H.0  0000H.1    -----    -----      0071H    0005H
  +--> ?PR?_ISSPACE?ISSPACE
  +--> ?PR?_ISDIGIT?ISDIGIT

?PR?PROG_COD_PARK?PROG                           -----    -----      -----    -----      0046H    000CH
  +--> ?PR?_RD_EEPROM?EEPROM
  +--> ?CO?PROG
BL51 BANKED LINKER/LOCATER V6.22.2.0                                                  09/10/2021  16:23:10  PAGE 11


  +--> ?PR?PRINTF?PRINTF
  +--> ?PR?_INGRESADATO?PROG
  +--> ?PR?_ATOI?ATOI
  +--> ?PR?_WR_EEPROM?EEPROM

?PR?PROG_TIEMPO_GRACIA?PROG                      -----    -----      -----    -----      0046H    000CH
  +--> ?PR?_RD_EEPROM?EEPROM
  +--> ?CO?PROG
  +--> ?PR?PRINTF?PRINTF
  +--> ?PR?_INGRESADATO?PROG
  +--> ?PR?_ATOI?ATOI
  +--> ?PR?_WR_EEPROM?EEPROM

?PR?PROG_SIN_COBRO?PROG                          -----    -----      -----    -----      0046H    000CH
  +--> ?PR?_RD_EEPROM?EEPROM
  +--> ?CO?PROG
  +--> ?PR?PRINTF?PRINTF
  +--> ?PR?_INGRESADATO?PROG
  +--> ?PR?_ATOI?ATOI
  +--> ?PR?_WR_EEPROM?EEPROM

?PR?PROG_DEBUG?PROG                              -----    -----      -----    -----      0046H    000CH
  +--> ?PR?_RD_EEPROM?EEPROM
  +--> ?CO?PROG
  +--> ?PR?PRINTF?PRINTF
  +--> ?PR?_INGRESADATO?PROG
  +--> ?PR?_ATOI?ATOI
  +--> ?PR?_WR_EEPROM?EEPROM

?PR?PROG_USE_LPR?PROG                            -----    -----      -----    -----      0046H    000CH
  +--> ?PR?_RD_EEPROM?EEPROM
  +--> ?CO?PROG
  +--> ?PR?PRINTF?PRINTF
  +--> ?PR?_INGRESADATO?PROG
  +--> ?PR?_ATOI?ATOI
  +--> ?PR?_WR_EEPROM?EEPROM

?PR?TIPO_PANTALLA?PROG                           -----    -----      -----    -----      0046H    000CH
  +--> ?PR?_RD_EEPROM?EEPROM
  +--> ?CO?PROG
  +--> ?PR?PRINTF?PRINTF
  +--> ?PR?_INGRESADATO?PROG
  +--> ?PR?_ATOI?ATOI
  +--> ?PR?_WR_EEPROM?EEPROM

?PR?PROG_TARJETA_AUTOMATICA_O_BOTON?PROG         -----    -----      -----    -----      0046H    000CH
  +--> ?PR?_RD_EEPROM?EEPROM
  +--> ?CO?PROG
  +--> ?PR?PRINTF?PRINTF
  +--> ?PR?_INGRESADATO?PROG
  +--> ?PR?_ATOI?ATOI
  +--> ?PR?_WR_EEPROM?EEPROM

?PR?PROG_ANTIPASSBACK?PROG                       -----    -----      -----    -----      0046H    000CH
  +--> ?PR?_RD_EEPROM?EEPROM
  +--> ?CO?PROG
  +--> ?PR?PRINTF?PRINTF
BL51 BANKED LINKER/LOCATER V6.22.2.0                                                  09/10/2021  16:23:10  PAGE 12


  +--> ?PR?_INGRESADATO?PROG
  +--> ?PR?_ATOI?ATOI
  +--> ?PR?_WR_EEPROM?EEPROM

?PR?PROG_PLACA?PROG                              -----    -----      -----    -----      0046H    000CH
  +--> ?PR?_RD_EEPROM?EEPROM
  +--> ?CO?PROG
  +--> ?PR?PRINTF?PRINTF
  +--> ?PR?_INGRESADATO?PROG
  +--> ?PR?_ATOI?ATOI
  +--> ?PR?_WR_EEPROM?EEPROM

?PR?PROG_ADDRESS_HIGH_BOARD?PROG                 -----    -----      -----    -----      0046H    000CH
  +--> ?PR?_RD_EEPROM?EEPROM
  +--> ?CO?PROG
  +--> ?PR?PRINTF?PRINTF
  +--> ?PR?_INGRESADATO?PROG
  +--> ?PR?_ATOI?ATOI
  +--> ?PR?_WR_EEPROM?EEPROM

?PR?PROG_HORARIOS?PROG                           -----    -----      -----    -----      0046H    001BH
  +--> ?PR?ADDR_HORARIOS?PROG
  +--> ?CO?PROG
  +--> ?PR?PRINTF?PRINTF
  +--> ?PR?_INGRESADATO?PROG
  +--> ?PR?_ATOI?ATOI
  +--> ?PR?_PROG_HORARIOS_ON_OFF?PROG
  +--> ?PR?_WR_EEPROM?EEPROM
  +--> ?PR?_PROG_HORARIO_DIAS?PROG
  +--> ?PR?_PROG_HORARIO_DESDE_HASTA?PROG
  +--> ?PR?_RD_EEPROM?EEPROM

?PR?ADDR_HORARIOS?PROG                           -----    -----      -----    -----      0074H    000BH

?PR?_PROG_HORARIOS_ON_OFF?PROG                   -----    -----      -----    -----      0061H    0010H
  +--> ?PR?_RD_EEPROM?EEPROM
  +--> ?CO?PROG
  +--> ?PR?PRINTF?PRINTF
  +--> ?PR?_INGRESADATO?PROG
  +--> ?PR?_ATOI?ATOI
  +--> ?PR?_WR_EEPROM?EEPROM

?PR?_PROG_HORARIO_DIAS?PROG                      -----    -----      -----    -----      0061H    000FH
  +--> ?CO?PROG
  +--> ?PR?PRINTF?PRINTF
  +--> ?PR?_INGRESADATO?PROG
  +--> ?PR?_WR_EEPROM?EEPROM
  +--> ?PR?_RD_EEPROM?EEPROM

?PR?_PROG_HORARIO_DESDE_HASTA?PROG               -----    -----      -----    -----      0061H    000CH
  +--> ?CO?PROG
  +--> ?PR?PRINTF?PRINTF
  +--> ?PR?_INGRESADATO?PROG
  +--> ?PR?_WR_EEPROM?EEPROM
  +--> ?PR?_RD_EEPROM?EEPROM

?PR?PROG_VALIDAR_TIPO_VEHICULO_MENSUA...         -----    -----      -----    -----      0046H    000CH
BL51 BANKED LINKER/LOCATER V6.22.2.0                                                  09/10/2021  16:23:10  PAGE 13


  +--> ?PR?_RD_EEPROM?EEPROM
  +--> ?CO?PROG
  +--> ?PR?PRINTF?PRINTF
  +--> ?PR?_INGRESADATO?PROG
  +--> ?PR?_ATOI?ATOI
  +--> ?PR?_WR_EEPROM?EEPROM

?PR?PROG_APB_MENSUAL?PROG                        -----    -----      -----    -----      0046H    000CH
  +--> ?PR?_RD_EEPROM?EEPROM
  +--> ?CO?PROG
  +--> ?PR?PRINTF?PRINTF
  +--> ?PR?_INGRESADATO?PROG
  +--> ?PR?_ATOI?ATOI
  +--> ?PR?_WR_EEPROM?EEPROM

?PR?PROG_MENSUALES?PROG                          -----    -----      -----    -----      0046H    000CH
  +--> ?PR?_RD_EEPROM?EEPROM
  +--> ?CO?PROG
  +--> ?PR?PRINTF?PRINTF
  +--> ?PR?_INGRESADATO?PROG
  +--> ?PR?_ATOI?ATOI
  +--> ?PR?_WR_EEPROM?EEPROM

?PR?VER_PROG?PROG                                -----    -----      -----    -----      0046H    0013H
  +--> ?PR?_RD_EEPROM?EEPROM
  +--> ?CO?PROG
  +--> ?PR?PRINTF?PRINTF
  +--> ?PR?VER_HORARIO?PROG
  +--> ?PR?_LEERMEMORIA?EEPROM
  +--> ?PR?_HEX_ASCII?CLOCK
  +--> ?PR?LEE_NO_TICKET?EEPROM

?PR?VER_HORARIO?PROG                             -----    -----      -----    -----      0059H    001BH
  +--> ?PR?ADDR_HORARIOS?PROG
  +--> ?CO?PROG
  +--> ?PR?PRINTF?PRINTF
  +--> ?PR?_RD_EEPROM?EEPROM
  +--> ?PR?_VER_HORARIO_DIAS?PROG
  +--> ?PR?_VER_HORARIO_DESDE_HASTA?PROG

?PR?_VER_HORARIO_DIAS?PROG                       -----    -----      -----    -----      0074H    0003H
  +--> ?PR?_RD_EEPROM?EEPROM
  +--> ?CO?PROG
  +--> ?PR?PRINTF?PRINTF

?PR?_VER_HORARIO_DESDE_HASTA?PROG                -----    -----      -----    -----      0074H    0002H
  +--> ?CO?PROG
  +--> ?PR?PRINTF?PRINTF
  +--> ?PR?_RD_EEPROM?EEPROM

?PR?_HEX_ASCII?CLOCK                             -----    -----      -----    -----      005DH    0006H
  +--> ?PR?_HEX_BCD?CLOCK

?PR?LEE_NO_TICKET?EEPROM                         -----    -----      -----    -----      0059H    000BH
  +--> ?PR?READ_EEPROM_TICKET?EEPROM
  +--> ?CO?EEPROM
  +--> ?PR?PRINTF?PRINTF
BL51 BANKED LINKER/LOCATER V6.22.2.0                                                  09/10/2021  16:23:10  PAGE 14


  +--> ?PR?_STRLEN?STRLEN
  +--> ?PR?_DEBUG_TXT_TIBBO?TIBBO

?PR?READ_EEPROM_TICKET?EEPROM                    -----    -----      -----    -----      0064H    0007H
  +--> ?PR?_RD_EEPROM?EEPROM

?PR?SHOW?PROG                                    -----    -----      -----    -----      -----    -----
  +--> ?CO?PROG
  +--> ?PR?PRINTF?PRINTF

?PR?PROG_FECHA_VENCIMIENTO?PROG                  -----    -----      -----    -----      0046H    0017H
  +--> ?PR?_LEERMEMORIA?EEPROM
  +--> ?PR?_HEX_ASCII?CLOCK
  +--> ?CO?PROG
  +--> ?PR?PRINTF?PRINTF
  +--> ?PR?_HASH_ID?PROG
  +--> ?PR?_INGRESADATO?PROG
  +--> ?PR?_GETCMD?PROG
  +--> ?PR?_ESCRIBIRMEMORIA?EEPROM
  +--> ?PR?_VALIDARCLAVE?PROG
  +--> ?PR?_ATOI?ATOI
  +--> ?PR?_WR_EEPROM?EEPROM

?PR?VARIABLE_INICIO?MAIN                         -----    -----      -----    -----      -----    -----
  +--> ?PR?_RD_EEPROM?EEPROM

?PR?SECUENCIA_INICIO_EXPEDIDOR?VERIFI...         -----    -----      -----    -----      0001H    0001H
  +--> ?PR?_INICIALIZA?LINTECH
  +--> ?PR?TRAMA_VALIDACION_P_N?VERIFICADOR
  +--> ?CO?VERIFICADOR
  +--> ?PR?_DEBUG_TXT_TIBBO?TIBBO
  +--> ?PR?_DEBUGBUFFERMF?TIBBO
  +--> ?PR?DWLOAD_EEPROM?LINTECH

?PR?_INICIALIZA?LINTECH                          -----    -----      -----    -----      0002H    000CH
  +--> ?CO?LINTECH
  +--> ?PR?_DEBUG_TXT_TIBBO?TIBBO
  +--> ?PR?_DEBUGBUFFERMF?TIBBO
  +--> ?PR?_ESCRIBIRCADENASOFT_BUFFER?MAIN

?PR?_DEBUGBUFFERMF?TIBBO                         -----    -----      -----    -----      0027H    0006H
  +--> ?CO?TIBBO
  +--> ?PR?_DEBUG_TXT_TIBBO?TIBBO
  +--> ?PR?_DEBUG_CHR_TIBBO?TIBBO
  +--> ?PR?_TX_AUX?TIBBO

?PR?_ESCRIBIRCADENASOFT_BUFFER?MAIN              -----    -----      -----    -----      0027H    0006H
  +--> ?PR?_PUTCHAR?MAIN

?PR?TRAMA_VALIDACION_P_N?VERIFICADOR             -----    -----      -----    -----      -----    -----
  +--> ?CO?VERIFICADOR
  +--> ?PR?_DEBUG_TXT_TIBBO?TIBBO

?PR?DWLOAD_EEPROM?LINTECH                        -----    -----      -----    -----      0002H    0016H
  +--> ?CO?LINTECH
  +--> ?PR?_DEBUG_TXT_TIBBO?TIBBO
  +--> ?PR?_DEBUGBUFFERMF?TIBBO
BL51 BANKED LINKER/LOCATER V6.22.2.0                                                  09/10/2021  16:23:10  PAGE 15


  +--> ?PR?_ESCRIBIRCADENASOFT_BUFFER?MAIN

?PR?RX_MONITOR?MONITOR                           -----    -----      -----    -----      0003H    000EH
  +--> ?PR?_RECIBE_CMD_MONITOR?MONITOR
  +--> ?PR?_DEBUG_BUFFER_RS232_LCD?TIBBO
  +--> ?PR?_DEBUG_MONITOR?TIBBO
  +--> ?PR?_VALIDA_TRAMA_MONITOR?MONITOR

?PR?_RECIBE_CMD_MONITOR?MONITOR                  -----    -----      -----    -----      0011H    0006H
  +--> ?PR?TIMER_MONITOR_CHAR?MONITOR
  +--> ?PR?RX_DATA?TIBBO

?PR?TIMER_MONITOR_CHAR?MONITOR                   -----    -----      -----    -----      0017H    0003H

?PR?RX_DATA?TIBBO                                -----    -----      -----    -----      -----    -----
  +--> ?PR?TIME_MBIT?TIBBO
  +--> ?PR?TIME_BIT?TIBBO

?PR?_DEBUG_BUFFER_RS232_LCD?TIBBO                -----    -----      -----    -----      0011H    0006H
  +--> ?PR?_DEBUG_CHR_RS232_LCD?TIBBO
  +--> ?PR?_PUTCHAR?MAIN

?PR?_DEBUG_CHR_RS232_LCD?TIBBO                   -----    -----      -----    -----      0017H    0001H
  +--> ?PR?_PUTCHAR?MAIN

?PR?_DEBUG_MONITOR?TIBBO                         -----    -----      -----    -----      0011H    0004H
  +--> ?PR?DEBUG_DIVIDIR_TEXTO?TIBBO
  +--> ?CO?TIBBO
  +--> ?PR?_DEBUG_TXT_TIBBO?TIBBO

?PR?DEBUG_DIVIDIR_TEXTO?TIBBO                    -----    -----      -----    -----      -----    -----
  +--> ?CO?TIBBO
  +--> ?PR?_DEBUG_TXT_TIBBO?TIBBO

?PR?_VALIDA_TRAMA_MONITOR?MONITOR                -----    -----      -----    -----      0011H    0006H
  +--> ?PR?_DELAY_10MS?DELAY
  +--> ?PR?_TX_AUX?TIBBO

?PR?_DELAY_10MS?DELAY                            -----    -----      -----    -----      0017H    0004H
  +--> ?PR?_DELAY_1MS?DELAY

?PR?_SECUENCIAEXPEDIDORMF?VERIFICADOR            -----    -----      -----    -----      0001H    0001H
  +--> ?PR?_CHECK_STATUS?LINTECH
  +--> ?PR?_LOAD_SECUENCIA_EXPEDIDOR?VERIFIC...
  +--> ?PR?_RTA_CMD_TRANSPORTE?VERIFICADOR
  +--> ?PR?_MOV_CARD?LINTECH
  +--> ?PR?AUT_CARD_CHECK_STATUS?LINTECH
  +--> ?PR?LOADVERIFY_EEPROM?LINTECH
  +--> ?PR?_RD_MF?LINTECH
  +--> ?PR?_WR_MF?LINTECH
  +--> ?PR?_CARD_INSERCION?LINTECH
  +--> ?PR?DWLOAD_EEPROM?LINTECH
  +--> ?PR?ENTREGA_CARD_CAPTURA?VERIFICADOR
  +--> ?PR?_SEND_PTO_PARALELO?VERIFICADOR
  +--> ?PR?WAIT_PLACA?VERIFICADOR
  +--> ?PR?UNIQUE_IDENTIFIER_UID?LINTECH
  +--> ?PR?_PREGUNTA_LPR?VERIFICADOR
BL51 BANKED LINKER/LOCATER V6.22.2.0                                                  09/10/2021  16:23:10  PAGE 16


  +--> ?PR?PREGUNTA_PLACA_HABILITADA?VERIFIC...
  +--> ?PR?_VALIDA_TIPO_TARJETA?VERIFICADOR
  +--> ?PR?POWER_OFF?LINTECH
  +--> ?PR?CLAVE_SEGURIDAD_S2?LINTECH
  +--> ?PR?_RESPONDE_REELECTURA_TARJETA_SECT...
  +--> ?PR?ANALIZA_PRESENCIA_ROTACION?VERIFI...
  +--> ?PR?RX_MONITOR?MONITOR
  +--> ?PR?INGRESO_VEHICULO?VERIFICADOR
  +--> ?PR?RESPONDE_ESTADO_SENSORES_TRANSPOR...
  +--> ?PR?RESPONDE_TIPO_TARJETA?VERIFICADOR
  +--> ?PR?_RESPONDE_LECTURA_TARJETA_SECTOR1...
  +--> ?PR?_RESPONDE_LECTURA_TARJETA_SECTOR1...
  +--> ?PR?_RESPONDE_LECTURA_TARJETA_SECTOR1...
  +--> ?PR?_RESPONDE_WRITE_TARJETA_SECTOR1_B...
  +--> ?PR?_RESPONDE_WRITE_TARJETA_SECTOR2_B...
  +--> ?PR?_RESPONDE_WRITE_TARJETA_SECTOR1_B...
  +--> ?PR?_RESPONDE_WRITE_TARJETA_SECTOR1_B...
  +--> ?PR?_DISPARO_LOCK_ENTRADA_VEHICULO?VE...
  +--> ?PR?_RESPUESTA_SEGUNDA_CLAVE?VERIFICADOR
  +--> ?PR?_ANALIZA_UID_CARD?VERIFICADOR
  +--> ?CO?VERIFICADOR
  +--> ?PR?_DEBUG_TXT_TIBBO?TIBBO

?PR?_CHECK_STATUS?LINTECH                        -----    -----      -----    -----      0002H    000BH
  +--> ?CO?LINTECH
  +--> ?PR?_DEBUG_TXT_TIBBO?TIBBO
  +--> ?PR?_DEBUGBUFFERMF?TIBBO
  +--> ?PR?_ESCRIBIRCADENASOFT_BUFFER?MAIN

?PR?_LOAD_SECUENCIA_EXPEDIDOR?VERIFIC...         -----    -----      -----    -----      0002H    0009H

?PR?_RTA_CMD_TRANSPORTE?VERIFICADOR              -----    -----      -----    -----      0002H    0005H
  +--> ?PR?TRAMA_VALIDACION_P_N?VERIFICADOR
  +--> ?CO?VERIFICADOR
  +--> ?PR?_DEBUG_TXT_TIBBO?TIBBO
  +--> ?PR?_DEBUGBUFFERMF?TIBBO
  +--> ?PR?ERROR_RX_PTO?VERIFICADOR

?PR?ERROR_RX_PTO?VERIFICADOR                     -----    -----      -----    -----      0007H    0001H
  +--> ?CO?VERIFICADOR
  +--> ?PR?_DEBUG_TXT_TIBBO?TIBBO
  +--> ?PR?_DEBUG_CHR_TIBBO?TIBBO
  +--> ?PR?_DELAY_10MS?DELAY

?PR?_MOV_CARD?LINTECH                            -----    -----      -----    -----      0002H    000CH
  +--> ?CO?LINTECH
  +--> ?PR?_DEBUG_TXT_TIBBO?TIBBO
  +--> ?PR?_DEBUGBUFFERMF?TIBBO
  +--> ?PR?_ESCRIBIRCADENASOFT_BUFFER?MAIN

?PR?AUT_CARD_CHECK_STATUS?LINTECH                -----    -----      -----    -----      0002H    000BH
  +--> ?CO?LINTECH
  +--> ?PR?_DEBUG_TXT_TIBBO?TIBBO
  +--> ?PR?_DEBUGBUFFERMF?TIBBO
  +--> ?PR?_ESCRIBIRCADENASOFT_BUFFER?MAIN

?PR?LOADVERIFY_EEPROM?LINTECH                    -----    -----      -----    -----      0002H    0010H
BL51 BANKED LINKER/LOCATER V6.22.2.0                                                  09/10/2021  16:23:10  PAGE 17


  +--> ?CO?LINTECH
  +--> ?PR?_DEBUG_TXT_TIBBO?TIBBO
  +--> ?PR?_DEBUGBUFFERMF?TIBBO
  +--> ?PR?_ESCRIBIRCADENASOFT_BUFFER?MAIN

?PR?_RD_MF?LINTECH                               -----    -----      -----    -----      0002H    0012H
  +--> ?CO?LINTECH
  +--> ?PR?_DEBUG_TXT_TIBBO?TIBBO
  +--> ?PR?_DEBUG_CHR_TIBBO?TIBBO
  +--> ?PR?_DEBUGBUFFERMF?TIBBO
  +--> ?PR?_ESCRIBIRCADENASOFT_BUFFER?MAIN

?PR?_WR_MF?LINTECH                               -----    -----      -----    -----      0002H    0025H
  +--> ?CO?LINTECH
  +--> ?PR?_DEBUG_TXT_TIBBO?TIBBO
  +--> ?PR?_DEBUG_CHR_TIBBO?TIBBO
  +--> ?PR?_DEBUGBUFFERMF?TIBBO
  +--> ?PR?_ESCRIBIRCADENASOFT_BUFFER?MAIN

?PR?_CARD_INSERCION?LINTECH                      -----    -----      -----    -----      0002H    000AH
  +--> ?CO?LINTECH
  +--> ?PR?_DEBUG_TXT_TIBBO?TIBBO
  +--> ?PR?_DEBUGBUFFERMF?TIBBO
  +--> ?PR?_ESCRIBIRCADENASOFT_BUFFER?MAIN

?PR?ENTREGA_CARD_CAPTURA?VERIFICADOR             -----    -----      -----    -----      0002H    0001H
  +--> ?CO?VERIFICADOR
  +--> ?PR?_DEBUG_TXT_TIBBO?TIBBO
  +--> ?PR?SEL_SENSOR2?IO_SENSORES
  +--> ?PR?VALIDASENSOR?IO_SENSORES
  +--> ?PR?VALIDA_SENSOR1_AUTO?IO_SENSORES

?PR?VALIDA_SENSOR1_AUTO?IO_SENSORES              -----    -----      -----    -----      0012H    0001H
  +--> ?PR?SEL_SENSOR1?IO_SENSORES
  +--> ?PR?SEL_AUTO?IO_SENSORES
  +--> ?CO?IO_SENSORES
  +--> ?PR?_DEBUG_TXT_TIBBO?TIBBO
  +--> ?PR?BOTTON?IO_SENSORES

?PR?BOTTON?IO_SENSORES                           -----    -----      -----    -----      -----    -----
  +--> ?PR?SEL_PULSA?IO_SENSORES
  +--> ?CO?IO_SENSORES
  +--> ?PR?_DEBUG_TXT_TIBBO?TIBBO

?PR?_SEND_PTO_PARALELO?VERIFICADOR               -----    -----      -----    -----      0002H    0007H
  +--> ?PR?_ARMAR_TRAMA_PTO_PARALELO_EXPEDID...
  +--> ?PR?_ARMAR_TRAMA_PTO_PARALELO_EXPEDID...
  +--> ?PR?INCREMENTE_TICKET?EEPROM
  +--> ?PR?_SEND_PORT?PTO_PARALELO
  +--> ?CO?VERIFICADOR
  +--> ?PR?_DEBUG_TXT_TIBBO?TIBBO
  +--> ?PR?_DEBUGBUFFERMF?TIBBO
  +--> ?PR?CLEAR_PLACA?MONITOR

?PR?_ARMAR_TRAMA_PTO_PARALELO_EXPEDID...         -----    -----      -----    -----      0009H    0006H
  +--> ?PR?_BCD_HEX?CLOCK
  +--> ?PR?_RD_EEPROM?EEPROM
BL51 BANKED LINKER/LOCATER V6.22.2.0                                                  09/10/2021  16:23:10  PAGE 18



?PR?_ARMAR_TRAMA_PTO_PARALELO_EXPEDID...         -----    -----      -----    -----      0009H    0012H
  +--> ?PR?LEE_NO_TICKET?EEPROM
  +--> ?PR?_STRCAT?STRCAT
  +--> ?PR?_STRLEN?STRLEN
  +--> ?PR?_BCD_HEX?CLOCK
  +--> ?PR?_RD_EEPROM?EEPROM

?PR?INCREMENTE_TICKET?EEPROM                     -----    -----      -----    -----      0009H    000BH
  +--> ?PR?READ_EEPROM_TICKET?EEPROM
  +--> ?CO?EEPROM
  +--> ?PR?PRINTF?PRINTF
  +--> ?PR?_WRITE_EEPROM_TICKET?EEPROM

?PR?_WRITE_EEPROM_TICKET?EEPROM                  -----    -----      -----    -----      0016H    000BH
  +--> ?CO?EEPROM
  +--> ?PR?_DEBUG_TXT_TIBBO?TIBBO
  +--> ?PR?_ATOL?ATOL
  +--> ?PR?_DEBUG_CHR_TIBBO?TIBBO
  +--> ?PR?_WR_EEPROM?EEPROM

?PR?_ATOL?ATOL                                   0020H.0  0000H.1    -----    -----      0021H    0007H
  +--> ?PR?_ISSPACE?ISSPACE
  +--> ?PR?_ISDIGIT?ISDIGIT

?PR?_SEND_PORT?PTO_PARALELO                      -----    -----      -----    -----      0016H    000AH
  +--> ?PR?PULSO_BUS?PTO_PARALELO
  +--> ?PR?_DELAY_20US?DELAY

?PR?PULSO_BUS?PTO_PARALELO                       -----    -----      -----    -----      -----    -----
  +--> ?PR?_DELAY_20US?DELAY

?PR?WAIT_PLACA?VERIFICADOR                       -----    -----      -----    -----      0002H    0001H
  +--> ?CO?VERIFICADOR
  +--> ?PR?_DEBUG_TXT_TIBBO?TIBBO
  +--> ?PR?RX_MONITOR?MONITOR
  +--> ?PR?RESPUESTA_PLACA_CANCEL?VERIFICADOR

?PR?RESPUESTA_PLACA_CANCEL?VERIFICADOR           -----    -----      -----    -----      0003H    0001H
  +--> ?CO?VERIFICADOR
  +--> ?PR?_DEBUG_TXT_TIBBO?TIBBO
  +--> ?PR?_DEBUG_TXT_RS232?TIBBO

?PR?_DEBUG_TXT_RS232?TIBBO                       -----    -----      -----    -----      0004H    0005H
  +--> ?PR?_PUTCHAR?MAIN

?PR?UNIQUE_IDENTIFIER_UID?LINTECH                -----    -----      -----    -----      0002H    000BH
  +--> ?CO?LINTECH
  +--> ?PR?_DEBUG_TXT_TIBBO?TIBBO
  +--> ?PR?_DEBUGBUFFERMF?TIBBO
  +--> ?PR?_ESCRIBIRCADENASOFT_BUFFER?MAIN

?PR?_PREGUNTA_LPR?VERIFICADOR                    -----    -----      -----    -----      0002H    0007H
  +--> ?CO?VERIFICADOR
  +--> ?PR?_DEBUG_TXT_TIBBO?TIBBO
  +--> ?PR?_HORA_ENTRADA_VEHICULO?CLOCK
  +--> ?PR?_RD_EEPROM?EEPROM
BL51 BANKED LINKER/LOCATER V6.22.2.0                                                  09/10/2021  16:23:10  PAGE 19


  +--> ?PR?_ARMAR_TRAMA_MONITOR?VERIFICADOR

?PR?_HORA_ENTRADA_VEHICULO?CLOCK                 -----    -----      -----    -----      0009H    0003H
  +--> ?PR?_LEE_CLK?CLOCK

?PR?_ARMAR_TRAMA_MONITOR?VERIFICADOR             -----    -----      -----    -----      0009H    000FH
  +--> ?PR?DIR_BOARD_MONITOR?IO_SENSORES
  +--> ?PR?LEE_NO_TICKET?EEPROM
  +--> ?PR?_STRCAT?STRCAT
  +--> ?PR?_BYTEHEX_DECIMAL?CLOCK
  +--> ?PR?_STRLEN?STRLEN
  +--> ?PR?_TWO_BYTEHEX_DECIMAL?CLOCK

?PR?DIR_BOARD_MONITOR?IO_SENSORES                -----    -----      -----    -----      -----    -----
  +--> ?PR?_RD_EEPROM?EEPROM

?PR?_BYTEHEX_DECIMAL?CLOCK                       -----    -----      -----    -----      0018H    0001H

?PR?_TWO_BYTEHEX_DECIMAL?CLOCK                   -----    -----      -----    -----      0018H    000CH
  +--> ?PR?_POW?POW

?PR?_POW?POW                                     -----    -----      -----    -----      0024H    000AH
  +--> ?PR?LOG?LOG
  +--> ?PR?EXP?EXP

?PR?LOG?LOG                                      0020H.0  0000H.1    -----    -----      002EH    0004H

?PR?PREGUNTA_PLACA_HABILITADA?VERIFIC...         -----    -----      -----    -----      0002H    0001H
  +--> ?CO?VERIFICADOR
  +--> ?PR?_DEBUG_TXT_TIBBO?TIBBO
  +--> ?PR?_RD_EEPROM?EEPROM

?PR?_VALIDA_TIPO_TARJETA?VERIFICADOR             -----    -----      -----    -----      0002H    0007H
  +--> ?CO?VERIFICADOR
  +--> ?PR?_DEBUG_TXT_TIBBO?TIBBO
  +--> ?PR?_RD_EEPROM?EEPROM
  +--> ?PR?_SEND_PORTERR?PTO_PARALELO
  +--> ?PR?_TARJETA_ROTACION?VERIFICADOR
  +--> ?PR?_PANTALLALCD?PANTALLAS

?PR?_SEND_PORTERR?PTO_PARALELO                   -----    -----      -----    -----      0018H    0006H
  +--> ?PR?PULSO_BUS?PTO_PARALELO
  +--> ?PR?_DELAY_20US?DELAY

?PR?_TARJETA_ROTACION?VERIFICADOR                -----    -----      -----    -----      0009H    0006H
  +--> ?PR?_ARMAR_TRAMA_TARJETA_SECTOR1_BLOQ...

?PR?_ARMAR_TRAMA_TARJETA_SECTOR1_BLOQ...         -----    -----      -----    -----      000FH    0006H
  +--> ?PR?_BCD_HEX?CLOCK
  +--> ?PR?DIR_BOARD?IO_SENSORES

?PR?DIR_BOARD?IO_SENSORES                        -----    -----      -----    -----      0033H    0001H
  +--> ?PR?SEL_DIR1?IO_SENSORES
  +--> ?PR?SEL_DIR2?IO_SENSORES
  +--> ?PR?_RD_EEPROM?EEPROM

?PR?_PANTALLALCD?PANTALLAS                       -----    -----      -----    -----      0018H    0030H
BL51 BANKED LINKER/LOCATER V6.22.2.0                                                  09/10/2021  16:23:10  PAGE 20


  +--> ?CO?PANTALLAS
  +--> ?PR?_LCD_TXT?PANTALLAS
  +--> ?PR?_STRLEN?STRLEN
  +--> ?PR?_TX_CHRLCD?PANTALLAS
  +--> ?PR?_RASPBERRY_DATA?PANTALLAS

?PR?_LCD_TXT?PANTALLAS                           -----    -----      -----    -----      0048H    0005H
  +--> ?PR?_TX_CHRLCD?PANTALLAS

?PR?_TX_CHRLCD?PANTALLAS                         -----    -----      -----    -----      004DH    0002H
  +--> ?PR?_PUTCHAR?MAIN

?PR?_RASPBERRY_DATA?PANTALLAS                    -----    -----      -----    -----      0048H    0006H
  +--> ?PR?_STRLEN?STRLEN
  +--> ?PR?_PUTCHAR?MAIN

?PR?POWER_OFF?LINTECH                            -----    -----      -----    -----      0002H    000BH
  +--> ?CO?LINTECH
  +--> ?PR?_DEBUG_TXT_TIBBO?TIBBO
  +--> ?PR?_DEBUGBUFFERMF?TIBBO
  +--> ?PR?_ESCRIBIRCADENASOFT_BUFFER?MAIN

?PR?CLAVE_SEGURIDAD_S2?LINTECH                   -----    -----      -----    -----      0002H    0016H
  +--> ?CO?LINTECH
  +--> ?PR?_DEBUG_TXT_TIBBO?TIBBO
  +--> ?PR?_DEBUGBUFFERMF?TIBBO
  +--> ?PR?_ESCRIBIRCADENASOFT_BUFFER?MAIN

?PR?_RESPONDE_REELECTURA_TARJETA_SECT...         -----    -----      -----    -----      0002H    000AH
  +--> ?CO?VERIFICADOR
  +--> ?PR?_DEBUG_TXT_TIBBO?TIBBO
  +--> ?PR?_DEBUGBUFFERMF?TIBBO
  +--> ?PR?_ARMAR_TRAMA_TARJETA_SECTOR1_BLOQ...

?PR?_ARMAR_TRAMA_TARJETA_SECTOR1_BLOQ...         -----    -----      -----    -----      000CH    0003H
  +--> ?PR?LEE_NO_TICKET?EEPROM

?PR?ANALIZA_PRESENCIA_ROTACION?VERIFI...         -----    -----      -----    -----      0002H    0001H
  +--> ?PR?VALIDASENSORESPASO?IO_SENSORES
  +--> ?PR?_SEND_PORTERR?PTO_PARALELO
  +--> ?PR?_PANTALLALCD?PANTALLAS

?PR?VALIDASENSORESPASO?IO_SENSORES               -----    -----      -----    -----      0011H    0001H
  +--> ?PR?SEL_SENSOR2?IO_SENSORES
  +--> ?PR?VALIDASENSOR?IO_SENSORES
  +--> ?PR?VALIDA_SENSOR1_AUTO?IO_SENSORES
  +--> ?CO?IO_SENSORES
  +--> ?PR?_DEBUG_TXT_TIBBO?TIBBO

?PR?INGRESO_VEHICULO?VERIFICADOR                 -----    -----      -----    -----      0002H    0001H
  +--> ?CO?VERIFICADOR
  +--> ?PR?_DEBUG_TXT_TIBBO?TIBBO
  +--> ?PR?VALIDASENSORESPASO?IO_SENSORES
  +--> ?PR?_RD_EEPROM?EEPROM
  +--> ?PR?RX_MONITOR?MONITOR
  +--> ?PR?_SEND_PORTERR?PTO_PARALELO
  +--> ?PR?_PANTALLALCD?PANTALLAS
BL51 BANKED LINKER/LOCATER V6.22.2.0                                                  09/10/2021  16:23:10  PAGE 21


  +--> ?PR?BOTTON?IO_SENSORES

?PR?RESPONDE_ESTADO_SENSORES_TRANSPOR...         -----    -----      -----    -----      0002H    0001H
  +--> ?CO?VERIFICADOR
  +--> ?PR?_DEBUG_TXT_TIBBO?TIBBO
  +--> ?PR?_SEND_PORTERR?PTO_PARALELO

?PR?RESPONDE_TIPO_TARJETA?VERIFICADOR            -----    -----      -----    -----      0002H    0001H
  +--> ?CO?VERIFICADOR
  +--> ?PR?_DEBUG_TXT_TIBBO?TIBBO
  +--> ?PR?_SEND_PORTERR?PTO_PARALELO
  +--> ?PR?_PANTALLALCD?PANTALLAS

?PR?_RESPONDE_LECTURA_TARJETA_SECTOR1...         -----    -----      -----    -----      0002H    0016H
  +--> ?CO?VERIFICADOR
  +--> ?PR?_DEBUG_TXT_TIBBO?TIBBO
  +--> ?PR?_DEBUGBUFFERMF?TIBBO
  +--> ?PR?_RD_EEPROM?EEPROM
  +--> ?PR?_DEBUG_HEXDEC?TIBBO
  +--> ?PR?_DEBUG_CHR_TIBBO?TIBBO
  +--> ?PR?_SEND_PORTERR?PTO_PARALELO
  +--> ?PR?_PANTALLALCD?PANTALLAS

?PR?_DEBUG_HEXDEC?TIBBO                          -----    -----      -----    -----      0018H    0002H
  +--> ?PR?_TX_AUX?TIBBO

?PR?_RESPONDE_LECTURA_TARJETA_SECTOR1...         -----    -----      -----    -----      0002H    0004H
  +--> ?CO?VERIFICADOR
  +--> ?PR?_DEBUG_TXT_TIBBO?TIBBO

?PR?_RESPONDE_LECTURA_TARJETA_SECTOR1...         -----    -----      -----    -----      0002H    0015H
  +--> ?CO?VERIFICADOR
  +--> ?PR?_DEBUG_TXT_TIBBO?TIBBO
  +--> ?PR?_DEBUGBUFFERMF?TIBBO
  +--> ?PR?_DEBUG_CHR_TIBBO?TIBBO

?PR?_RESPONDE_WRITE_TARJETA_SECTOR1_B...         -----    -----      -----    -----      0002H    0007H
  +--> ?CO?VERIFICADOR
  +--> ?PR?_DEBUG_TXT_TIBBO?TIBBO
  +--> ?PR?_DEBUGBUFFERMF?TIBBO
  +--> ?PR?_ARMAR_TRAMA_TARJETA_SECTOR1_BLOQ...

?PR?_RESPONDE_WRITE_TARJETA_SECTOR2_B...         -----    -----      -----    -----      0002H    0003H
  +--> ?CO?VERIFICADOR
  +--> ?PR?_DEBUG_TXT_TIBBO?TIBBO
  +--> ?PR?_DEBUGBUFFERMF?TIBBO

?PR?_RESPONDE_WRITE_TARJETA_SECTOR1_B...         -----    -----      -----    -----      0002H    0003H
  +--> ?CO?VERIFICADOR
  +--> ?PR?_DEBUG_TXT_TIBBO?TIBBO
  +--> ?PR?_DEBUGBUFFERMF?TIBBO

?PR?_RESPONDE_WRITE_TARJETA_SECTOR1_B...         -----    -----      -----    -----      0002H    0003H
  +--> ?CO?VERIFICADOR
  +--> ?PR?_DEBUG_TXT_TIBBO?TIBBO
  +--> ?PR?_DEBUGBUFFERMF?TIBBO

BL51 BANKED LINKER/LOCATER V6.22.2.0                                                  09/10/2021  16:23:10  PAGE 22


?PR?_DISPARO_LOCK_ENTRADA_VEHICULO?VE...         -----    -----      -----    -----      0002H    0004H
  +--> ?CO?VERIFICADOR
  +--> ?PR?_DEBUG_TXT_TIBBO?TIBBO
  +--> ?PR?_SEND_PORTERR?PTO_PARALELO
  +--> ?PR?_PANTALLALCD_LINEA_2?PANTALLAS
  +--> ?PR?VALIDA_SENSOR1_AUTO?IO_SENSORES
  +--> ?PR?_PANTALLALCD?PANTALLAS

?PR?_PANTALLALCD_LINEA_2?PANTALLAS               -----    -----      -----    -----      0011H    0033H
  +--> ?CO?PANTALLAS
  +--> ?PR?_LCD_TXT?PANTALLAS
  +--> ?PR?_STRLEN?STRLEN
  +--> ?PR?_TX_CHRLCD?PANTALLAS
  +--> ?PR?_RASPBERRY_DATA?PANTALLAS
  +--> ?PR?LEE_NO_TICKET?EEPROM
  +--> ?PR?_STRCAT?STRCAT

?PR?_RESPUESTA_SEGUNDA_CLAVE?VERIFICADOR         -----    -----      -----    -----      0002H    0006H
  +--> ?CO?VERIFICADOR
  +--> ?PR?_DEBUG_TXT_TIBBO?TIBBO
  +--> ?PR?_DEBUGBUFFERMF?TIBBO
  +--> ?PR?_ARMAR_TRAMA_PLACA?VERIFICADOR

?PR?_ARMAR_TRAMA_PLACA?VERIFICADOR               -----    -----      -----    -----      0008H    0004H
  +--> ?PR?_STRLEN?STRLEN
  +--> ?CO?VERIFICADOR

?PR?_ANALIZA_UID_CARD?VERIFICADOR                -----    -----      -----    -----      0002H    0015H
  +--> ?CO?VERIFICADOR
  +--> ?PR?_DEBUG_TXT_TIBBO?TIBBO
  +--> ?PR?_DEBUGBUFFERMF?TIBBO
  +--> ?PR?_DEBUG_CHR_TIBBO?TIBBO

?PR?_RECIBE_PORT?PTO_PARALELO                    -----    -----      -----    -----      0001H    0008H
  +--> ?PR?OFF_TIMER0_INTERRUP?MAIN
  +--> ?PR?ON_TIMER0_INTERRUP?MAIN

?PR?_DEBUG_PTO_PARALELO?TIBBO                    -----    -----      -----    -----      0001H    0004H
  +--> ?CO?TIBBO
  +--> ?PR?_DEBUG_TXT_TIBBO?TIBBO
  +--> ?PR?_DEBUGBUFFERMF?TIBBO
  +--> ?PR?DEBUG_DIVIDIR_TEXTO?TIBBO

?PR?_VALIDA_TRAMA_PTO?ACCESCAN                   -----    -----      -----    -----      0001H    0010H
  +--> ?CO?ACCESCAN
  +--> ?PR?_DEBUG_TXT_TIBBO?TIBBO
  +--> ?PR?_DEBUG_CHR_TIBBO?TIBBO
  +--> ?PR?_VALIDAR_CLK?CLOCK
  +--> ?PR?_BLOCK_WRITE_CLOCK_ASCII?CLOCK
  +--> ?PR?RELOJ_PANTALLA_LCD?PANTALLAS
  +--> ?PR?_SEND_PORT?PTO_PARALELO
  +--> ?PR?_PANTALLALCD?PANTALLAS
  +--> ?PR?CONFIRMACION?EEPROM
  +--> ?PR?_BYTEHEX_DECIMAL?CLOCK
  +--> ?PR?_TWO_BYTEHEX_DECIMAL?CLOCK
  +--> ?PR?VALIDASENSORESPASO?IO_SENSORES
  +--> ?PR?_CMD_LPR_SALIDA_WIEGAND?ACCESCAN
BL51 BANKED LINKER/LOCATER V6.22.2.0                                                  09/10/2021  16:23:10  PAGE 23


  +--> ?PR?_PANTALLALCD_LINEA_2?PANTALLAS
  +--> ?PR?_GRABA_SERIE?EEPROM

?PR?_BLOCK_WRITE_CLOCK_ASCII?CLOCK               -----    -----      -----    -----      0011H    0003H
  +--> ?CO?CLOCK
  +--> ?PR?_DEBUG_TXT_TIBBO?TIBBO
  +--> ?PR?_TWO_ONE?CLOCK
  +--> ?PR?_WR_CLK?CLOCK

?PR?_WR_CLK?CLOCK                                -----    -----      -----    -----      0014H    0002H
  +--> ?PR?_DELAY_20US?DELAY
  +--> ?PR?_EB_CLK?CLOCK

?PR?RELOJ_PANTALLA_LCD?PANTALLAS                 -----    -----      -----    -----      0011H    000DH
  +--> ?CO?PANTALLAS
  +--> ?PR?_BLOCK_READ_CLOCK?CLOCK
  +--> ?PR?_LCD_TXT_NUM_CHAR?PANTALLAS
  +--> ?PR?_BLOCK_READ_CLOCK_ASCII_RASBERRY?...
  +--> ?PR?_STRCAT?STRCAT
  +--> ?PR?_RASPBERRY_DATA?PANTALLAS

?PR?_BLOCK_READ_CLOCK?CLOCK                      -----    -----      -----    -----      001EH    0003H
  +--> ?PR?_LEE_CLK?CLOCK

?PR?_LCD_TXT_NUM_CHAR?PANTALLAS                  -----    -----      -----    -----      001EH    0006H
  +--> ?PR?_TX_CHRLCD?PANTALLAS

?PR?_BLOCK_READ_CLOCK_ASCII_RASBERRY?...         -----    -----      -----    -----      001EH    0003H
  +--> ?PR?_LEE_CLK?CLOCK

?PR?_CMD_LPR_SALIDA_WIEGAND?ACCESCAN             -----    -----      -----    -----      0011H    0022H
  +--> ?PR?DIR_BOARD?IO_SENSORES
  +--> ?PR?_BLOCK_READ_CLOCK_ASCII?CLOCK
  +--> ?PR?_MONITOR_CHR?ACCESCAN

?PR?_MONITOR_CHR?ACCESCAN                        -----    -----      -----    -----      0033H    0005H
  +--> ?PR?_TX_AUX?TIBBO

?PR?_GRABA_SERIE?EEPROM                          -----    -----      -----    -----      0011H    0005H
  +--> ?CO?EEPROM
  +--> ?PR?_DEBUG_TXT_TIBBO?TIBBO
  +--> ?PR?_WRITE_EEPROM_TICKET?EEPROM
  +--> ?PR?_WR_EEPROM?EEPROM

?PR?MSJ_LCD_INFORMATIVO?IO_SENSORES              -----    -----      -----    -----      0001H    0001H
  +--> ?PR?SEL_FUNCION?IO_SENSORES
  +--> ?PR?VALIDASENSOR_CERO?IO_SENSORES
  +--> ?CO?IO_SENSORES
  +--> ?PR?_DEBUG_TXT_TIBBO?TIBBO
  +--> ?PR?_DEBUG_CHR_TIBBO?TIBBO
  +--> ?PR?LOAD_AND_SEND_INFO_RELOJ?PTO_PARA...
  +--> ?PR?VALIDASENSOR?IO_SENSORES
  +--> ?PR?_DELAY_10MS?DELAY
  +--> ?PR?LOAD_AND_SEND_ID_COD?PTO_PARALELO

?PR?LOAD_AND_SEND_INFO_RELOJ?PTO_PARA...         -----    -----      -----    -----      0002H    000BH
  +--> ?PR?_BLOCK_READ_CLOCK?CLOCK
BL51 BANKED LINKER/LOCATER V6.22.2.0                                                  09/10/2021  16:23:10  PAGE 24


  +--> ?PR?_LEE_CLK?CLOCK
  +--> ?CO?PTO_PARALELO
  +--> ?PR?_DEBUG_TXT_TIBBO?TIBBO
  +--> ?PR?_DEBUGBUFFERMF?TIBBO
  +--> ?PR?DEBUG_DIVIDIR_TEXTO?TIBBO
  +--> ?PR?_SEND_PORT?PTO_PARALELO

?PR?LOAD_AND_SEND_ID_COD?PTO_PARALELO            -----    -----      -----    -----      0002H    0014H
  +--> ?PR?_RD_EEPROM?EEPROM
  +--> ?CO?PTO_PARALELO
  +--> ?PR?PRINTF?PRINTF
  +--> ?PR?_STRCAT?STRCAT
  +--> ?PR?_STRLEN?STRLEN
  +--> ?PR?_DEBUG_TXT_TIBBO?TIBBO
  +--> ?PR?_DEBUGBUFFERMF?TIBBO
  +--> ?PR?DEBUG_DIVIDIR_TEXTO?TIBBO
  +--> ?PR?_SEND_PORT?PTO_PARALELO



SYMBOL TABLE OF MODULE:  .\Objects\expedidor_v_101 (MAIN)

  VALUE           TYPE          NAME
  ----------------------------------

  -------         MODULE        MAIN
  C:0000H         SYMBOL        _ICE_DUMMY_
  X:0171H         PUBLIC        STX
  D:0080H         PUBLIC        P0
  D:0090H         PUBLIC        P1
  C:BAD8H         PUBLIC        timer0_int
  D:00B0H         PUBLIC        P3
  B:00A8H.7       PUBLIC        EA
  B:0080H.2       PUBLIC        led_err_imp
  C:BE6FH         PUBLIC        off_Timer0_Interrup
  X:0172H         PUBLIC        ValTimeOutCom
  X:0173H         PUBLIC        Buffer_Rta_Lintech
  X:01A5H         PUBLIC        Timer_wait
  B:0021H.1       PUBLIC        pto_paraleo
  X:01A6H         PUBLIC        g_cContByteRx
  B:0080H.0       PUBLIC        rx_ip
  C:A79BH         PUBLIC        main
  X:01A7H         PUBLIC        Timer_tivo
  B:0080H.3       PUBLIC        Atascado_GP0_PIN_3
  C:AFE8H         PUBLIC        variable_inicio
  B:0090H.7       PUBLIC        lock
  I:0023H         PUBLIC        rbuf
  C:BE65H         PUBLIC        on_Timer0_Interrup
  I:0055H         PUBLIC        tbuf
  B:0090H.1       PUBLIC        DataIn
  D:0089H         PUBLIC        TMOD
  X:01A9H         PUBLIC        USE_LPR
  X:01AAH         PUBLIC        Debug_Tibbo
  X:01ABH         PUBLIC        Raspberry
  X:01ACH         PUBLIC        SIN_COBRO
  X:01AEH         PUBLIC        Tipo_Vehiculo
  B:00B0H.3       PUBLIC        busy
BL51 BANKED LINKER/LOCATER V6.22.2.0                                                  09/10/2021  16:23:10  PAGE 25


  C:BDBDH         PUBLIC        ini_timer
  B:00A8H.1       PUBLIC        ET0
  X:01AFH         PUBLIC        precarga
  B:0088H.5       PUBLIC        TF0
  D:008CH         PUBLIC        TH0
  X:01B0H         PUBLIC        ACK
  X:01B1H         PUBLIC        g_cEstadoComSoft
  D:008AH         PUBLIC        TL0
  B:0088H.4       PUBLIC        TR0
  C:BDCDH         PUBLIC        inicia_board
  X:01B2H         PUBLIC        T_GRACIA
  B:0080H.7       PUBLIC        sel_com
  X:01B4H         PUBLIC        STX_LINTECH
  C:BDFCH         PUBLIC        _getkey
  X:01B5H         PUBLIC        ETX
  C:B312H         PUBLIC        _EscribirCadenaSoft_buffer
  B:0021H.2       PUBLIC        buffer_ready
  C:B630H         PUBLIC        _putchar
  B:0021H.3       PUBLIC        placa_ready
  -------         PROC          TIMER0_INT
  C:BAD8H         LINE#         17
  C:BADEH         LINE#         20
  C:BAE4H         LINE#         21
  C:BAE9H         LINE#         22
  C:BAE9H         LINE#         23
  C:BAEFH         LINE#         24
  C:BAEFH         LINE#         26
  C:BAFDH         LINE#         27
  C:BAFFH         LINE#         29
  -------         ENDPROC       TIMER0_INT
  -------         PROC          INI_TIMER
  C:BDBDH         LINE#         32
  C:BDBDH         LINE#         33
  C:BDBDH         LINE#         35
  C:BDC5H         LINE#         37
  C:BDC8H         LINE#         38
  C:BDCAH         LINE#         39
  C:BDCCH         LINE#         41
  -------         ENDPROC       INI_TIMER
  -------         PROC          ON_TIMER0_INTERRUP
  C:BE65H         LINE#         44
  C:BE65H         LINE#         45
  C:BE65H         LINE#         46
  C:BE67H         LINE#         47
  C:BE69H         LINE#         49
  -------         ENDPROC       ON_TIMER0_INTERRUP
  -------         PROC          OFF_TIMER0_INTERRUP
  C:BE6FH         LINE#         52
  C:BE6FH         LINE#         53
  C:BE6FH         LINE#         54
  C:BE71H         LINE#         56
  -------         ENDPROC       OFF_TIMER0_INTERRUP
  -------         PROC          _GETKEY
  -------         DO            
  D:0006H         SYMBOL        k
  -------         ENDDO         
  C:BDFCH         LINE#         64
BL51 BANKED LINKER/LOCATER V6.22.2.0                                                  09/10/2021  16:23:10  PAGE 26


  C:BDFCH         LINE#         65
  C:BDFCH         LINE#         69
  C:BDFCH         LINE#         70
  C:BDFFH         LINE#         71
  C:BDFFH         LINE#         72
  C:BE07H         LINE#         74
  C:BE07H         LINE#         75
  -------         ENDPROC       _GETKEY
  -------         PROC          _PUTCHAR
  X:00A7H         SYMBOL        c
  -------         DO            
  X:00A8H         SYMBOL        i
  -------         ENDDO         
  C:B630H         LINE#         79
  C:B635H         LINE#         80
  C:B635H         LINE#         83
  C:B644H         LINE#         84
  C:B644H         LINE#         85
  C:B65AH         LINE#         86
  C:B65AH         LINE#         88
  C:B668H         LINE#         89
  C:B668H         LINE#         91
  C:B66DH         LINE#         92
  -------         ENDPROC       _PUTCHAR
  -------         PROC          _ESCRIBIRCADENASOFT_BUFFER
  X:0027H         SYMBOL        buffer
  X:002AH         SYMBOL        tamano_cadena
  -------         DO            
  X:002BH         SYMBOL        i
  X:002CH         SYMBOL        d
  -------         ENDDO         
  C:B312H         LINE#         96
  C:B320H         LINE#         97
  C:B320H         LINE#         99
  C:B32EH         LINE#         100
  C:B32EH         LINE#         101
  C:B345H         LINE#         102
  C:B34FH         LINE#         103
  C:B357H         LINE#         104
  -------         ENDPROC       _ESCRIBIRCADENASOFT_BUFFER
  -------         PROC          INICIA_BOARD
  C:BDCDH         LINE#         109
  C:BDCDH         LINE#         110
  C:BDCDH         LINE#         111
  C:BDD0H         LINE#         112
  C:BDD3H         LINE#         113
  C:BDD6H         LINE#         114
  C:BDD8H         LINE#         115
  C:BDDAH         LINE#         116
  C:BDDCH         LINE#         118
  -------         ENDPROC       INICIA_BOARD
  -------         PROC          VARIABLE_INICIO
  C:AFE8H         LINE#         123
  C:AFE8H         LINE#         124
  C:AFE8H         LINE#         127
  C:AFF9H         LINE#         128
  C:B00AH         LINE#         129
BL51 BANKED LINKER/LOCATER V6.22.2.0                                                  09/10/2021  16:23:10  PAGE 27


  C:B018H         LINE#         130
  C:B026H         LINE#         131
  C:B034H         LINE#         135
  -------         ENDPROC       VARIABLE_INICIO
  -------         PROC          MAIN
  -------         DO            
  X:0148H         SYMBOL        buffer
  X:0170H         SYMBOL        Estado_Comunicacion_Secuencia_MF
  X:0000H         SYMBOL        Length_trama
  -------         ENDDO         
  C:A79BH         LINE#         143
  C:A79BH         LINE#         144
  C:A79BH         LINE#         151
  C:A79EH         LINE#         152
  C:A7A1H         LINE#         153
  C:A7A4H         LINE#         154
  C:A7A7H         LINE#         155
  C:A7AAH         LINE#         156
  C:A7ACH         LINE#         158
  C:A7AFH         LINE#         159
  C:A7B6H         LINE#         160
  C:A7B9H         LINE#         162
  C:A7BEH         LINE#         163
  C:A7C0H         LINE#         164
  C:A7C3H         LINE#         166
  C:A7C6H         LINE#         167
  C:A7C6H         LINE#         168
  C:A7C9H         LINE#         169
  C:A7C9H         LINE#         172
  C:A7CCH         LINE#         173
  C:A7D2H         LINE#         174
  C:A7D8H         LINE#         176
  C:A7D8H         LINE#         177
  C:A7D8H         LINE#         179
  C:A7DBH         LINE#         180
  C:A7DBH         LINE#         181
  C:A7DEH         LINE#         182
  C:A7DEH         LINE#         186
  C:A7EBH         LINE#         191
  C:A7F1H         LINE#         192
  C:A7F1H         LINE#         194
  C:A800H         LINE#         197
  C:A809H         LINE#         198
  C:A817H         LINE#         203
  C:A817H         LINE#         204
  C:A81AH         LINE#         207
  -------         ENDPROC       MAIN
  -------         ENDMOD        MAIN

  -------         MODULE        ACCESCAN
  C:0000H         SYMBOL        _ICE_DUMMY_
  D:0080H         PUBLIC        P0
  D:0090H         PUBLIC        P1
  D:00B0H         PUBLIC        P3
  C:B4EFH         PUBLIC        _Monitor_chr
  B:0080H.3       PUBLIC        Atascado_GP0_PIN_3
  B:0090H.7       PUBLIC        lock
BL51 BANKED LINKER/LOCATER V6.22.2.0                                                  09/10/2021  16:23:10  PAGE 28


  C:337DH         PUBLIC        _Valida_Trama_Pto
  C:8A6FH         PUBLIC        _Cmd_LPR_Salida_wiegand
  -------         PROC          _VALIDA_TRAMA_PTO
  X:0001H         SYMBOL        buffer
  X:0004H         SYMBOL        length_trama
  -------         DO            
  X:021DH         SYMBOL        cont
  X:0005H         SYMBOL        bcc
  D:0004H         SYMBOL        j
  X:0006H         SYMBOL        buff
  -------         ENDDO         
  C:337DH         LINE#         113
  C:338BH         LINE#         114
  C:338BH         LINE#         117
  C:338EH         LINE#         123
  C:33D1H         LINE#         124
  C:33D1H         LINE#         125
  C:33DAH         LINE#         126
  C:33EFH         LINE#         127
  C:33F8H         LINE#         128
  C:3405H         LINE#         129
  C:3405H         LINE#         130
  C:3421H         LINE#         131
  C:3424H         LINE#         133
  C:342DH         LINE#         134
  C:3435H         LINE#         135
  C:343EH         LINE#         136
  C:3457H         LINE#         137
  C:3457H         LINE#         139
  C:3467H         LINE#         140
  C:3467H         LINE#         141
  C:347AH         LINE#         143
  C:347DH         LINE#         145
  C:347DH         LINE#         148
  C:347DH         LINE#         150
  C:347DH         LINE#         152
  C:3483H         LINE#         153
  C:3487H         LINE#         154
  C:348BH         LINE#         155
  C:348EH         LINE#         156
  C:3499H         LINE#         158
  C:34A2H         LINE#         159
  C:34AAH         LINE#         160
  C:34B2H         LINE#         161
  C:34BAH         LINE#         162
  C:34C3H         LINE#         163
  C:34C3H         LINE#         166
  C:34C3H         LINE#         169
  C:34D5H         LINE#         170
  C:34D5H         LINE#         171
  C:34D7H         LINE#         172
  C:34DAH         LINE#         174
  C:34ECH         LINE#         175
  C:34ECH         LINE#         176
  C:34EEH         LINE#         177
  C:34F1H         LINE#         179
  C:3503H         LINE#         180
BL51 BANKED LINKER/LOCATER V6.22.2.0                                                  09/10/2021  16:23:10  PAGE 29


  C:3503H         LINE#         181
  C:3505H         LINE#         182
  C:3508H         LINE#         184
  C:3522H         LINE#         185
  C:3522H         LINE#         186
  C:3524H         LINE#         187
  C:3527H         LINE#         189
  C:3541H         LINE#         190
  C:3541H         LINE#         191
  C:3543H         LINE#         192
  C:3546H         LINE#         194
  C:3558H         LINE#         195
  C:3558H         LINE#         196
  C:355EH         LINE#         197
  C:356BH         LINE#         198
  C:356BH         LINE#         199
  C:3570H         LINE#         201
  C:3575H         LINE#         202
  C:3577H         LINE#         203
  C:3579H         LINE#         204
  C:357DH         LINE#         205
  C:357DH         LINE#         206
  C:357EH         LINE#         208
  C:3596H         LINE#         209
  C:3596H         LINE#         211
  C:35A3H         LINE#         212
  C:35A3H         LINE#         213
  C:35A5H         LINE#         214
  C:35A7H         LINE#         216
  C:35A9H         LINE#         217
  C:35A9H         LINE#         219
  C:35C4H         LINE#         220
  C:35C4H         LINE#         221
  C:35C8H         LINE#         222
  C:35CDH         LINE#         223
  C:35D6H         LINE#         224
  C:35DBH         LINE#         225
  C:35DBH         LINE#         228
  C:35DCH         LINE#         230
  C:35F6H         LINE#         231
  C:35F6H         LINE#         232
  C:35F8H         LINE#         233
  C:35FBH         LINE#         235
  C:362BH         LINE#         236
  C:362BH         LINE#         237
  C:362EH         LINE#         238
  C:362EH         LINE#         240
  C:3648H         LINE#         241
  C:3648H         LINE#         242
  C:364AH         LINE#         243
  C:364DH         LINE#         245
  C:3667H         LINE#         246
  C:3667H         LINE#         247
  C:3669H         LINE#         248
  C:366BH         LINE#         250
  C:3685H         LINE#         251
  C:3685H         LINE#         252
BL51 BANKED LINKER/LOCATER V6.22.2.0                                                  09/10/2021  16:23:10  PAGE 30


  C:3687H         LINE#         253
  C:3689H         LINE#         256
  C:36A3H         LINE#         257
  C:36A3H         LINE#         258
  C:36A5H         LINE#         259
  C:36A7H         LINE#         263
  C:36C1H         LINE#         264
  C:36C1H         LINE#         265
  C:36C3H         LINE#         266
  C:36C5H         LINE#         269
  C:36DFH         LINE#         270
  C:36DFH         LINE#         271
  C:36E4H         LINE#         272
  C:36E4H         LINE#         275
  C:3715H         LINE#         276
  C:3715H         LINE#         277
  C:371DH         LINE#         278
  C:3726H         LINE#         279
  C:3729H         LINE#         282
  C:375AH         LINE#         283
  C:375AH         LINE#         285
  C:3762H         LINE#         286
  C:376BH         LINE#         287
  C:376EH         LINE#         290
  C:37AEH         LINE#         291
  C:37AEH         LINE#         293
  C:37C3H         LINE#         294
  C:37C9H         LINE#         295
  C:37F3H         LINE#         298
  C:37FBH         LINE#         299
  C:37FBH         LINE#         302
  C:3802H         LINE#         303
  C:3802H         LINE#         304
  C:3807H         LINE#         305
  C:3807H         LINE#         306
  C:3809H         LINE#         308
  C:3809H         LINE#         309
  C:3812H         LINE#         310
  C:381AH         LINE#         311
  C:381AH         LINE#         315
  C:381CH         LINE#         318
  C:381CH         LINE#         326
  C:3824H         LINE#         330
  C:3824H         LINE#         331
  C:3826H         LINE#         333
  C:385EH         LINE#         334
  C:385EH         LINE#         335
  C:3866H         LINE#         336
  C:3872H         LINE#         337
  C:3872H         LINE#         339
  C:389FH         LINE#         340
  C:389FH         LINE#         341
  C:38AEH         LINE#         343
  C:38AEH         LINE#         345
  -------         ENDPROC       _VALIDA_TRAMA_PTO
  -------         PROC          _MONITOR_CHR
  X:0033H         SYMBOL        str
BL51 BANKED LINKER/LOCATER V6.22.2.0                                                  09/10/2021  16:23:10  PAGE 31


  X:0036H         SYMBOL        num_char
  -------         DO            
  X:0037H         SYMBOL        j
  -------         ENDDO         
  C:B4EFH         LINE#         500
  C:B4FDH         LINE#         501
  C:B4FDH         LINE#         503
  C:B50BH         LINE#         504
  C:B50BH         LINE#         505
  C:B51DH         LINE#         506
  C:B527H         LINE#         507
  C:B52FH         LINE#         508
  -------         ENDPROC       _MONITOR_CHR
  -------         PROC          _CMD_LPR_SALIDA_WIEGAND
  X:0011H         SYMBOL        buffer
  -------         DO            
  X:0014H         SYMBOL        Buffer_Lpr
  X:0032H         SYMBOL        j
  -------         ENDDO         
  C:8A6FH         LINE#         513
  C:8A7AH         LINE#         514
  C:8A7AH         LINE#         516
  C:8A80H         LINE#         517
  C:8A85H         LINE#         518
  C:8A8DH         LINE#         519
  C:8A91H         LINE#         520
  C:8A9AH         LINE#         521
  C:8A9AH         LINE#         522
  C:8AABH         LINE#         523
  C:8AADH         LINE#         525
  C:8AADH         LINE#         526
  C:8ABEH         LINE#         527
  C:8ABEH         LINE#         531
  C:8AD5H         LINE#         532
  C:8AD5H         LINE#         533
  C:8AE4H         LINE#         534
  C:8AEEH         LINE#         536
  C:8AF6H         LINE#         537
  C:8B0AH         LINE#         539
  C:8B1AH         LINE#         540
  C:8B2BH         LINE#         541
  C:8B38H         LINE#         545
  -------         ENDPROC       _CMD_LPR_SALIDA_WIEGAND
  -------         ENDMOD        ACCESCAN

  -------         MODULE        CLOCK
  C:0000H         SYMBOL        _ICE_DUMMY_
  C:B564H         PUBLIC        _two_one
  D:0090H         PUBLIC        P1
  C:75AAH         PUBLIC        _validar_clk
  C:BB5AH         PUBLIC        _wr_clk
  C:8CDBH         PUBLIC        _check_fechaOut
  C:60FDH         PUBLIC        _Block_read_clock_ascii_rasberry
  B:00D0H.7       PUBLIC        CY
  C:0003H         PUBLIC        p_ck
  C:9DEDH         PUBLIC        _hex_ascii
  C:AB12H         PUBLIC        _hora_entrada_vehiculo
BL51 BANKED LINKER/LOCATER V6.22.2.0                                                  09/10/2021  16:23:10  PAGE 32


  X:021EH         PUBLIC        data_clk
  C:BE27H         PUBLIC        cond_ini_clock
  C:8DA4H         PUBLIC        _Block_read_Clock
  B:0090H.4       PUBLIC        sck
  C:97BEH         PUBLIC        _Block_read_Clock_Hex
  C:6478H         PUBLIC        _Block_read_clock_ascii
  C:B706H         PUBLIC        _hex_bcd
  C:BC93H         PUBLIC        _bcd_hex
  C:AD28H         PUBLIC        _ByteHex_Decimal
  C:9F19H         PUBLIC        _lee_clk
  B:0090H.5       PUBLIC        io
  C:99ABH         PUBLIC        _Block_write_clock_ascii
  B:0090H.6       PUBLIC        rst
  C:B5F1H         PUBLIC        _eb_clk
  C:45D0H         PUBLIC        _Two_ByteHex_Decimal
  -------         PROC          P_CK
  C:0003H         LINE#         69
  C:0003H         LINE#         70
  C:0003H         LINE#         71
  C:0005H         LINE#         72
  C:0008H         LINE#         73
  C:000AH         LINE#         74
  -------         ENDPROC       P_CK
  -------         PROC          _EB_CLK
  X:00B4H         SYMBOL        dir_clk
  -------         DO            
  X:00B5H         SYMBOL        nbits
  -------         ENDDO         
  C:B5F1H         LINE#         76
  C:B5F6H         LINE#         78
  C:B5FBH         LINE#         79
  C:B5FBH         LINE#         80
  C:B604H         LINE#         81
  C:B607H         LINE#         82
  C:B607H         LINE#         83
  C:B609H         LINE#         84
  C:B60BH         LINE#         86
  C:B60BH         LINE#         87
  C:B60DH         LINE#         88
  C:B60DH         LINE#         89
  C:B610H         LINE#         90
  C:B62FH         LINE#         91
  -------         ENDPROC       _EB_CLK
  C:9F0FH         SYMBOL        L?0084
  -------         PROC          L?0083
  -------         ENDPROC       L?0083
  C:9F0FH         SYMBOL        L?0084
  -------         PROC          _LEE_CLK
  X:00B1H         SYMBOL        dir_clk
  -------         DO            
  X:00B2H         SYMBOL        nbits
  -------         ENDDO         
  C:9F19H         LINE#         93
  C:9F1EH         LINE#         95
  C:9F20H         LINE#         96
  C:9F27H         LINE#         97
  C:9F2FH         LINE#         98
BL51 BANKED LINKER/LOCATER V6.22.2.0                                                  09/10/2021  16:23:10  PAGE 33


  C:9F48H         LINE#         99
  C:9F48H         LINE#         100
  C:9F4BH         LINE#         101
  C:9F4BH         LINE#         102
  C:9F52H         LINE#         103
  C:9F5CH         LINE#         104
  C:9F61H         LINE#         105
  C:9F61H         LINE#         106
  C:9F61H         LINE#         107
  C:9F64H         LINE#         108
  C:9F64H         LINE#         109
  C:9F6BH         LINE#         110
  C:9F7CH         LINE#         111
  C:9F7CH         LINE#         112
  C:9F84H         LINE#         113
  C:9F84H         LINE#         114
  C:9F84H         LINE#         115
  C:9F87H         LINE#         116
  C:9F97H         LINE#         117
  C:9F99H         LINE#         118
  C:9F9EH         LINE#         119
  -------         ENDPROC       _LEE_CLK
  -------         PROC          _WR_CLK
  X:0014H         SYMBOL        dir_clk
  X:0015H         SYMBOL        byte
  C:BB5AH         LINE#         121
  C:BB62H         LINE#         122
  C:BB64H         LINE#         123
  C:BB6BH         LINE#         124
  C:BB73H         LINE#         125
  C:BB7CH         LINE#         126
  C:BB7FH         LINE#         127
  C:BB81H         LINE#         129
  -------         ENDPROC       _WR_CLK
  C:B530H         SYMBOL        L?0079
  C:B54EH         SYMBOL        L?0080
  -------         PROC          L?0078
  -------         ENDPROC       L?0078
  C:B530H         SYMBOL        L?0079
  C:B54EH         SYMBOL        L?0080
  -------         PROC          _TWO_ONE
  D:0007H         SYMBOL        byte_h
  D:0005H         SYMBOL        byte_l
  -------         DO            
  D:0007H         SYMBOL        byte_out
  -------         ENDDO         
  C:B564H         LINE#         131
  C:B564H         LINE#         132
  C:B564H         LINE#         134
  C:B567H         LINE#         135
  C:B56BH         LINE#         136
  C:B56EH         LINE#         137
  C:B570H         LINE#         138
  C:B570H         LINE#         139
  -------         ENDPROC       _TWO_ONE
  -------         PROC          _VALIDAR_CLK
  D:0001H         SYMBOL        datos_clock
BL51 BANKED LINKER/LOCATER V6.22.2.0                                                  09/10/2021  16:23:10  PAGE 34


  -------         DO            
  D:0007H         SYMBOL        validador
  -------         ENDDO         
  C:75AAH         LINE#         143
  C:75AAH         LINE#         144
  C:75AAH         LINE#         145
  C:75ACH         LINE#         148
  C:75C1H         LINE#         149
  C:75C1H         LINE#         151
  C:75D9H         LINE#         152
  C:75D9H         LINE#         154
  C:75F1H         LINE#         155
  C:75F1H         LINE#         156
  C:7609H         LINE#         157
  C:7609H         LINE#         158
  C:7621H         LINE#         159
  C:7621H         LINE#         160
  C:7636H         LINE#         161
  C:7636H         LINE#         162
  C:7648H         LINE#         163
  C:7648H         LINE#         164
  C:765AH         LINE#         165
  C:765AH         LINE#         166
  C:766CH         LINE#         167
  C:766CH         LINE#         168
  C:767EH         LINE#         169
  C:767EH         LINE#         170
  C:7690H         LINE#         171
  C:7690H         LINE#         172
  C:76A0H         LINE#         173
  C:76A0H         LINE#         174
  C:76A0H         LINE#         175
  C:76A0H         LINE#         176
  C:76A1H         LINE#         178
  C:76A1H         LINE#         179
  C:76A3H         LINE#         180
  C:76A3H         LINE#         181
  C:76A4H         LINE#         183
  C:76A4H         LINE#         184
  C:76A6H         LINE#         186
  C:76A6H         LINE#         187
  C:76A7H         LINE#         189
  C:76A7H         LINE#         190
  C:76A9H         LINE#         192
  C:76A9H         LINE#         194
  C:76AAH         LINE#         196
  C:76AAH         LINE#         197
  C:76ACH         LINE#         199
  C:76ACH         LINE#         200
  C:76ADH         LINE#         202
  C:76ADH         LINE#         203
  C:76AFH         LINE#         205
  C:76AFH         LINE#         206
  C:76B0H         LINE#         208
  C:76B0H         LINE#         209
  C:76B2H         LINE#         211
  C:76B2H         LINE#         212
BL51 BANKED LINKER/LOCATER V6.22.2.0                                                  09/10/2021  16:23:10  PAGE 35


  C:76B3H         LINE#         214
  C:76B3H         LINE#         215
  C:76B5H         LINE#         217
  C:76B5H         LINE#         218
  C:76B5H         LINE#         220
  C:76B6H         LINE#         222
  C:76B6H         LINE#         223
  C:76B8H         LINE#         225
  C:76B8H         LINE#         227
  C:76B9H         LINE#         230
  C:76B9H         LINE#         231
  C:76BBH         LINE#         233
  C:76BBH         LINE#         235
  C:76BCH         LINE#         238
  C:76BCH         LINE#         239
  C:76BEH         LINE#         241
  C:76BEH         LINE#         243
  C:76BEH         LINE#         245
  -------         ENDPROC       _VALIDAR_CLK
  -------         PROC          _BLOCK_WRITE_CLOCK_ASCII
  X:0011H         SYMBOL        datos_clock
  -------         DO            
  D:0007H         SYMBOL        temp
  -------         ENDDO         
  C:99ABH         LINE#         251
  C:99B6H         LINE#         253
  C:99B6H         LINE#         256
  C:99BFH         LINE#         257
  C:99C8H         LINE#         259
  C:99D2H         LINE#         260
  C:99D2H         LINE#         261
  C:99D2H         LINE#         262
  C:99D2H         LINE#         264
  C:99DCH         LINE#         265
  C:99E6H         LINE#         266
  C:99F0H         LINE#         267
  C:99F0H         LINE#         268
  C:99F0H         LINE#         269
  C:99F0H         LINE#         271
  C:99FAH         LINE#         272
  C:99FAH         LINE#         273
  C:99FAH         LINE#         274
  C:99FAH         LINE#         276
  C:9A04H         LINE#         277
  C:9A04H         LINE#         278
  C:9A04H         LINE#         279
  C:9A04H         LINE#         281
  C:9A0EH         LINE#         282
  C:9A0EH         LINE#         283
  C:9A0EH         LINE#         284
  C:9A0EH         LINE#         286
  C:9A18H         LINE#         287
  C:9A22H         LINE#         288
  C:9A2CH         LINE#         289
  C:9A36H         LINE#         291
  C:9A46H         LINE#         292
  -------         ENDPROC       _BLOCK_WRITE_CLOCK_ASCII
BL51 BANKED LINKER/LOCATER V6.22.2.0                                                  09/10/2021  16:23:10  PAGE 36


  -------         PROC          _BCD_HEX
  D:0007H         SYMBOL        l_data
  -------         DO            
  D:0006H         SYMBOL        temp
  D:0005H         SYMBOL        j
  -------         ENDDO         
  C:BC93H         LINE#         298
  C:BC93H         LINE#         299
  C:BC93H         LINE#         301
  C:BC95H         LINE#         302
  C:BC99H         LINE#         303
  C:BC9CH         LINE#         304
  C:BC9EH         LINE#         305
  C:BC9EH         LINE#         306
  C:BCA2H         LINE#         307
  C:BCA9H         LINE#         308
  C:BCA9H         LINE#         309
  C:BCADH         LINE#         310
  C:BCB0H         LINE#         311
  C:BCB0H         LINE#         312
  C:BCB0H         LINE#         313
  -------         ENDPROC       _BCD_HEX
  C:B6F7H         SYMBOL        L?0082
  -------         PROC          L?0081
  -------         ENDPROC       L?0081
  C:B6F7H         SYMBOL        L?0082
  -------         PROC          _HEX_BCD
  D:0007H         SYMBOL        byte
  -------         DO            
  D:0006H         SYMBOL        nibble_h
  D:0005H         SYMBOL        nibble_l
  D:0004H         SYMBOL        k
  D:0007H         SYMBOL        byte_out
  -------         ENDDO         
  C:B706H         LINE#         317
  C:B706H         LINE#         318
  C:B706H         LINE#         323
  C:B708H         LINE#         324
  C:B709H         LINE#         326
  C:B70FH         LINE#         327
  C:B70FH         LINE#         328
  C:B710H         LINE#         329
  C:B715H         LINE#         330
  C:B715H         LINE#         331
  C:B716H         LINE#         332
  C:B717H         LINE#         333
  C:B717H         LINE#         334
  C:B71AH         LINE#         335
  C:B71EH         LINE#         336
  C:B721H         LINE#         337
  C:B724H         LINE#         338
  C:B726H         LINE#         339
  C:B726H         LINE#         341
  -------         ENDPROC       _HEX_BCD
  -------         PROC          _HEX_ASCII
  X:005DH         SYMBOL        datos
  X:0060H         SYMBOL        fecha_asii
BL51 BANKED LINKER/LOCATER V6.22.2.0                                                  09/10/2021  16:23:10  PAGE 37


  -------         DO            
  D:0007H         SYMBOL        dato
  -------         ENDDO         
  C:9DEDH         LINE#         342
  C:9DF8H         LINE#         343
  C:9DF8H         LINE#         347
  C:9DFBH         LINE#         348
  C:9E13H         LINE#         349
  C:9E28H         LINE#         350
  C:9E28H         LINE#         352
  C:9E2BH         LINE#         353
  C:9E46H         LINE#         354
  C:9E4EH         LINE#         355
  C:9E4EH         LINE#         357
  C:9E51H         LINE#         358
  C:9E6CH         LINE#         359
  C:9E77H         LINE#         361
  -------         ENDPROC       _HEX_ASCII
  -------         PROC          _BYTEHEX_DECIMAL
  D:0001H         SYMBOL        buffer
  D:0005H         SYMBOL        valorhex
  -------         DO            
  X:0018H         SYMBOL        numero
  D:0007H         SYMBOL        centena
  D:0006H         SYMBOL        decena
  -------         ENDDO         
  C:AD28H         LINE#         369
  C:AD28H         LINE#         370
  C:AD28H         LINE#         373
  C:AD2AH         LINE#         374
  C:AD2BH         LINE#         375
  C:AD30H         LINE#         377
  C:AD3DH         LINE#         378
  C:AD3DH         LINE#         379
  C:AD41H         LINE#         380
  C:AD42H         LINE#         381
  C:AD44H         LINE#         382
  C:AD4AH         LINE#         383
  C:AD51H         LINE#         384
  C:AD5EH         LINE#         385
  C:AD5EH         LINE#         386
  C:AD62H         LINE#         387
  C:AD63H         LINE#         388
  C:AD65H         LINE#         389
  C:AD6BH         LINE#         390
  C:AD72H         LINE#         391
  C:AD7BH         LINE#         392
  C:AD82H         LINE#         393
  -------         ENDPROC       _BYTEHEX_DECIMAL
  -------         PROC          _TWO_BYTEHEX_DECIMAL
  X:0018H         SYMBOL        buffer
  X:001BH         SYMBOL        id_h
  X:001CH         SYMBOL        id_l
  -------         DO            
  X:001DH         SYMBOL        valor
  D:0006H         SYMBOL        numero
  X:001FH         SYMBOL        temp
BL51 BANKED LINKER/LOCATER V6.22.2.0                                                  09/10/2021  16:23:10  PAGE 38


  X:0020H         SYMBOL        dmil
  X:0021H         SYMBOL        mil
  X:0022H         SYMBOL        centena
  X:0023H         SYMBOL        decena
  -------         ENDDO         
  C:45D0H         LINE#         400
  C:45DEH         LINE#         401
  C:45DEH         LINE#         405
  C:45E5H         LINE#         406
  C:45E9H         LINE#         407
  C:45EBH         LINE#         408
  C:45EDH         LINE#         409
  C:45EFH         LINE#         412
  C:45F4H         LINE#         413
  C:45F7H         LINE#         414
  C:45FDH         LINE#         416
  C:4658H         LINE#         417
  C:4660H         LINE#         418
  C:4663H         LINE#         419
  C:46BEH         LINE#         421
  C:46C6H         LINE#         422
  C:46C9H         LINE#         423
  C:46CFH         LINE#         424
  C:472AH         LINE#         425
  C:4732H         LINE#         426
  C:4735H         LINE#         427
  C:4790H         LINE#         428
  C:4790H         LINE#         430
  C:4799H         LINE#         431
  C:4799H         LINE#         432
  C:47A1H         LINE#         433
  C:47A7H         LINE#         434
  C:47A9H         LINE#         435
  C:47BFH         LINE#         436
  C:47C9H         LINE#         437
  C:47D2H         LINE#         438
  C:47D2H         LINE#         439
  C:47DAH         LINE#         440
  C:47E0H         LINE#         441
  C:47E2H         LINE#         442
  C:47F8H         LINE#         443
  C:4802H         LINE#         444
  C:480BH         LINE#         445
  C:480BH         LINE#         446
  C:4813H         LINE#         447
  C:4819H         LINE#         448
  C:481BH         LINE#         449
  C:4831H         LINE#         450
  C:483BH         LINE#         451
  C:4844H         LINE#         452
  C:4844H         LINE#         453
  C:484CH         LINE#         454
  C:4852H         LINE#         455
  C:4854H         LINE#         456
  C:486AH         LINE#         457
  C:4874H         LINE#         458
  C:4887H         LINE#         459
BL51 BANKED LINKER/LOCATER V6.22.2.0                                                  09/10/2021  16:23:10  PAGE 39


  C:4891H         LINE#         460
  -------         ENDPROC       _TWO_BYTEHEX_DECIMAL
  -------         PROC          _BLOCK_READ_CLOCK_ASCII
  X:0051H         SYMBOL        datos_clock
  -------         DO            
  D:0007H         SYMBOL        dato
  -------         ENDDO         
  C:6478H         LINE#         466
  C:647BH         LINE#         467
  C:647BH         LINE#         473
  C:647EH         LINE#         474
  C:6496H         LINE#         475
  C:64A0H         LINE#         476
  C:64B5H         LINE#         477
  C:64BFH         LINE#         480
  C:64C4H         LINE#         481
  C:64DCH         LINE#         482
  C:64E6H         LINE#         483
  C:64FBH         LINE#         484
  C:6505H         LINE#         487
  C:650AH         LINE#         488
  C:6522H         LINE#         489
  C:652CH         LINE#         490
  C:6541H         LINE#         491
  C:654BH         LINE#         495
  C:6550H         LINE#         496
  C:6568H         LINE#         497
  C:6572H         LINE#         498
  C:6587H         LINE#         499
  C:6591H         LINE#         502
  C:6596H         LINE#         503
  C:65AEH         LINE#         504
  C:65B8H         LINE#         505
  C:65CDH         LINE#         506
  C:65D7H         LINE#         507
  -------         ENDPROC       _BLOCK_READ_CLOCK_ASCII
  -------         PROC          _BLOCK_READ_CLOCK_ASCII_RASBERRY
  X:001EH         SYMBOL        datos_clock
  -------         DO            
  D:0007H         SYMBOL        dato
  -------         ENDDO         
  C:60FDH         LINE#         510
  C:6108H         LINE#         511
  C:6108H         LINE#         516
  C:610DH         LINE#         517
  C:6125H         LINE#         518
  C:612FH         LINE#         519
  C:6144H         LINE#         520
  C:614EH         LINE#         523
  C:6153H         LINE#         524
  C:616BH         LINE#         525
  C:6175H         LINE#         526
  C:618AH         LINE#         527
  C:6194H         LINE#         531
  C:6199H         LINE#         532
  C:61B1H         LINE#         533
  C:61BBH         LINE#         534
BL51 BANKED LINKER/LOCATER V6.22.2.0                                                  09/10/2021  16:23:10  PAGE 40


  C:61D0H         LINE#         535
  C:61DAH         LINE#         540
  C:61DFH         LINE#         541
  C:61F7H         LINE#         542
  C:6201H         LINE#         543
  C:6216H         LINE#         544
  C:6220H         LINE#         547
  C:6225H         LINE#         548
  C:623DH         LINE#         549
  C:6247H         LINE#         550
  C:625CH         LINE#         551
  C:6266H         LINE#         552
  C:6276H         LINE#         553
  C:6280H         LINE#         556
  C:6285H         LINE#         557
  C:629DH         LINE#         558
  C:62A7H         LINE#         559
  C:62BCH         LINE#         561
  C:62C6H         LINE#         562
  -------         ENDPROC       _BLOCK_READ_CLOCK_ASCII_RASBERRY
  -------         PROC          _BLOCK_READ_CLOCK_HEX
  X:00AEH         SYMBOL        datos_clock
  C:97BEH         LINE#         566
  C:97C1H         LINE#         567
  C:97C1H         LINE#         570
  C:97D6H         LINE#         571
  C:97E0H         LINE#         573
  C:97F7H         LINE#         574
  C:9801H         LINE#         576
  C:9818H         LINE#         577
  C:9822H         LINE#         579
  C:9839H         LINE#         580
  C:9843H         LINE#         582
  C:985AH         LINE#         583
  -------         ENDPROC       _BLOCK_READ_CLOCK_HEX
  -------         PROC          _HORA_ENTRADA_VEHICULO
  X:0009H         SYMBOL        Atributos_Expedidor
  C:AB12H         LINE#         586
  C:AB15H         LINE#         587
  C:AB15H         LINE#         589
  C:AB2AH         LINE#         590
  C:AB41H         LINE#         591
  C:AB58H         LINE#         592
  C:AB6FH         LINE#         593
  -------         ENDPROC       _HORA_ENTRADA_VEHICULO
  -------         PROC          _BLOCK_READ_CLOCK
  X:001EH         SYMBOL        datos_clock
  C:8DA4H         LINE#         599
  C:8DA7H         LINE#         600
  C:8DA7H         LINE#         602
  C:8DB9H         LINE#         603
  C:8DC3H         LINE#         605
  C:8DD7H         LINE#         606
  C:8DE1H         LINE#         608
  C:8DF5H         LINE#         609
  C:8DFFH         LINE#         611
  C:8E13H         LINE#         612
BL51 BANKED LINKER/LOCATER V6.22.2.0                                                  09/10/2021  16:23:10  PAGE 41


  C:8E1DH         LINE#         614
  C:8E31H         LINE#         615
  C:8E3BH         LINE#         617
  C:8E4FH         LINE#         618
  C:8E59H         LINE#         619
  -------         ENDPROC       _BLOCK_READ_CLOCK
  -------         PROC          COND_INI_CLOCK
  C:BE27H         LINE#         622
  C:BE27H         LINE#         623
  C:BE27H         LINE#         624
  C:BE29H         LINE#         625
  C:BE2BH         LINE#         626
  C:BE2DH         LINE#         627
  -------         ENDPROC       COND_INI_CLOCK
  -------         PROC          _CHECK_FECHAOUT
  X:009CH         SYMBOL        buffer
  -------         DO            
  X:009FH         SYMBOL        fecha_inicio
  X:00A3H         SYMBOL        fecha_fin
  X:00A7H         SYMBOL        datos_clk
  X:00ADH         SYMBOL        temp
  -------         ENDDO         
  C:8CDBH         LINE#         637
  C:8CE6H         LINE#         638
  C:8CE6H         LINE#         644
  C:8CEFH         LINE#         645
  C:8D1EH         LINE#         646
  C:8D71H         LINE#         649
  C:8D91H         LINE#         650
  C:8D91H         LINE#         651
  C:8D97H         LINE#         652
  C:8D99H         LINE#         654
  C:8D99H         LINE#         655
  C:8D9EH         LINE#         656
  C:8D9EH         LINE#         660
  C:8DA3H         LINE#         661
  -------         ENDPROC       _CHECK_FECHAOUT
  -------         ENDMOD        CLOCK

  -------         MODULE        DELAY
  C:0000H         SYMBOL        _ICE_DUMMY_
  C:B890H         PUBLIC        _Delay_10ms
  C:BD51H         PUBLIC        _Delay_20us
  C:BCB1H         PUBLIC        _Delay_1ms
  C:BE72H         PUBLIC        Delay
  -------         PROC          _DELAY_20US
  D:0006H         SYMBOL        cntd_us
  -------         DO            
  D:0004H         SYMBOL        i
  -------         ENDDO         
  C:BD51H         LINE#         20
  C:BD51H         LINE#         21
  C:BD51H         LINE#         24
  C:BD5BH         LINE#         26
  C:BD62H         LINE#         27
  -------         ENDPROC       _DELAY_20US
  -------         PROC          _DELAY_1MS
BL51 BANKED LINKER/LOCATER V6.22.2.0                                                  09/10/2021  16:23:10  PAGE 42


  D:0002H         SYMBOL        cntd_ms
  -------         DO            
  D:0082H         SYMBOL        i
  -------         ENDDO         
  C:BCB1H         LINE#         38
  C:BCB5H         LINE#         39
  C:BCB5H         LINE#         41
  C:BCCBH         LINE#         42
  -------         ENDPROC       _DELAY_1MS
  -------         PROC          _DELAY_10MS
  X:0017H         SYMBOL        cntd_10ms
  -------         DO            
  X:0019H         SYMBOL        i
  -------         ENDDO         
  C:B890H         LINE#         54
  C:B898H         LINE#         55
  C:B898H         LINE#         57
  C:B8C9H         LINE#         58
  -------         ENDPROC       _DELAY_10MS
  -------         PROC          DELAY
  C:BE72H         LINE#         60
  C:BE72H         LINE#         62
  -------         ENDPROC       DELAY
  -------         ENDMOD        DELAY

  -------         MODULE        EEPROM
  C:0000H         SYMBOL        _ICE_DUMMY_
  C:B7DEH         PUBLIC        confirmacion
  D:0090H         PUBLIC        P1
  C:81A0H         PUBLIC        _Write_EEprom_Ticket
  C:AB86H         PUBLIC        _EscribirMemoria
  X:0212H         PUBLIC        l_chr
  C:BC37H         PUBLIC        ackd
  B:0021H.6       PUBLIC        memory_flag
  B:00D0H.7       PUBLIC        CY
  C:BE5FH         PUBLIC        p_me
  C:BD6BH         PUBLIC        start
  B:0090H.2       PUBLIC        sda
  C:BC57H         PUBLIC        ack_lect
  B:0090H.3       PUBLIC        scl
  C:B72BH         PUBLIC        _rd_eeprom
  C:BE14H         PUBLIC        stop
  C:AE9BH         PUBLIC        Formato_eeprom
  X:0213H         PUBLIC        l_data_eeprom
  C:AF09H         PUBLIC        _wr_eeprom
  C:AC60H         PUBLIC        _LeerMemoria
  C:B9DFH         PUBLIC        Incremente_Ticket
  X:0214H         PUBLIC        byte_rd
  C:8C11H         PUBLIC        Read_EEprom_Ticket
  C:BBCFH         PUBLIC        _e_d_m
  C:8B45H         PUBLIC        _graba_serie
  C:B082H         PUBLIC        Lee_No_Ticket
  C:B035H         PUBLIC        l_d_m
  -------         PROC          L?0069
  -------         ENDPROC       L?0069
  -------         PROC          ACKD
  -------         DO            
BL51 BANKED LINKER/LOCATER V6.22.2.0                                                  09/10/2021  16:23:10  PAGE 43


  D:0006H         SYMBOL        i
  -------         ENDDO         
  C:BC37H         LINE#         41
  C:BC37H         LINE#         42
  C:BC37H         LINE#         44
  C:BC39H         LINE#         45
  C:BC3BH         LINE#         46
  C:BC3DH         LINE#         47
  C:BC40H         LINE#         48
  C:BC40H         LINE#         49
  C:BC43H         LINE#         50
  C:BC43H         LINE#         51
  C:BC45H         LINE#         52
  C:BC47H         LINE#         54
  C:BC48H         LINE#         55
  C:BC48H         LINE#         56
  C:BC53H         LINE#         58
  C:BC53H         LINE#         59
  C:BC53H         LINE#         61
  C:BC53H         LINE#         62
  -------         ENDPROC       ACKD
  -------         PROC          L?0073
  -------         ENDPROC       L?0073
  -------         PROC          ACK_LECT
  -------         DO            
  D:0006H         SYMBOL        i
  -------         ENDDO         
  C:BC57H         LINE#         65
  C:BC57H         LINE#         66
  C:BC57H         LINE#         68
  C:BC59H         LINE#         69
  C:BC5BH         LINE#         70
  C:BC5DH         LINE#         71
  C:BC60H         LINE#         72
  C:BC60H         LINE#         73
  C:BC63H         LINE#         74
  C:BC63H         LINE#         75
  C:BC65H         LINE#         76
  C:BC67H         LINE#         77
  C:BC68H         LINE#         78
  C:BC68H         LINE#         79
  C:BC73H         LINE#         80
  -------         ENDPROC       ACK_LECT
  -------         PROC          P_ME
  C:BE5FH         LINE#         82
  C:BE5FH         LINE#         83
  C:BE5FH         LINE#         84
  C:BE61H         LINE#         85
  C:BE62H         LINE#         86
  C:BE64H         LINE#         87
  -------         ENDPROC       P_ME
  -------         PROC          _E_D_M
  D:0007H         SYMBOL        a_serial_eeprom
  -------         DO            
  D:0006H         SYMBOL        nbits
  -------         ENDDO         
  C:BBCFH         LINE#         89
BL51 BANKED LINKER/LOCATER V6.22.2.0                                                  09/10/2021  16:23:10  PAGE 44


  C:BBCFH         LINE#         90
  C:BBCFH         LINE#         92
  C:BBDBH         LINE#         93
  C:BBDBH         LINE#         94
  C:BBDFH         LINE#         95
  C:BBE2H         LINE#         96
  C:BBE2H         LINE#         97
  C:BBE4H         LINE#         98
  C:BBE6H         LINE#         100
  C:BBE6H         LINE#         101
  C:BBE8H         LINE#         102
  C:BBE8H         LINE#         103
  C:BBEAH         LINE#         104
  C:BBEDH         LINE#         105
  C:BBF0H         LINE#         107
  -------         ENDPROC       _E_D_M
  -------         PROC          L?0070
  -------         ENDPROC       L?0070
  -------         PROC          START
  C:BD6BH         LINE#         109
  C:BD6BH         LINE#         110
  C:BD6BH         LINE#         111
  C:BD6DH         LINE#         112
  C:BD6FH         LINE#         113
  C:BD70H         LINE#         114
  C:BD72H         LINE#         115
  C:BD74H         LINE#         117
  -------         ENDPROC       START
  -------         PROC          STOP
  C:BE14H         LINE#         119
  C:BE14H         LINE#         120
  C:BE14H         LINE#         121
  C:BE16H         LINE#         122
  C:BE18H         LINE#         123
  C:BE19H         LINE#         124
  C:BE1BH         LINE#         125
  C:BE1DH         LINE#         127
  -------         ENDPROC       STOP
  -------         PROC          L_D_M
  -------         DO            
  D:0003H         SYMBOL        nbits
  -------         ENDDO         
  C:B035H         LINE#         129
  C:B035H         LINE#         130
  C:B035H         LINE#         132
  C:B042H         LINE#         133
  C:B042H         LINE#         134
  C:B044H         LINE#         135
  C:B047H         LINE#         136
  C:B047H         LINE#         137
  C:B04EH         LINE#         138
  C:B057H         LINE#         139
  C:B057H         LINE#         140
  C:B05BH         LINE#         141
  C:B05DH         LINE#         142
  C:B05DH         LINE#         143
  C:B05DH         LINE#         144
BL51 BANKED LINKER/LOCATER V6.22.2.0                                                  09/10/2021  16:23:10  PAGE 45


  C:B060H         LINE#         145
  C:B060H         LINE#         146
  C:B067H         LINE#         147
  C:B071H         LINE#         148
  C:B071H         LINE#         149
  C:B075H         LINE#         150
  C:B077H         LINE#         151
  C:B077H         LINE#         152
  C:B077H         LINE#         153
  C:B07AH         LINE#         154
  C:B07CH         LINE#         155
  C:B081H         LINE#         156
  -------         ENDPROC       L_D_M
  -------         PROC          L?0068
  -------         ENDPROC       L?0068
  -------         PROC          _WR_EEPROM
  D:0002H         SYMBOL        control
  D:0004H         SYMBOL        Dir
  D:0003H         SYMBOL        data_eeprom
  -------         DO            
  D:0005H         SYMBOL        dir_h
  D:0001H         SYMBOL        dir_l
  -------         ENDDO         
  C:AF09H         LINE#         162
  C:AF0BH         LINE#         163
  C:AF0BH         LINE#         165
  C:AF0FH         LINE#         166
  C:AF0FH         LINE#         167
  C:AF0FH         LINE#         170
  C:AF0FH         LINE#         171
  C:AF0FH         LINE#         173
  C:AF12H         LINE#         174
  C:AF14H         LINE#         175
  C:AF17H         LINE#         176
  C:AF19H         LINE#         177
  C:AF1CH         LINE#         178
  C:AF21H         LINE#         179
  C:AF24H         LINE#         180
  C:AF29H         LINE#         181
  C:AF2CH         LINE#         182
  C:AF2FH         LINE#         183
  C:AF36H         LINE#         185
  C:AF38H         LINE#         186
  C:AF3AH         LINE#         187
  C:AF41H         LINE#         188
  -------         ENDPROC       _WR_EEPROM
  C:B727H         SYMBOL        L?0072
  -------         PROC          L?0071
  -------         ENDPROC       L?0071
  C:B727H         SYMBOL        L?0072
  -------         PROC          _RD_EEPROM
  D:0003H         SYMBOL        control
  D:0004H         SYMBOL        Dir
  -------         DO            
  D:0005H         SYMBOL        dir_h
  D:0002H         SYMBOL        dir_l
  -------         ENDDO         
BL51 BANKED LINKER/LOCATER V6.22.2.0                                                  09/10/2021  16:23:10  PAGE 46


  C:B72BH         LINE#         226
  C:B72DH         LINE#         227
  C:B72DH         LINE#         230
  C:B731H         LINE#         231
  C:B731H         LINE#         232
  C:B731H         LINE#         234
  C:B731H         LINE#         235
  C:B731H         LINE#         237
  C:B734H         LINE#         238
  C:B736H         LINE#         239
  C:B739H         LINE#         240
  C:B73BH         LINE#         241
  C:B73EH         LINE#         242
  C:B743H         LINE#         243
  C:B746H         LINE#         244
  C:B749H         LINE#         245
  C:B74FH         LINE#         246
  C:B752H         LINE#         247
  C:B754H         LINE#         248
  C:B757H         LINE#         249
  C:B75AH         LINE#         250
  C:B75CH         LINE#         251
  C:B75EH         LINE#         252
  C:B763H         LINE#         253
  -------         ENDPROC       _RD_EEPROM
  -------         PROC          _GRABA_SERIE
  X:0011H         SYMBOL        buffer
  -------         DO            
  X:0014H         SYMBOL        j
  X:0015H         SYMBOL        error
  -------         ENDDO         
  C:8B45H         LINE#         260
  C:8B50H         LINE#         261
  C:8B50H         LINE#         264
  C:8B55H         LINE#         269
  C:8B67H         LINE#         271
  C:8B7AH         LINE#         272
  C:8B7AH         LINE#         273
  C:8BA3H         LINE#         274
  C:8BA3H         LINE#         275
  C:8BA9H         LINE#         277
  C:8BB2H         LINE#         278
  C:8BC0H         LINE#         279
  C:8BC9H         LINE#         280
  C:8BC9H         LINE#         282
  C:8BD1H         LINE#         286
  C:8BD7H         LINE#         287
  C:8BD7H         LINE#         288
  C:8BE5H         LINE#         290
  C:8BE5H         LINE#         292
  C:8BE5H         LINE#         293
  C:8BEFH         LINE#         294
  C:8BFAH         LINE#         295
  C:8C05H         LINE#         296
  C:8C10H         LINE#         298
  C:8C10H         LINE#         299
  -------         ENDPROC       _GRABA_SERIE
BL51 BANKED LINKER/LOCATER V6.22.2.0                                                  09/10/2021  16:23:10  PAGE 47


  -------         PROC          _WRITE_EEPROM_TICKET
  X:0016H         SYMBOL        buffer
  -------         DO            
  X:0019H         SYMBOL        cod_3
  X:001AH         SYMBOL        cod_2
  X:001BH         SYMBOL        cod_1
  X:001CH         SYMBOL        cod_0
  X:001DH         SYMBOL        Noticket
  D:0004H         SYMBOL        Bnoticket
  -------         ENDDO         
  C:81A0H         LINE#         300
  C:81ABH         LINE#         301
  C:81ABH         LINE#         303
  C:81B3H         LINE#         304
  C:81BCH         LINE#         305
  C:81CAH         LINE#         306
  C:81D3H         LINE#         307
  C:81E7H         LINE#         309
  C:81F0H         LINE#         310
  C:8203H         LINE#         311
  C:8208H         LINE#         312
  C:820BH         LINE#         314
  C:821EH         LINE#         315
  C:8223H         LINE#         316
  C:8226H         LINE#         318
  C:8239H         LINE#         319
  C:823EH         LINE#         320
  C:8241H         LINE#         322
  C:824DH         LINE#         323
  C:8250H         LINE#         324
  C:8259H         LINE#         326
  C:8267H         LINE#         327
  C:8275H         LINE#         328
  C:8283H         LINE#         329
  -------         ENDPROC       _WRITE_EEPROM_TICKET
  -------         PROC          LEE_NO_TICKET
  -------         DO            
  D:0004H         SYMBOL        Noticket
  X:0059H         SYMBOL        Lee_No_Ticket
  D:0007H         SYMBOL        num_chr
  -------         ENDDO         
  C:B082H         LINE#         334
  C:B082H         LINE#         335
  C:B082H         LINE#         339
  C:B085H         LINE#         340
  C:B0A0H         LINE#         341
  C:B0A9H         LINE#         342
  C:B0B5H         LINE#         343
  C:B0BEH         LINE#         344
  C:B0C7H         LINE#         345
  C:B0CDH         LINE#         346
  -------         ENDPROC       LEE_NO_TICKET
  -------         PROC          READ_EEPROM_TICKET
  -------         DO            
  D:0001H         SYMBOL        cod3
  X:0064H         SYMBOL        cod2
  X:0065H         SYMBOL        cod1
BL51 BANKED LINKER/LOCATER V6.22.2.0                                                  09/10/2021  16:23:10  PAGE 48


  X:0066H         SYMBOL        cod0
  X:0067H         SYMBOL        Noticket
  -------         ENDDO         
  C:8C11H         LINE#         350
  C:8C11H         LINE#         351
  C:8C11H         LINE#         353
  C:8C1BH         LINE#         354
  C:8C22H         LINE#         355
  C:8C2CH         LINE#         356
  C:8C3AH         LINE#         357
  C:8C44H         LINE#         359
  C:8C64H         LINE#         360
  C:8C89H         LINE#         361
  C:8CAEH         LINE#         362
  C:8CCCH         LINE#         363
  C:8CDAH         LINE#         364
  -------         ENDPROC       READ_EEPROM_TICKET
  -------         PROC          INCREMENTE_TICKET
  -------         DO            
  D:0004H         SYMBOL        Noticket
  X:0009H         SYMBOL        Lee_No_Ticket
  -------         ENDDO         
  C:B9DFH         LINE#         368
  C:B9DFH         LINE#         369
  C:B9DFH         LINE#         373
  C:B9E2H         LINE#         374
  C:B9EFH         LINE#         375
  C:BA0AH         LINE#         376
  -------         ENDPROC       INCREMENTE_TICKET
  -------         PROC          _LEERMEMORIA
  X:009CH         SYMBOL        addres
  X:009EH         SYMBOL        res
  -------         DO            
  D:0007H         SYMBOL        i
  -------         ENDDO         
  C:AC60H         LINE#         382
  C:AC71H         LINE#         383
  C:AC71H         LINE#         385
  C:AC71H         LINE#         386
  C:AC8DH         LINE#         387
  C:AC9CH         LINE#         388
  C:ACAAH         LINE#         389
  C:ACB4H         LINE#         390
  C:ACB7H         LINE#         391
  -------         ENDPROC       _LEERMEMORIA
  -------         PROC          _ESCRIBIRMEMORIA
  X:005DH         SYMBOL        addres
  X:005FH         SYMBOL        res
  C:AB86H         LINE#         393
  C:AB97H         LINE#         394
  C:AB97H         LINE#         397
  C:ABA7H         LINE#         398
  C:ABAEH         LINE#         399
  C:ABB1H         LINE#         401
  C:ABBFH         LINE#         402
  C:ABC9H         LINE#         403
  C:ABCBH         LINE#         404
BL51 BANKED LINKER/LOCATER V6.22.2.0                                                  09/10/2021  16:23:10  PAGE 49


  C:ABCEH         LINE#         405
  C:ABDCH         LINE#         406
  C:ABE6H         LINE#         407
  -------         ENDPROC       _ESCRIBIRMEMORIA
  -------         PROC          CONFIRMACION
  -------         DO            
  X:0011H         SYMBOL        hora
  D:0007H         SYMBOL        temp
  -------         ENDDO         
  C:B7DEH         LINE#         410
  C:B7DEH         LINE#         411
  C:B7DEH         LINE#         413
  C:B7E0H         LINE#         414
  C:B7E9H         LINE#         416
  C:B7EFH         LINE#         417
  C:B7F3H         LINE#         418
  C:B7F3H         LINE#         420
  C:B7F7H         LINE#         421
  C:B800H         LINE#         422
  C:B800H         LINE#         424
  C:B805H         LINE#         425
  C:B807H         LINE#         426
  C:B807H         LINE#         428
  C:B80BH         LINE#         429
  C:B814H         LINE#         430
  C:B814H         LINE#         431
  C:B814H         LINE#         432
  C:B814H         LINE#         433
  C:B816H         LINE#         435
  C:B816H         LINE#         436
  C:B819H         LINE#         437
  C:B819H         LINE#         438
  C:B819H         LINE#         439
  C:B819H         LINE#         442
  -------         ENDPROC       CONFIRMACION
  -------         PROC          FORMATO_EEPROM
  -------         DO            
  X:001CH         SYMBOL        dato
  X:001DH         SYMBOL        i
  X:001FH         SYMBOL        password
  -------         ENDDO         
  C:AE9BH         LINE#         443
  C:AE9BH         LINE#         444
  C:AE9BH         LINE#         445
  C:AEA1H         LINE#         448
  C:AEB6H         LINE#         449
  C:AEB6H         LINE#         450
  C:AEC0H         LINE#         451
  C:AED0H         LINE#         452
  C:AEDAH         LINE#         453
  C:AEE9H         LINE#         454
  -------         ENDPROC       FORMATO_EEPROM
  -------         ENDMOD        EEPROM

  -------         MODULE        IO_SENSORES
  C:0000H         SYMBOL        _ICE_DUMMY_
  D:0090H         PUBLIC        P1
BL51 BANKED LINKER/LOCATER V6.22.2.0                                                  09/10/2021  16:23:10  PAGE 50


  D:00B0H         PUBLIC        P3
  C:B428H         PUBLIC        Dir_board
  B:0021H.7       PUBLIC        PULSADOR_BOTTON
  C:BE3CH         PUBLIC        sel_Pulsa
  B:0090H.1       PUBLIC        DataIn
  C:BCFDH         PUBLIC        Dir_Board_Monitor
  C:BE35H         PUBLIC        sel_Auto
  C:B903H         PUBLIC        ValidaSensoresPaso
  B:00B0H.3       PUBLIC        busy
  C:BC74H         PUBLIC        ValidaSensor
  C:BE4AH         PUBLIC        sel_Sensor1
  C:BE43H         PUBLIC        sel_Sensor2
  C:BBF1H         PUBLIC        ValidaSensor_cero
  C:AE40H         PUBLIC        Valida_Sensor1_Auto
  B:00B0H.5       PUBLIC        sel_A
  B:00B0H.6       PUBLIC        sel_B
  B:00B0H.7       PUBLIC        sel_C
  C:95BCH         PUBLIC        msj_lcd_informativo
  C:BE51H         PUBLIC        sel_Dir1
  C:BE58H         PUBLIC        sel_Dir2
  C:BD75H         PUBLIC        Botton
  C:BE2EH         PUBLIC        sel_Funcion
  -------         PROC          SEL_FUNCION
  C:BE2EH         LINE#         34
  C:BE2EH         LINE#         35
  C:BE2EH         LINE#         36
  C:BE30H         LINE#         37
  C:BE32H         LINE#         38
  C:BE34H         LINE#         39
  -------         ENDPROC       SEL_FUNCION
  -------         PROC          SEL_AUTO
  C:BE35H         LINE#         41
  C:BE35H         LINE#         42
  C:BE35H         LINE#         43
  C:BE37H         LINE#         44
  C:BE39H         LINE#         45
  C:BE3BH         LINE#         46
  -------         ENDPROC       SEL_AUTO
  -------         PROC          SEL_PULSA
  C:BE3CH         LINE#         48
  C:BE3CH         LINE#         49
  C:BE3CH         LINE#         50
  C:BE3EH         LINE#         51
  C:BE40H         LINE#         52
  C:BE42H         LINE#         53
  -------         ENDPROC       SEL_PULSA
  -------         PROC          SEL_SENSOR2
  C:BE43H         LINE#         56
  C:BE43H         LINE#         57
  C:BE43H         LINE#         58
  C:BE45H         LINE#         59
  C:BE47H         LINE#         60
  C:BE49H         LINE#         61
  -------         ENDPROC       SEL_SENSOR2
  -------         PROC          SEL_SENSOR1
  C:BE4AH         LINE#         63
  C:BE4AH         LINE#         64
BL51 BANKED LINKER/LOCATER V6.22.2.0                                                  09/10/2021  16:23:10  PAGE 51


  C:BE4AH         LINE#         65
  C:BE4CH         LINE#         66
  C:BE4EH         LINE#         67
  C:BE50H         LINE#         68
  -------         ENDPROC       SEL_SENSOR1
  -------         PROC          SEL_DIR1
  C:BE51H         LINE#         70
  C:BE51H         LINE#         71
  C:BE51H         LINE#         72
  C:BE53H         LINE#         73
  C:BE55H         LINE#         74
  C:BE57H         LINE#         75
  -------         ENDPROC       SEL_DIR1
  -------         PROC          SEL_DIR2
  C:BE58H         LINE#         77
  C:BE58H         LINE#         78
  C:BE58H         LINE#         79
  C:BE5AH         LINE#         80
  C:BE5CH         LINE#         81
  C:BE5EH         LINE#         82
  -------         ENDPROC       SEL_DIR2
  -------         PROC          BOTTON
  C:BD75H         LINE#         83
  C:BD75H         LINE#         84
  C:BD75H         LINE#         85
  C:BD78H         LINE#         86
  C:BD7BH         LINE#         87
  C:BD7BH         LINE#         88
  C:BD84H         LINE#         89
  C:BD86H         LINE#         90
  C:BD86H         LINE#         92
  -------         ENDPROC       BOTTON
  -------         PROC          VALIDASENSOR
  -------         DO            
  D:0007H         SYMBOL        Valido
  D:0004H         SYMBOL        Tmin
  -------         ENDDO         
  C:BC74H         LINE#         94
  C:BC74H         LINE#         95
  C:BC74H         LINE#         97
  C:BC76H         LINE#         98
  C:BC7AH         LINE#         99
  C:BC85H         LINE#         100
  C:BC85H         LINE#         101
  C:BC8AH         LINE#         102
  C:BC8EH         LINE#         103
  C:BC8EH         LINE#         104
  C:BC90H         LINE#         105
  C:BC90H         LINE#         106
  C:BC92H         LINE#         107
  C:BC92H         LINE#         108
  -------         ENDPROC       VALIDASENSOR
  -------         PROC          VALIDASENSOR_CERO
  -------         DO            
  D:0007H         SYMBOL        Valido
  D:0004H         SYMBOL        Tmin
  -------         ENDDO         
BL51 BANKED LINKER/LOCATER V6.22.2.0                                                  09/10/2021  16:23:10  PAGE 52


  C:BBF1H         LINE#         109
  C:BBF1H         LINE#         110
  C:BBF1H         LINE#         112
  C:BBF3H         LINE#         113
  C:BBF7H         LINE#         114
  C:BC06H         LINE#         115
  C:BC06H         LINE#         116
  C:BC0BH         LINE#         117
  C:BC0FH         LINE#         118
  C:BC0FH         LINE#         119
  C:BC10H         LINE#         120
  C:BC10H         LINE#         121
  C:BC12H         LINE#         122
  C:BC12H         LINE#         123
  -------         ENDPROC       VALIDASENSOR_CERO
  -------         PROC          DIR_BOARD
  -------         DO            
  X:0033H         SYMBOL        Board
  D:0007H         SYMBOL        Board_High
  -------         ENDDO         
  C:B428H         LINE#         127
  C:B428H         LINE#         128
  C:B428H         LINE#         129
  C:B42EH         LINE#         131
  C:B431H         LINE#         132
  C:B434H         LINE#         133
  C:B434H         LINE#         134
  C:B437H         LINE#         135
  C:B437H         LINE#         136
  C:B43AH         LINE#         137
  C:B43DH         LINE#         138
  C:B43DH         LINE#         139
  C:B444H         LINE#         140
  C:B444H         LINE#         141
  C:B44CH         LINE#         142
  C:B44CH         LINE#         143
  C:B454H         LINE#         145
  C:B457H         LINE#         146
  C:B457H         LINE#         147
  C:B45DH         LINE#         148
  C:B45DH         LINE#         149
  C:B45FH         LINE#         150
  C:B461H         LINE#         151
  C:B463H         LINE#         152
  C:B463H         LINE#         154
  C:B463H         LINE#         155
  C:B46AH         LINE#         156
  -------         ENDPROC       DIR_BOARD
  -------         PROC          DIR_BOARD_MONITOR
  -------         DO            
  D:0007H         SYMBOL        Board_High
  -------         ENDDO         
  C:BCFDH         LINE#         157
  C:BCFDH         LINE#         158
  C:BCFDH         LINE#         161
  C:BD06H         LINE#         162
  C:BD09H         LINE#         163
BL51 BANKED LINKER/LOCATER V6.22.2.0                                                  09/10/2021  16:23:10  PAGE 53


  C:BD09H         LINE#         164
  C:BD0CH         LINE#         165
  C:BD0CH         LINE#         166
  C:BD0EH         LINE#         167
  C:BD0EH         LINE#         168
  C:BD0EH         LINE#         169
  C:BD12H         LINE#         170
  -------         ENDPROC       DIR_BOARD_MONITOR
  -------         PROC          VALIDA_SENSOR1_AUTO
  -------         DO            
  X:0012H         SYMBOL        sensor
  -------         ENDDO         
  C:AE40H         LINE#         174
  C:AE40H         LINE#         175
  C:AE40H         LINE#         177
  C:AE43H         LINE#         178
  C:AE46H         LINE#         179
  C:AE49H         LINE#         180
  C:AE4EH         LINE#         181
  C:AE4EH         LINE#         182
  C:AE55H         LINE#         183
  C:AE59H         LINE#         184
  C:AE59H         LINE#         185
  C:AE59H         LINE#         186
  C:AE5BH         LINE#         188
  C:AE5BH         LINE#         189
  C:AE62H         LINE#         190
  C:AE67H         LINE#         191
  C:AE67H         LINE#         192
  C:AE67H         LINE#         193
  C:AE67H         LINE#         196
  C:AE69H         LINE#         198
  C:AE6CH         LINE#         199
  C:AE71H         LINE#         200
  C:AE71H         LINE#         202
  C:AE78H         LINE#         203
  C:AE7EH         LINE#         204
  C:AE84H         LINE#         205
  C:AE87H         LINE#         206
  C:AE89H         LINE#         208
  C:AE89H         LINE#         209
  C:AE90H         LINE#         210
  C:AE95H         LINE#         211
  C:AE95H         LINE#         214
  C:AE95H         LINE#         216
  C:AE9AH         LINE#         217
  -------         ENDPROC       VALIDA_SENSOR1_AUTO
  -------         PROC          VALIDASENSORESPASO
  -------         DO            
  X:0011H         SYMBOL        sensor
  -------         ENDDO         
  C:B903H         LINE#         222
  C:B903H         LINE#         223
  C:B903H         LINE#         225
  C:B906H         LINE#         226
  C:B909H         LINE#         227
  C:B909H         LINE#         228
BL51 BANKED LINKER/LOCATER V6.22.2.0                                                  09/10/2021  16:23:10  PAGE 54


  C:B917H         LINE#         229
  C:B917H         LINE#         230
  C:B91FH         LINE#         232
  C:B921H         LINE#         234
  C:B921H         LINE#         235
  C:B927H         LINE#         236
  C:B929H         LINE#         237
  C:B929H         LINE#         238
  C:B929H         LINE#         239
  C:B929H         LINE#         240
  C:B932H         LINE#         241
  C:B935H         LINE#         242
  C:B935H         LINE#         243
  C:B93AH         LINE#         244
  -------         ENDPROC       VALIDASENSORESPASO
  -------         PROC          MSJ_LCD_INFORMATIVO
  -------         DO            
  X:021BH         SYMBOL        contador
  X:0001H         SYMBOL        info
  X:021CH         SYMBOL        toggle
  -------         ENDDO         
  C:95BCH         LINE#         257
  C:95BCH         LINE#         258
  C:95BCH         LINE#         260
  C:95C1H         LINE#         262
  C:95C7H         LINE#         263
  C:95D4H         LINE#         264
  C:95D4H         LINE#         266
  C:95D6H         LINE#         267
  C:95D9H         LINE#         268
  C:95E5H         LINE#         269
  C:95E5H         LINE#         270
  C:95EFH         LINE#         271
  C:95EFH         LINE#         273
  C:95F8H         LINE#         274
  C:9600H         LINE#         275
  C:9608H         LINE#         276
  C:9614H         LINE#         277
  C:9614H         LINE#         279
  C:9617H         LINE#         280
  C:9617H         LINE#         281
  C:9619H         LINE#         282
  C:961CH         LINE#         283
  C:9622H         LINE#         284
  C:9622H         LINE#         285
  C:9630H         LINE#         286
  C:9630H         LINE#         287
  C:9636H         LINE#         288
  C:9636H         LINE#         289
  C:9638H         LINE#         290
  C:9646H         LINE#         291
  C:9646H         LINE#         292
  C:964FH         LINE#         293
  C:9652H         LINE#         294
  C:9652H         LINE#         295
  C:9657H         LINE#         296
  C:965AH         LINE#         297
BL51 BANKED LINKER/LOCATER V6.22.2.0                                                  09/10/2021  16:23:10  PAGE 55


  C:965FH         LINE#         298
  C:965FH         LINE#         299
  C:965FH         LINE#         300
  C:965FH         LINE#         301
  C:965FH         LINE#         302
  C:9662H         LINE#         303
  C:9665H         LINE#         304
  C:9665H         LINE#         305
  C:966AH         LINE#         306
  C:966AH         LINE#         307
  C:966AH         LINE#         308
  -------         ENDPROC       MSJ_LCD_INFORMATIVO
  -------         ENDMOD        IO_SENSORES

  -------         MODULE        PANTALLAS
  C:0000H         SYMBOL        _ICE_DUMMY_
  D:0080H         PUBLIC        P0
  C:AA1DH         PUBLIC        Reloj_Pantalla_Lcd
  C:2D51H         PUBLIC        _PantallaLCD
  C:B3ECH         PUBLIC        _LCD_txt
  C:A69FH         PUBLIC        _Raspberry_data
  C:BB8BH         PUBLIC        _tx_chrlcd
  C:268FH         SYMBOL        _?ix1000
  C:2695H         SYMBOL        _?ix1001
  C:269BH         SYMBOL        _?ix1002
  C:26C3H         SYMBOL        _?ix1003
  C:B358H         PUBLIC        _LCD_txt_num_char
  C:4B57H         PUBLIC        _PantallaLCD_LINEA_2
  B:0098H.4       PUBLIC        REN
  B:0080H.7       PUBLIC        sel_com
  -------         PROC          _PANTALLALCD
  X:0018H         SYMBOL        cod_msg
  -------         DO            
  X:0019H         SYMBOL        Ini_LCD_Line_one
  X:001FH         SYMBOL        num_chr
  X:0020H         SYMBOL        msjpantalla
  -------         ENDDO         
  C:2D51H         LINE#         96
  C:2D56H         LINE#         97
  C:2D56H         LINE#         99
  C:2D69H         LINE#         108
  C:2D6BH         LINE#         110
  C:2D74H         LINE#         111
  C:2D74H         LINE#         112
  C:2D7EH         LINE#         114
  C:2DDAH         LINE#         115
  C:2DDAH         LINE#         117
  C:2DDAH         LINE#         118
  C:2DE8H         LINE#         119
  C:2DEEH         LINE#         120
  C:2DF1H         LINE#         121
  C:2DF7H         LINE#         122
  C:2DFAH         LINE#         124
  C:2DFAH         LINE#         126
  C:2E08H         LINE#         127
  C:2E0EH         LINE#         128
  C:2E11H         LINE#         129
BL51 BANKED LINKER/LOCATER V6.22.2.0                                                  09/10/2021  16:23:10  PAGE 56


  C:2E17H         LINE#         130
  C:2E1AH         LINE#         132
  C:2E1AH         LINE#         134
  C:2E28H         LINE#         135
  C:2E2EH         LINE#         136
  C:2E31H         LINE#         137
  C:2E37H         LINE#         138
  C:2E3AH         LINE#         139
  C:2E3AH         LINE#         140
  C:2E48H         LINE#         141
  C:2E4EH         LINE#         142
  C:2E51H         LINE#         143
  C:2E57H         LINE#         144
  C:2E5AH         LINE#         145
  C:2E5AH         LINE#         146
  C:2E68H         LINE#         147
  C:2E6EH         LINE#         148
  C:2E71H         LINE#         149
  C:2E77H         LINE#         150
  C:2E7AH         LINE#         151
  C:2E7AH         LINE#         152
  C:2E88H         LINE#         153
  C:2E8EH         LINE#         154
  C:2E91H         LINE#         155
  C:2E97H         LINE#         156
  C:2E9AH         LINE#         157
  C:2E9AH         LINE#         159
  C:2EA8H         LINE#         160
  C:2EAEH         LINE#         161
  C:2EB1H         LINE#         162
  C:2EB7H         LINE#         163
  C:2EBAH         LINE#         164
  C:2EBAH         LINE#         170
  C:2EBAH         LINE#         171
  C:2EC8H         LINE#         172
  C:2ECEH         LINE#         173
  C:2ED1H         LINE#         174
  C:2ED7H         LINE#         175
  C:2EDAH         LINE#         176
  C:2EDAH         LINE#         177
  C:2EE8H         LINE#         178
  C:2EEEH         LINE#         179
  C:2EF1H         LINE#         180
  C:2EF7H         LINE#         181
  C:2EFAH         LINE#         183
  C:2EFAH         LINE#         184
  C:2F08H         LINE#         185
  C:2F0EH         LINE#         186
  C:2F11H         LINE#         187
  C:2F17H         LINE#         188
  C:2F1AH         LINE#         190
  C:2F1AH         LINE#         191
  C:2F28H         LINE#         192
  C:2F2EH         LINE#         193
  C:2F31H         LINE#         194
  C:2F37H         LINE#         195
  C:2F3AH         LINE#         200
BL51 BANKED LINKER/LOCATER V6.22.2.0                                                  09/10/2021  16:23:10  PAGE 57


  C:2F3AH         LINE#         202
  C:2F48H         LINE#         203
  C:2F4EH         LINE#         204
  C:2F51H         LINE#         205
  C:2F57H         LINE#         206
  C:2F5AH         LINE#         208
  C:2F5AH         LINE#         210
  C:2F68H         LINE#         211
  C:2F6EH         LINE#         212
  C:2F71H         LINE#         213
  C:2F77H         LINE#         214
  C:2F7AH         LINE#         216
  C:2F7AH         LINE#         217
  C:2F88H         LINE#         218
  C:2F8EH         LINE#         219
  C:2F91H         LINE#         220
  C:2F97H         LINE#         221
  C:2F9AH         LINE#         223
  C:2F9AH         LINE#         225
  C:2FA8H         LINE#         226
  C:2FAEH         LINE#         227
  C:2FB1H         LINE#         228
  C:2FB7H         LINE#         229
  C:2FBAH         LINE#         231
  C:2FBAH         LINE#         233
  C:2FC8H         LINE#         234
  C:2FCEH         LINE#         235
  C:2FD1H         LINE#         236
  C:2FD7H         LINE#         237
  C:2FDAH         LINE#         239
  C:2FDAH         LINE#         240
  C:2FE8H         LINE#         241
  C:2FEEH         LINE#         242
  C:2FF1H         LINE#         243
  C:2FF7H         LINE#         244
  C:2FFAH         LINE#         246
  C:2FFAH         LINE#         247
  C:3008H         LINE#         248
  C:300EH         LINE#         249
  C:3011H         LINE#         250
  C:3017H         LINE#         251
  C:301AH         LINE#         253
  C:301AH         LINE#         255
  C:3028H         LINE#         256
  C:302EH         LINE#         257
  C:3031H         LINE#         258
  C:3037H         LINE#         259
  C:303AH         LINE#         261
  C:303AH         LINE#         262
  C:3048H         LINE#         263
  C:304EH         LINE#         264
  C:3051H         LINE#         265
  C:3057H         LINE#         266
  C:305AH         LINE#         267
  C:305AH         LINE#         268
  C:3068H         LINE#         269
  C:306EH         LINE#         270
BL51 BANKED LINKER/LOCATER V6.22.2.0                                                  09/10/2021  16:23:10  PAGE 58


  C:3071H         LINE#         271
  C:3077H         LINE#         272
  C:307AH         LINE#         273
  C:307AH         LINE#         274
  C:3088H         LINE#         275
  C:308EH         LINE#         276
  C:3091H         LINE#         277
  C:3097H         LINE#         278
  C:309AH         LINE#         279
  C:309AH         LINE#         280
  C:30A8H         LINE#         281
  C:30ABH         LINE#         282
  C:30B1H         LINE#         283
  C:30B3H         LINE#         287
  C:30B3H         LINE#         288
  C:30C1H         LINE#         289
  C:30C7H         LINE#         290
  C:30CAH         LINE#         291
  C:30D0H         LINE#         292
  C:30D2H         LINE#         293
  C:30D2H         LINE#         294
  C:30E0H         LINE#         295
  C:30E6H         LINE#         296
  C:30E9H         LINE#         297
  C:30EFH         LINE#         298
  C:30F1H         LINE#         299
  C:30F1H         LINE#         300
  C:30FFH         LINE#         301
  C:3105H         LINE#         302
  C:3108H         LINE#         303
  C:3113H         LINE#         304
  C:3113H         LINE#         313
  C:3113H         LINE#         315
  C:3113H         LINE#         316
  C:3113H         LINE#         317
  C:3115H         LINE#         319
  C:3116H         LINE#         321
  C:3116H         LINE#         322
  C:3118H         LINE#         323
  C:3186H         LINE#         324
  C:3186H         LINE#         327
  C:3186H         LINE#         328
  C:3192H         LINE#         329
  C:3192H         LINE#         331
  C:3195H         LINE#         332
  C:3195H         LINE#         335
  C:31A1H         LINE#         336
  C:31A1H         LINE#         337
  C:31A4H         LINE#         339
  C:31A4H         LINE#         340
  C:31B0H         LINE#         341
  C:31B0H         LINE#         343
  C:31B3H         LINE#         344
  C:31B3H         LINE#         345
  C:31BFH         LINE#         346
  C:31BFH         LINE#         348
  C:31C2H         LINE#         349
BL51 BANKED LINKER/LOCATER V6.22.2.0                                                  09/10/2021  16:23:10  PAGE 59


  C:31C2H         LINE#         350
  C:31CEH         LINE#         351
  C:31CEH         LINE#         353
  C:31D1H         LINE#         354
  C:31D1H         LINE#         355
  C:31DDH         LINE#         356
  C:31DDH         LINE#         358
  C:31E0H         LINE#         359
  C:31E0H         LINE#         360
  C:31ECH         LINE#         361
  C:31ECH         LINE#         363
  C:31EFH         LINE#         364
  C:31EFH         LINE#         365
  C:31FBH         LINE#         366
  C:31FBH         LINE#         368
  C:31FEH         LINE#         369
  C:31FEH         LINE#         370
  C:320AH         LINE#         371
  C:320AH         LINE#         373
  C:320DH         LINE#         374
  C:320DH         LINE#         375
  C:3219H         LINE#         376
  C:3219H         LINE#         378
  C:321CH         LINE#         380
  C:321CH         LINE#         381
  C:3228H         LINE#         382
  C:3228H         LINE#         384
  C:322BH         LINE#         386
  C:322BH         LINE#         387
  C:3237H         LINE#         388
  C:3237H         LINE#         390
  C:323AH         LINE#         392
  C:323AH         LINE#         393
  C:3246H         LINE#         394
  C:3246H         LINE#         396
  C:3249H         LINE#         400
  C:3249H         LINE#         401
  C:3255H         LINE#         402
  C:3255H         LINE#         404
  C:3258H         LINE#         406
  C:3258H         LINE#         407
  C:3264H         LINE#         408
  C:3264H         LINE#         410
  C:3267H         LINE#         412
  C:3267H         LINE#         413
  C:3273H         LINE#         414
  C:3273H         LINE#         417
  C:3276H         LINE#         418
  C:3276H         LINE#         419
  C:3282H         LINE#         420
  C:3282H         LINE#         422
  C:3285H         LINE#         423
  C:3285H         LINE#         424
  C:3291H         LINE#         425
  C:3291H         LINE#         427
  C:3294H         LINE#         428
  C:3294H         LINE#         429
BL51 BANKED LINKER/LOCATER V6.22.2.0                                                  09/10/2021  16:23:10  PAGE 60


  C:32A0H         LINE#         430
  C:32A0H         LINE#         432
  C:32A3H         LINE#         433
  C:32A3H         LINE#         434
  C:32AFH         LINE#         435
  C:32AFH         LINE#         437
  C:32B2H         LINE#         439
  C:32B2H         LINE#         440
  C:32BEH         LINE#         441
  C:32BEH         LINE#         443
  C:32C1H         LINE#         445
  C:32C1H         LINE#         446
  C:32CDH         LINE#         447
  C:32CDH         LINE#         449
  C:32D0H         LINE#         450
  C:32D0H         LINE#         451
  C:32DCH         LINE#         452
  C:32DCH         LINE#         454
  C:32DFH         LINE#         455
  C:32DFH         LINE#         456
  C:32EBH         LINE#         457
  C:32EBH         LINE#         459
  C:32EDH         LINE#         460
  C:32EDH         LINE#         461
  C:32F9H         LINE#         462
  C:32F9H         LINE#         464
  C:32FBH         LINE#         466
  C:32FBH         LINE#         467
  C:3307H         LINE#         468
  C:3307H         LINE#         470
  C:3309H         LINE#         471
  C:3309H         LINE#         472
  C:3315H         LINE#         473
  C:3315H         LINE#         475
  C:3317H         LINE#         476
  C:3317H         LINE#         477
  C:3323H         LINE#         478
  C:3323H         LINE#         480
  C:3325H         LINE#         482
  C:3325H         LINE#         483
  C:3331H         LINE#         484
  C:3331H         LINE#         486
  C:3333H         LINE#         489
  C:3333H         LINE#         490
  C:333FH         LINE#         491
  C:333FH         LINE#         493
  C:3341H         LINE#         494
  C:3341H         LINE#         495
  C:334DH         LINE#         496
  C:334DH         LINE#         498
  C:334FH         LINE#         499
  C:334FH         LINE#         500
  C:335BH         LINE#         501
  C:335BH         LINE#         502
  C:335DH         LINE#         504
  C:335DH         LINE#         505
  C:336CH         LINE#         506
BL51 BANKED LINKER/LOCATER V6.22.2.0                                                  09/10/2021  16:23:10  PAGE 61


  C:3375H         LINE#         507
  C:3375H         LINE#         512
  C:3375H         LINE#         513
  C:3375H         LINE#         514
  C:3375H         LINE#         516
  C:337AH         LINE#         517
  C:337CH         LINE#         518
  C:337CH         LINE#         522
  -------         ENDPROC       _PANTALLALCD
  -------         PROC          _PANTALLALCD_LINEA_2
  X:0011H         SYMBOL        cod_msg
  X:0012H         SYMBOL        buffer
  -------         DO            
  X:0015H         SYMBOL        Ini_LCD_Line_one
  X:001BH         SYMBOL        num_chr
  X:001CH         SYMBOL        msjpantalla
  -------         ENDDO         
  C:4B57H         LINE#         523
  C:4B65H         LINE#         524
  C:4B65H         LINE#         526
  C:4B78H         LINE#         528
  C:4B8BH         LINE#         535
  C:4B8DH         LINE#         537
  C:4B96H         LINE#         538
  C:4B96H         LINE#         541
  C:4BA4H         LINE#         542
  C:4BA4H         LINE#         544
  C:4BA4H         LINE#         545
  C:4BA7H         LINE#         546
  C:4BB5H         LINE#         547
  C:4BCAH         LINE#         548
  C:4BD0H         LINE#         549
  C:4BD6H         LINE#         550
  C:4BDCH         LINE#         551
  C:4BDCH         LINE#         552
  C:4BDEH         LINE#         553
  C:4BDEH         LINE#         554
  C:4BE1H         LINE#         555
  C:4BEFH         LINE#         556
  C:4C04H         LINE#         557
  C:4C0AH         LINE#         558
  C:4C10H         LINE#         559
  C:4C1BH         LINE#         560
  C:4C2BH         LINE#         561
  C:4C2BH         LINE#         565
  C:4C2BH         LINE#         567
  C:4C2BH         LINE#         569
  C:4C2BH         LINE#         570
  C:4C2DH         LINE#         571
  C:4C2EH         LINE#         573
  C:4C2EH         LINE#         574
  C:4C30H         LINE#         576
  C:4C58H         LINE#         577
  C:4C58H         LINE#         578
  C:4C58H         LINE#         581
  C:4C64H         LINE#         583
  C:4C64H         LINE#         585
BL51 BANKED LINKER/LOCATER V6.22.2.0                                                  09/10/2021  16:23:10  PAGE 62


  C:4C64H         LINE#         588
  C:4C64H         LINE#         591
  C:4C67H         LINE#         593
  C:4C67H         LINE#         594
  C:4C73H         LINE#         595
  C:4C73H         LINE#         596
  C:4C73H         LINE#         597
  C:4C73H         LINE#         598
  C:4C73H         LINE#         599
  C:4C73H         LINE#         601
  C:4C76H         LINE#         602
  C:4C76H         LINE#         604
  C:4C82H         LINE#         605
  C:4C85H         LINE#         606
  C:4C88H         LINE#         607
  C:4C88H         LINE#         609
  C:4C91H         LINE#         611
  C:4C91H         LINE#         612
  C:4C93H         LINE#         614
  C:4C93H         LINE#         616
  C:4CA4H         LINE#         618
  C:4CA7H         LINE#         620
  C:4CA7H         LINE#         621
  C:4CB2H         LINE#         622
  C:4CB2H         LINE#         623
  C:4CB9H         LINE#         625
  C:4CCFH         LINE#         627
  C:4CE6H         LINE#         628
  C:4CE9H         LINE#         630
  C:4CE9H         LINE#         631
  C:4CF0H         LINE#         633
  C:4CF0H         LINE#         634
  C:4CF0H         LINE#         637
  C:4CF3H         LINE#         638
  C:4CF3H         LINE#         639
  C:4D02H         LINE#         640
  C:4D20H         LINE#         641
  C:4D37H         LINE#         643
  C:4D37H         LINE#         645
  C:4D3AH         LINE#         646
  C:4D3AH         LINE#         647
  C:4D49H         LINE#         648
  C:4D5CH         LINE#         649
  C:4D76H         LINE#         650
  C:4D94H         LINE#         651
  C:4DABH         LINE#         652
  C:4DABH         LINE#         654
  C:4DADH         LINE#         655
  C:4DADH         LINE#         656
  C:4DBCH         LINE#         657
  C:4DDAH         LINE#         658
  C:4DF1H         LINE#         659
  C:4DF4H         LINE#         660
  C:4DF4H         LINE#         661
  C:4DF4H         LINE#         663
  C:4DF4H         LINE#         664
  C:4DF4H         LINE#         666
BL51 BANKED LINKER/LOCATER V6.22.2.0                                                  09/10/2021  16:23:10  PAGE 63


  C:4DF9H         LINE#         667
  C:4DFBH         LINE#         668
  C:4DFBH         LINE#         669
  -------         ENDPROC       _PANTALLALCD_LINEA_2
  C:BB82H         SYMBOL        L?0176
  C:BB85H         SYMBOL        L?0177
  C:BB86H         SYMBOL        L?0178
  -------         PROC          L?0175
  -------         ENDPROC       L?0175
  C:BB82H         SYMBOL        L?0176
  C:BB85H         SYMBOL        L?0177
  C:BB86H         SYMBOL        L?0178
  -------         PROC          _TX_CHRLCD
  D:0007H         SYMBOL        data_com
  X:004DH         SYMBOL        enable_char_add
  -------         DO            
  X:004EH         SYMBOL        d
  -------         ENDDO         
  C:BB8BH         LINE#         675
  C:BB90H         LINE#         676
  C:BB90H         LINE#         678
  C:BB98H         LINE#         679
  C:BBA8H         LINE#         681
  -------         ENDPROC       _TX_CHRLCD
  -------         PROC          L?0181
  -------         ENDPROC       L?0181
  -------         PROC          _LCD_TXT
  X:0048H         SYMBOL        msg
  X:004BH         SYMBOL        enable_char_add
  -------         DO            
  X:004CH         SYMBOL        i
  -------         ENDDO         
  C:B3ECH         LINE#         688
  C:B3FAH         LINE#         689
  C:B3FAH         LINE#         692
  C:B417H         LINE#         693
  C:B417H         LINE#         694
  C:B41FH         LINE#         695
  C:B427H         LINE#         696
  -------         ENDPROC       _LCD_TXT
  -------         PROC          _LCD_TXT_NUM_CHAR
  X:001EH         SYMBOL        msg
  X:0021H         SYMBOL        length_char
  X:0022H         SYMBOL        enable_char_add
  -------         DO            
  X:0023H         SYMBOL        i
  -------         ENDDO         
  C:B358H         LINE#         703
  C:B366H         LINE#         704
  C:B366H         LINE#         707
  C:B379H         LINE#         708
  C:B379H         LINE#         709
  C:B395H         LINE#         710
  C:B39DH         LINE#         711
  -------         ENDPROC       _LCD_TXT_NUM_CHAR
  C:A699H         SYMBOL        L?0180
  -------         PROC          L?0179
BL51 BANKED LINKER/LOCATER V6.22.2.0                                                  09/10/2021  16:23:10  PAGE 64


  -------         ENDPROC       L?0179
  C:A699H         SYMBOL        L?0180
  -------         PROC          _RASPBERRY_DATA
  X:0048H         SYMBOL        msjpantalla
  -------         DO            
  X:004BH         SYMBOL        i
  X:004CH         SYMBOL        lenth_cadena
  X:004DH         SYMBOL        d
  -------         ENDDO         
  C:A69FH         LINE#         713
  C:A6AAH         LINE#         714
  C:A6AAH         LINE#         721
  C:A6B2H         LINE#         723
  C:A6C4H         LINE#         724
  C:A6C4H         LINE#         726
  C:A6D6H         LINE#         727
  C:A6D6H         LINE#         728
  C:A6DBH         LINE#         729
  C:A6F9H         LINE#         731
  C:A701H         LINE#         734
  C:A713H         LINE#         735
  C:A713H         LINE#         737
  C:A718H         LINE#         739
  -------         ENDPROC       _RASPBERRY_DATA
  -------         PROC          RELOJ_PANTALLA_LCD
  -------         DO            
  X:0011H         SYMBOL        Ini_Clock_LCD
  -------         ENDDO         
  C:AA1DH         LINE#         747
  C:AA1DH         LINE#         748
  C:AA1DH         LINE#         750
  C:AA30H         LINE#         752
  C:AA36H         LINE#         753
  C:AA36H         LINE#         754
  C:AA38H         LINE#         755
  C:AA41H         LINE#         759
  C:AA43H         LINE#         760
  C:AA53H         LINE#         762
  C:AA55H         LINE#         763
  C:AA57H         LINE#         765
  C:AA58H         LINE#         767
  C:AA58H         LINE#         768
  C:AA5AH         LINE#         769
  C:AA5FH         LINE#         770
  C:AA6EH         LINE#         772
  C:AA77H         LINE#         773
  C:AA8EH         LINE#         774
  C:AA97H         LINE#         777
  C:AA99H         LINE#         778
  C:AA99H         LINE#         779
  -------         ENDPROC       RELOJ_PANTALLA_LCD
  -------         ENDMOD        PANTALLAS

  -------         MODULE        PROG
  C:0000H         SYMBOL        _ICE_DUMMY_
  C:594BH         PUBLIC        Prog_fecha_vencimiento
  C:69E0H         PUBLIC        Prog_Sin_Cobro
BL51 BANKED LINKER/LOCATER V6.22.2.0                                                  09/10/2021  16:23:10  PAGE 65


  C:7491H         PUBLIC        _Ver_Horario_Desde_Hasta
  C:78CBH         PUBLIC        Prog_debug
  C:7BBFH         PUBLIC        Prog_AntiPassBack
  C:9FB2H         PUBLIC        _GetOption
  X:01BAH         PUBLIC        validacion
  C:7DB7H         PUBLIC        Prog_Validar_Tipo_Vehiculo_Mensual
  X:01C5H         PUBLIC        cursor
  C:7377H         PUBLIC        _Prog_Horarios_on_off
  C:9909H         PUBLIC        Show
  C:4208H         PUBLIC        Ver_Prog
  C:BA13H         PUBLIC        Addr_Horarios
  C:9454H         PUBLIC        prog_id_cliente
  C:B4B5H         PUBLIC        _ValidarClave
  C:52F5H         PUBLIC        menu
  C:79C7H         PUBLIC        Prog_Use_Lpr
  C:ACC6H         PUBLIC        _ListaComandos
  C:141FH         SYMBOL        _?ix1000
  C:142AH         SYMBOL        _?ix1001
  C:143AH         SYMBOL        _?ix1002
  C:144AH         SYMBOL        _?ix1003
  C:144EH         SYMBOL        _?ix1004
  C:689BH         PUBLIC        Prog_Horarios
  C:1452H         SYMBOL        _?ix1005
  C:7EB3H         PUBLIC        Prog_Apb_Mensual
  C:7FAFH         PUBLIC        Prog_mensuales
  C:8F2BH         PUBLIC        Prog_tarjeta_automatica_o_boton
  C:5549H         PUBLIC        _hash_id
  C:48A0H         PUBLIC        _Prog_Horario_dias
  C:9168H         PUBLIC        Prog_tiempo_gracia
  C:A8A5H         PUBLIC        _IngresaDato
  X:01D9H         PUBLIC        comandos
  C:B1AEH         PUBLIC        First_Clave
  C:BCE6H         PUBLIC        DisplayCursor
  C:7CBBH         PUBLIC        Prog_Placa
  C:90ABH         PUBLIC        prog_cod_park
  C:6D98H         PUBLIC        Ver_Horario
  C:724FH         PUBLIC        _Ver_Horario_dias
  C:5751H         PUBLIC        _Prog_Horario_Desde_Hasta
  C:7AC3H         PUBLIC        tipo_pantalla
  C:854FH         PUBLIC        Prog_Address_High_Board
  C:B577H         PUBLIC        _GetCMD
  -------         PROC          _HASH_ID
  X:005DH         SYMBOL        clave
  -------         DO            
  X:0060H         SYMBOL        len_clave
  X:0061H         SYMBOL        i
  X:01B6H         SYMBOL        temp
  X:01B8H         SYMBOL        temp1
  X:0062H         SYMBOL        aleatorio
  X:006DH         SYMBOL        suma
  X:007DH         SYMBOL        xxor
  X:008DH         SYMBOL        usuario1
  X:0098H         SYMBOL        vencimiento_password
  -------         ENDDO         
  C:5549H         LINE#         128
  C:5554H         LINE#         129
  C:5554H         LINE#         132
BL51 BANKED LINKER/LOCATER V6.22.2.0                                                  09/10/2021  16:23:10  PAGE 66


  C:5567H         LINE#         134
  C:557AH         LINE#         135
  C:558DH         LINE#         139
  C:559AH         LINE#         140
  C:55B6H         LINE#         142
  C:55B6H         LINE#         143
  C:55BAH         LINE#         144
  C:55BCH         LINE#         146
  C:55BCH         LINE#         147
  C:55C3H         LINE#         148
  C:55C3H         LINE#         149
  C:55D6H         LINE#         150
  C:55EAH         LINE#         151
  C:55EAH         LINE#         152
  C:5616H         LINE#         153
  C:5621H         LINE#         154
  C:562EH         LINE#         155
  C:564CH         LINE#         156
  C:5657H         LINE#         157
  C:5664H         LINE#         158
  C:5688H         LINE#         159
  C:5690H         LINE#         160
  C:5690H         LINE#         161
  C:5695H         LINE#         162
  C:5695H         LINE#         163
  C:56AEH         LINE#         164
  C:56AEH         LINE#         165
  C:56BAH         LINE#         167
  C:56BAH         LINE#         168
  C:56C9H         LINE#         169
  C:56C9H         LINE#         170
  C:56D5H         LINE#         171
  C:56D5H         LINE#         172
  C:56EEH         LINE#         173
  C:56EEH         LINE#         174
  C:56F9H         LINE#         175
  C:56F9H         LINE#         176
  C:5712H         LINE#         177
  C:5712H         LINE#         178
  C:571DH         LINE#         179
  C:571DH         LINE#         180
  C:5732H         LINE#         182
  C:573BH         LINE#         183
  C:574AH         LINE#         185
  C:5750H         LINE#         186
  -------         ENDPROC       _HASH_ID
  -------         PROC          _LISTACOMANDOS
  X:0046H         SYMBOL        cmd
  -------         DO            
  X:0049H         SYMBOL        buf
  X:004CH         SYMBOL        i
  -------         ENDDO         
  C:ACC6H         LINE#         193
  C:ACD1H         LINE#         194
  C:ACD1H         LINE#         198
  C:ACE4H         LINE#         199
  C:ACE4H         LINE#         200
BL51 BANKED LINKER/LOCATER V6.22.2.0                                                  09/10/2021  16:23:10  PAGE 67


  C:ACFCH         LINE#         201
  C:AD17H         LINE#         202
  C:AD1DH         LINE#         203
  C:AD25H         LINE#         205
  C:AD27H         LINE#         206
  -------         ENDPROC       _LISTACOMANDOS
  -------         PROC          L?0291
  -------         ENDPROC       L?0291
  -------         PROC          _VALIDARCLAVE
  X:005DH         SYMBOL        buffer
  -------         DO            
  X:0060H         SYMBOL        buf
  -------         ENDDO         
  C:B4B5H         LINE#         212
  C:B4C0H         LINE#         213
  C:B4C0H         LINE#         216
  C:B4CFH         LINE#         217
  C:B4EAH         LINE#         218
  C:B4ECH         LINE#         221
  C:B4EEH         LINE#         222
  -------         ENDPROC       _VALIDARCLAVE
  -------         PROC          L?0292
  -------         ENDPROC       L?0292
  -------         PROC          _GETCMD
  X:005DH         SYMBOL        in
  -------         DO            
  X:0060H         SYMBOL        tokens
  -------         ENDDO         
  C:B577H         LINE#         229
  C:B582H         LINE#         230
  C:B582H         LINE#         231
  C:B595H         LINE#         232
  -------         ENDPROC       _GETCMD
  -------         PROC          L?0290
  -------         ENDPROC       L?0290
  -------         PROC          _GETOPTION
  X:0046H         SYMBOL        in
  -------         DO            
  X:0049H         SYMBOL        tokensSpace
  X:004DH         SYMBOL        tokensQuote
  -------         ENDDO         
  C:9FB2H         LINE#         238
  C:9FBDH         LINE#         239
  C:9FBDH         LINE#         240
  C:9FD0H         LINE#         241
  C:9FE3H         LINE#         244
  C:9FF5H         LINE#         245
  C:A001H         LINE#         248
  C:A008H         LINE#         249
  C:A015H         LINE#         251
  C:A02EH         LINE#         252
  -------         ENDPROC       _GETOPTION
  -------         PROC          DISPLAYCURSOR
  C:BCE6H         LINE#         257
  C:BCE6H         LINE#         258
  C:BCE6H         LINE#         259
  -------         ENDPROC       DISPLAYCURSOR
BL51 BANKED LINKER/LOCATER V6.22.2.0                                                  09/10/2021  16:23:10  PAGE 68


  C:A8A1H         SYMBOL        L?0289
  -------         PROC          L?0288
  -------         ENDPROC       L?0288
  C:A8A1H         SYMBOL        L?0289
  -------         PROC          _INGRESADATO
  X:0071H         SYMBOL        buffer
  X:0074H         SYMBOL        modo
  -------         DO            
  D:0006H         SYMBOL        i
  -------         ENDDO         
  C:A8A5H         LINE#         266
  C:A8B3H         LINE#         267
  C:A8B3H         LINE#         272
  C:A8B3H         LINE#         273
  C:A8C5H         LINE#         274
  C:A8CBH         LINE#         275
  C:A8CBH         LINE#         276
  C:A8E6H         LINE#         277
  C:A8E8H         LINE#         279
  C:A8E8H         LINE#         280
  C:A8EDH         LINE#         281
  C:A8EDH         LINE#         282
  C:A8FEH         LINE#         283
  C:A908H         LINE#         284
  C:A917H         LINE#         286
  C:A91CH         LINE#         290
  -------         ENDPROC       _INGRESADATO
  -------         PROC          PROG_ID_CLIENTE
  -------         DO            
  X:0046H         SYMBOL        buffer
  X:0050H         SYMBOL        dataee
  -------         ENDDO         
  C:9454H         LINE#         307
  C:9454H         LINE#         308
  C:9454H         LINE#         312
  C:9466H         LINE#         313
  C:9483H         LINE#         315
  C:949AH         LINE#         317
  C:94A3H         LINE#         318
  C:94AAH         LINE#         319
  C:94BBH         LINE#         320
  C:94C4H         LINE#         322
  C:94D6H         LINE#         323
  C:94F3H         LINE#         324
  -------         ENDPROC       PROG_ID_CLIENTE
  -------         PROC          PROG_COD_PARK
  -------         DO            
  X:0046H         SYMBOL        buffer
  X:0050H         SYMBOL        dataee
  -------         ENDDO         
  C:90ABH         LINE#         329
  C:90ABH         LINE#         330
  C:90ABH         LINE#         334
  C:90BEH         LINE#         335
  C:90DBH         LINE#         337
  C:90F2H         LINE#         339
  C:90FBH         LINE#         340
BL51 BANKED LINKER/LOCATER V6.22.2.0                                                  09/10/2021  16:23:10  PAGE 69


  C:9106H         LINE#         341
  C:9117H         LINE#         342
  C:9121H         LINE#         344
  C:9134H         LINE#         345
  C:9151H         LINE#         346
  -------         ENDPROC       PROG_COD_PARK
  -------         PROC          PROG_TIEMPO_GRACIA
  -------         DO            
  X:0046H         SYMBOL        buffer
  X:0050H         SYMBOL        dataee
  -------         ENDDO         
  C:9168H         LINE#         351
  C:9168H         LINE#         352
  C:9168H         LINE#         356
  C:917BH         LINE#         357
  C:9198H         LINE#         359
  C:91AFH         LINE#         361
  C:91B8H         LINE#         362
  C:91C3H         LINE#         363
  C:91D4H         LINE#         364
  C:91DEH         LINE#         366
  C:91F1H         LINE#         367
  C:920EH         LINE#         368
  -------         ENDPROC       PROG_TIEMPO_GRACIA
  -------         PROC          PROG_SIN_COBRO
  -------         DO            
  X:0046H         SYMBOL        buffer
  X:0050H         SYMBOL        dataee
  -------         ENDDO         
  C:69E0H         LINE#         374
  C:69E0H         LINE#         375
  C:69E0H         LINE#         381
  C:69F3H         LINE#         382
  C:6A10H         LINE#         383
  C:6A1AH         LINE#         384
  C:6A1AH         LINE#         385
  C:6A2DH         LINE#         386
  C:6A2FH         LINE#         387
  C:6A3BH         LINE#         388
  C:6A3BH         LINE#         389
  C:6A4EH         LINE#         390
  C:6A50H         LINE#         392
  C:6A50H         LINE#         393
  C:6A67H         LINE#         394
  C:6A67H         LINE#         396
  C:6A70H         LINE#         397
  C:6A7BH         LINE#         398
  C:6A8CH         LINE#         399
  C:6A96H         LINE#         401
  C:6AA9H         LINE#         402
  C:6AC6H         LINE#         403
  C:6AD0H         LINE#         404
  C:6AD0H         LINE#         405
  C:6AE3H         LINE#         406
  C:6AE5H         LINE#         407
  C:6AF1H         LINE#         408
  C:6AF1H         LINE#         409
BL51 BANKED LINKER/LOCATER V6.22.2.0                                                  09/10/2021  16:23:10  PAGE 70


  C:6B04H         LINE#         410
  C:6B06H         LINE#         412
  C:6B06H         LINE#         413
  C:6B1DH         LINE#         414
  C:6B1DH         LINE#         416
  -------         ENDPROC       PROG_SIN_COBRO
  -------         PROC          PROG_DEBUG
  -------         DO            
  X:0046H         SYMBOL        buffer
  X:0050H         SYMBOL        dataee
  -------         ENDDO         
  C:78CBH         LINE#         422
  C:78CBH         LINE#         423
  C:78CBH         LINE#         428
  C:78DEH         LINE#         429
  C:78FBH         LINE#         430
  C:7905H         LINE#         431
  C:7905H         LINE#         432
  C:7918H         LINE#         433
  C:791AH         LINE#         435
  C:791AH         LINE#         436
  C:7931H         LINE#         437
  C:7931H         LINE#         439
  C:793AH         LINE#         440
  C:7945H         LINE#         441
  C:7956H         LINE#         442
  C:7960H         LINE#         444
  C:7973H         LINE#         445
  C:7990H         LINE#         446
  C:799AH         LINE#         447
  C:799AH         LINE#         448
  C:79ADH         LINE#         449
  C:79AFH         LINE#         451
  C:79AFH         LINE#         452
  C:79C6H         LINE#         453
  C:79C6H         LINE#         454
  -------         ENDPROC       PROG_DEBUG
  -------         PROC          PROG_USE_LPR
  -------         DO            
  X:0046H         SYMBOL        buffer
  X:0050H         SYMBOL        dataee
  -------         ENDDO         
  C:79C7H         LINE#         459
  C:79C7H         LINE#         460
  C:79C7H         LINE#         465
  C:79DAH         LINE#         466
  C:79F7H         LINE#         467
  C:7A01H         LINE#         468
  C:7A01H         LINE#         469
  C:7A14H         LINE#         470
  C:7A16H         LINE#         472
  C:7A16H         LINE#         473
  C:7A2DH         LINE#         474
  C:7A2DH         LINE#         476
  C:7A36H         LINE#         477
  C:7A41H         LINE#         478
  C:7A52H         LINE#         479
BL51 BANKED LINKER/LOCATER V6.22.2.0                                                  09/10/2021  16:23:10  PAGE 71


  C:7A5CH         LINE#         481
  C:7A6FH         LINE#         482
  C:7A8CH         LINE#         483
  C:7A96H         LINE#         484
  C:7A96H         LINE#         485
  C:7AA9H         LINE#         486
  C:7AABH         LINE#         488
  C:7AABH         LINE#         489
  C:7AC2H         LINE#         490
  C:7AC2H         LINE#         491
  -------         ENDPROC       PROG_USE_LPR
  -------         PROC          TIPO_PANTALLA
  -------         DO            
  X:0046H         SYMBOL        buffer
  X:0050H         SYMBOL        dataee
  -------         ENDDO         
  C:7AC3H         LINE#         498
  C:7AC3H         LINE#         499
  C:7AC3H         LINE#         504
  C:7AD6H         LINE#         505
  C:7AF3H         LINE#         506
  C:7AFDH         LINE#         507
  C:7AFDH         LINE#         508
  C:7B10H         LINE#         509
  C:7B12H         LINE#         511
  C:7B12H         LINE#         512
  C:7B29H         LINE#         513
  C:7B29H         LINE#         515
  C:7B32H         LINE#         516
  C:7B3DH         LINE#         517
  C:7B4EH         LINE#         518
  C:7B58H         LINE#         520
  C:7B6BH         LINE#         521
  C:7B88H         LINE#         522
  C:7B92H         LINE#         523
  C:7B92H         LINE#         524
  C:7BA5H         LINE#         525
  C:7BA7H         LINE#         527
  C:7BA7H         LINE#         528
  C:7BBEH         LINE#         529
  C:7BBEH         LINE#         531
  -------         ENDPROC       TIPO_PANTALLA
  -------         PROC          PROG_TARJETA_AUTOMATICA_O_BOTON
  -------         DO            
  X:0046H         SYMBOL        buffer
  X:0050H         SYMBOL        dataee
  -------         ENDDO         
  C:8F2BH         LINE#         532
  C:8F2BH         LINE#         533
  C:8F2BH         LINE#         538
  C:8F3EH         LINE#         539
  C:8F5BH         LINE#         540
  C:8F67H         LINE#         541
  C:8F67H         LINE#         542
  C:8F6BH         LINE#         543
  C:8F6DH         LINE#         545
  C:8F6DH         LINE#         546
BL51 BANKED LINKER/LOCATER V6.22.2.0                                                  09/10/2021  16:23:10  PAGE 72


  C:8F74H         LINE#         547
  C:8F74H         LINE#         549
  C:8F7DH         LINE#         550
  C:8F88H         LINE#         551
  C:8F99H         LINE#         552
  C:8FA3H         LINE#         554
  C:8FB6H         LINE#         555
  C:8FD3H         LINE#         556
  C:8FDFH         LINE#         557
  C:8FDFH         LINE#         558
  C:8FE3H         LINE#         559
  C:8FE5H         LINE#         561
  C:8FE5H         LINE#         562
  C:8FECH         LINE#         563
  C:8FECH         LINE#         564
  -------         ENDPROC       PROG_TARJETA_AUTOMATICA_O_BOTON
  -------         PROC          PROG_ANTIPASSBACK
  -------         DO            
  X:0046H         SYMBOL        buffer
  X:0050H         SYMBOL        dataee
  -------         ENDDO         
  C:7BBFH         LINE#         565
  C:7BBFH         LINE#         566
  C:7BBFH         LINE#         571
  C:7BD2H         LINE#         572
  C:7BEFH         LINE#         573
  C:7BF9H         LINE#         574
  C:7BF9H         LINE#         575
  C:7C0CH         LINE#         576
  C:7C0EH         LINE#         578
  C:7C0EH         LINE#         579
  C:7C25H         LINE#         580
  C:7C25H         LINE#         582
  C:7C2EH         LINE#         583
  C:7C39H         LINE#         584
  C:7C4AH         LINE#         585
  C:7C54H         LINE#         587
  C:7C67H         LINE#         588
  C:7C84H         LINE#         589
  C:7C8EH         LINE#         590
  C:7C8EH         LINE#         591
  C:7CA1H         LINE#         592
  C:7CA3H         LINE#         594
  C:7CA3H         LINE#         595
  C:7CBAH         LINE#         596
  C:7CBAH         LINE#         597
  -------         ENDPROC       PROG_ANTIPASSBACK
  -------         PROC          PROG_PLACA
  -------         DO            
  X:0046H         SYMBOL        buffer
  X:0050H         SYMBOL        dataee
  -------         ENDDO         
  C:7CBBH         LINE#         598
  C:7CBBH         LINE#         599
  C:7CBBH         LINE#         604
  C:7CCEH         LINE#         605
  C:7CEBH         LINE#         606
BL51 BANKED LINKER/LOCATER V6.22.2.0                                                  09/10/2021  16:23:10  PAGE 73


  C:7CF5H         LINE#         607
  C:7CF5H         LINE#         608
  C:7D08H         LINE#         609
  C:7D0AH         LINE#         611
  C:7D0AH         LINE#         612
  C:7D21H         LINE#         613
  C:7D21H         LINE#         615
  C:7D2AH         LINE#         616
  C:7D35H         LINE#         617
  C:7D46H         LINE#         618
  C:7D50H         LINE#         620
  C:7D63H         LINE#         621
  C:7D80H         LINE#         622
  C:7D8AH         LINE#         623
  C:7D8AH         LINE#         624
  C:7D9DH         LINE#         625
  C:7D9FH         LINE#         627
  C:7D9FH         LINE#         628
  C:7DB6H         LINE#         629
  C:7DB6H         LINE#         630
  -------         ENDPROC       PROG_PLACA
  -------         PROC          PROG_ADDRESS_HIGH_BOARD
  -------         DO            
  X:0046H         SYMBOL        buffer
  X:0050H         SYMBOL        dataee
  -------         ENDDO         
  C:854FH         LINE#         631
  C:854FH         LINE#         632
  C:854FH         LINE#         637
  C:8562H         LINE#         638
  C:857FH         LINE#         639
  C:8589H         LINE#         640
  C:8589H         LINE#         641
  C:858DH         LINE#         642
  C:858FH         LINE#         644
  C:858FH         LINE#         645
  C:85A6H         LINE#         646
  C:85A6H         LINE#         648
  C:85AFH         LINE#         649
  C:85BAH         LINE#         650
  C:85CBH         LINE#         651
  C:85D5H         LINE#         653
  C:85E8H         LINE#         654
  C:8605H         LINE#         655
  C:860FH         LINE#         656
  C:860FH         LINE#         657
  C:8613H         LINE#         658
  C:8615H         LINE#         660
  C:8615H         LINE#         661
  C:862CH         LINE#         662
  C:862CH         LINE#         663
  -------         ENDPROC       PROG_ADDRESS_HIGH_BOARD
  -------         PROC          ADDR_HORARIOS
  -------         DO            
  X:0074H         SYMBOL        ee_addr_horario
  -------         ENDDO         
  C:BA13H         LINE#         665
BL51 BANKED LINKER/LOCATER V6.22.2.0                                                  09/10/2021  16:23:10  PAGE 74


  C:BA13H         LINE#         666
  C:BA13H         LINE#         669
  C:BA19H         LINE#         670
  C:BA1DH         LINE#         671
  C:BA21H         LINE#         672
  C:BA25H         LINE#         673
  C:BA29H         LINE#         674
  C:BA2DH         LINE#         675
  C:BA31H         LINE#         676
  C:BA35H         LINE#         677
  C:BA39H         LINE#         678
  C:BA3DH         LINE#         679
  C:BA40H         LINE#         680
  C:BA46H         LINE#         681
  -------         ENDPROC       ADDR_HORARIOS
  -------         PROC          _PROG_HORARIOS_ON_OFF
  X:0061H         SYMBOL        addr
  -------         DO            
  X:0063H         SYMBOL        buffer
  X:006DH         SYMBOL        dataee
  X:006FH         SYMBOL        habilitado
  -------         ENDDO         
  C:7377H         LINE#         682
  C:7381H         LINE#         683
  C:7381H         LINE#         686
  C:7390H         LINE#         687
  C:73ADH         LINE#         688
  C:73B7H         LINE#         689
  C:73B7H         LINE#         690
  C:73CAH         LINE#         691
  C:73CCH         LINE#         693
  C:73CCH         LINE#         694
  C:73E3H         LINE#         695
  C:73E3H         LINE#         696
  C:73ECH         LINE#         697
  C:73F7H         LINE#         698
  C:7408H         LINE#         699
  C:7417H         LINE#         701
  C:742EH         LINE#         702
  C:744BH         LINE#         703
  C:7458H         LINE#         704
  C:7458H         LINE#         705
  C:745BH         LINE#         706
  C:746EH         LINE#         707
  C:7470H         LINE#         709
  C:7470H         LINE#         710
  C:7475H         LINE#         711
  C:748AH         LINE#         712
  C:748AH         LINE#         713
  C:7490H         LINE#         714
  -------         ENDPROC       _PROG_HORARIOS_ON_OFF
  -------         PROC          _PROG_HORARIO_DESDE_HASTA
  X:0061H         SYMBOL        addr
  -------         DO            
  X:0063H         SYMBOL        buffer
  D:0007H         SYMBOL        dataee
  -------         ENDDO         
BL51 BANKED LINKER/LOCATER V6.22.2.0                                                  09/10/2021  16:23:10  PAGE 75


  C:5751H         LINE#         715
  C:5759H         LINE#         716
  C:5759H         LINE#         721
  C:5762H         LINE#         722
  C:5765H         LINE#         723
  C:576EH         LINE#         724
  C:5786H         LINE#         725
  C:5799H         LINE#         726
  C:57A7H         LINE#         727
  C:57BFH         LINE#         728
  C:57D2H         LINE#         729
  C:57E0H         LINE#         730
  C:57F8H         LINE#         731
  C:580BH         LINE#         732
  C:5819H         LINE#         733
  C:5831H         LINE#         734
  C:5844H         LINE#         735
  C:5852H         LINE#         739
  C:585BH         LINE#         740
  C:585EH         LINE#         742
  C:5867H         LINE#         744
  C:587FH         LINE#         745
  C:5892H         LINE#         746
  C:58A0H         LINE#         747
  C:58B8H         LINE#         748
  C:58CBH         LINE#         749
  C:58D9H         LINE#         750
  C:58F1H         LINE#         751
  C:5904H         LINE#         752
  C:5912H         LINE#         753
  C:592AH         LINE#         754
  C:593DH         LINE#         755
  -------         ENDPROC       _PROG_HORARIO_DESDE_HASTA
  -------         PROC          _VER_HORARIO_DESDE_HASTA
  X:0074H         SYMBOL        addr
  -------         DO            
  D:0007H         SYMBOL        dataee
  -------         ENDDO         
  C:7491H         LINE#         757
  C:7499H         LINE#         758
  C:7499H         LINE#         760
  C:74A2H         LINE#         761
  C:74B5H         LINE#         762
  C:74C3H         LINE#         763
  C:74D6H         LINE#         764
  C:74E4H         LINE#         765
  C:74F7H         LINE#         766
  C:7505H         LINE#         767
  C:7518H         LINE#         768
  C:7526H         LINE#         770
  C:7539H         LINE#         771
  C:7547H         LINE#         773
  C:755AH         LINE#         774
  C:7568H         LINE#         776
  C:757BH         LINE#         777
  C:7589H         LINE#         779
  C:759CH         LINE#         780
BL51 BANKED LINKER/LOCATER V6.22.2.0                                                  09/10/2021  16:23:10  PAGE 76


  -------         ENDPROC       _VER_HORARIO_DESDE_HASTA
  -------         PROC          _PROG_HORARIO_DIAS
  X:0061H         SYMBOL        addr
  -------         DO            
  X:0063H         SYMBOL        buffer
  X:006DH         SYMBOL        dataee
  X:006EH         SYMBOL        j
  X:006FH         SYMBOL        temp
  -------         ENDDO         
  C:48A0H         LINE#         782
  C:48A8H         LINE#         783
  C:48A8H         LINE#         787
  C:48B1H         LINE#         788
  C:48BAH         LINE#         789
  C:48C3H         LINE#         790
  C:48CEH         LINE#         793
  C:48D7H         LINE#         795
  C:48EDH         LINE#         796
  C:48EDH         LINE#         798
  C:4900H         LINE#         799
  C:4900H         LINE#         800
  C:4909H         LINE#         802
  C:491EH         LINE#         803
  C:4936H         LINE#         804
  C:4943H         LINE#         805
  C:4943H         LINE#         807
  C:4959H         LINE#         808
  C:4959H         LINE#         809
  C:4962H         LINE#         810
  C:4977H         LINE#         811
  C:498FH         LINE#         812
  C:499CH         LINE#         813
  C:499CH         LINE#         815
  C:49B2H         LINE#         816
  C:49B2H         LINE#         817
  C:49BBH         LINE#         818
  C:49D0H         LINE#         819
  C:49E8H         LINE#         820
  C:49F5H         LINE#         821
  C:49F5H         LINE#         823
  C:4A0BH         LINE#         824
  C:4A0BH         LINE#         825
  C:4A14H         LINE#         826
  C:4A29H         LINE#         827
  C:4A41H         LINE#         828
  C:4A4EH         LINE#         829
  C:4A4EH         LINE#         831
  C:4A64H         LINE#         832
  C:4A64H         LINE#         833
  C:4A6DH         LINE#         834
  C:4A82H         LINE#         835
  C:4A9AH         LINE#         836
  C:4AA7H         LINE#         837
  C:4AA7H         LINE#         839
  C:4ABDH         LINE#         840
  C:4ABDH         LINE#         841
  C:4AC6H         LINE#         842
BL51 BANKED LINKER/LOCATER V6.22.2.0                                                  09/10/2021  16:23:10  PAGE 77


  C:4ADBH         LINE#         843
  C:4AF3H         LINE#         844
  C:4B00H         LINE#         845
  C:4B00H         LINE#         847
  C:4B16H         LINE#         848
  C:4B16H         LINE#         849
  C:4B1FH         LINE#         850
  C:4B2EH         LINE#         851
  C:4B40H         LINE#         852
  C:4B4DH         LINE#         853
  C:4B4DH         LINE#         854
  C:4B56H         LINE#         856
  -------         ENDPROC       _PROG_HORARIO_DIAS
  -------         PROC          _VER_HORARIO_DIAS
  X:0074H         SYMBOL        addr
  -------         DO            
  X:0076H         SYMBOL        dataee
  -------         ENDDO         
  C:724FH         LINE#         857
  C:7257H         LINE#         858
  C:7257H         LINE#         861
  C:7267H         LINE#         862
  C:726DH         LINE#         863
  C:726DH         LINE#         864
  C:7271H         LINE#         865
  C:7273H         LINE#         867
  C:7273H         LINE#         868
  C:727AH         LINE#         869
  C:727AH         LINE#         872
  C:7292H         LINE#         873
  C:7298H         LINE#         874
  C:7298H         LINE#         875
  C:729CH         LINE#         876
  C:729EH         LINE#         878
  C:729EH         LINE#         879
  C:72A5H         LINE#         880
  C:72A5H         LINE#         883
  C:72BDH         LINE#         884
  C:72C3H         LINE#         885
  C:72C3H         LINE#         886
  C:72C7H         LINE#         887
  C:72C9H         LINE#         889
  C:72C9H         LINE#         890
  C:72D0H         LINE#         891
  C:72D0H         LINE#         893
  C:72E8H         LINE#         894
  C:72EEH         LINE#         895
  C:72EEH         LINE#         896
  C:72F2H         LINE#         897
  C:72F4H         LINE#         899
  C:72F4H         LINE#         900
  C:72FBH         LINE#         901
  C:72FBH         LINE#         903
  C:7313H         LINE#         904
  C:7319H         LINE#         905
  C:7319H         LINE#         906
  C:731DH         LINE#         907
BL51 BANKED LINKER/LOCATER V6.22.2.0                                                  09/10/2021  16:23:10  PAGE 78


  C:731FH         LINE#         909
  C:731FH         LINE#         910
  C:7326H         LINE#         911
  C:7326H         LINE#         914
  C:733EH         LINE#         915
  C:7344H         LINE#         916
  C:7344H         LINE#         917
  C:7348H         LINE#         918
  C:734AH         LINE#         920
  C:734AH         LINE#         921
  C:7351H         LINE#         922
  C:7351H         LINE#         924
  C:7363H         LINE#         925
  C:7369H         LINE#         926
  C:7369H         LINE#         927
  C:736DH         LINE#         928
  C:736FH         LINE#         930
  C:736FH         LINE#         931
  C:7376H         LINE#         932
  C:7376H         LINE#         933
  -------         ENDPROC       _VER_HORARIO_DIAS
  -------         PROC          PROG_HORARIOS
  -------         DO            
  X:0046H         SYMBOL        buffer
  X:0050H         SYMBOL        ee_addr_horario
  X:005BH         SYMBOL        addr
  X:005DH         SYMBOL        temp
  X:005FH         SYMBOL        dataee
  X:0060H         SYMBOL        j
  -------         ENDDO         
  C:689BH         LINE#         934
  C:689BH         LINE#         935
  C:689BH         LINE#         944
  C:68A7H         LINE#         948
  C:68B0H         LINE#         949
  C:68BBH         LINE#         951
  C:68CAH         LINE#         955
  C:68E0H         LINE#         956
  C:68E6H         LINE#         960
  C:68F4H         LINE#         961
  C:68FCH         LINE#         962
  C:68FCH         LINE#         964
  C:690BH         LINE#         965
  C:691FH         LINE#         966
  C:691FH         LINE#         967
  C:6933H         LINE#         968
  C:693BH         LINE#         970
  C:694BH         LINE#         973
  C:694EH         LINE#         977
  C:6959H         LINE#         980
  C:6962H         LINE#         981
  C:696DH         LINE#         982
  C:697CH         LINE#         983
  C:698FH         LINE#         985
  C:69A7H         LINE#         986
  C:69C1H         LINE#         987
  C:69C9H         LINE#         988
BL51 BANKED LINKER/LOCATER V6.22.2.0                                                  09/10/2021  16:23:10  PAGE 79


  C:69C9H         LINE#         990
  C:69D7H         LINE#         991
  C:69DFH         LINE#         992
  C:69DFH         LINE#         993
  C:69DFH         LINE#         995
  -------         ENDPROC       PROG_HORARIOS
  -------         PROC          PROG_VALIDAR_TIPO_VEHICULO_MENSUAL
  -------         DO            
  X:0046H         SYMBOL        buffer
  X:0050H         SYMBOL        dataee
  -------         ENDDO         
  C:7DB7H         LINE#         996
  C:7DB7H         LINE#         997
  C:7DB7H         LINE#         1002
  C:7DCAH         LINE#         1003
  C:7DE7H         LINE#         1004
  C:7DF1H         LINE#         1005
  C:7DF1H         LINE#         1006
  C:7E04H         LINE#         1007
  C:7E06H         LINE#         1009
  C:7E06H         LINE#         1010
  C:7E1DH         LINE#         1011
  C:7E1DH         LINE#         1013
  C:7E26H         LINE#         1014
  C:7E31H         LINE#         1015
  C:7E42H         LINE#         1016
  C:7E4CH         LINE#         1018
  C:7E5FH         LINE#         1019
  C:7E7CH         LINE#         1020
  C:7E86H         LINE#         1021
  C:7E86H         LINE#         1022
  C:7E99H         LINE#         1023
  C:7E9BH         LINE#         1025
  C:7E9BH         LINE#         1026
  C:7EB2H         LINE#         1027
  C:7EB2H         LINE#         1028
  -------         ENDPROC       PROG_VALIDAR_TIPO_VEHICULO_MENSUAL
  -------         PROC          PROG_APB_MENSUAL
  -------         DO            
  X:0046H         SYMBOL        buffer
  X:0050H         SYMBOL        dataee
  -------         ENDDO         
  C:7EB3H         LINE#         1029
  C:7EB3H         LINE#         1030
  C:7EB3H         LINE#         1035
  C:7EC6H         LINE#         1036
  C:7EE3H         LINE#         1037
  C:7EEDH         LINE#         1038
  C:7EEDH         LINE#         1039
  C:7F00H         LINE#         1040
  C:7F02H         LINE#         1042
  C:7F02H         LINE#         1043
  C:7F19H         LINE#         1044
  C:7F19H         LINE#         1046
  C:7F22H         LINE#         1047
  C:7F2DH         LINE#         1048
  C:7F3EH         LINE#         1049
BL51 BANKED LINKER/LOCATER V6.22.2.0                                                  09/10/2021  16:23:10  PAGE 80


  C:7F48H         LINE#         1051
  C:7F5BH         LINE#         1052
  C:7F78H         LINE#         1053
  C:7F82H         LINE#         1054
  C:7F82H         LINE#         1055
  C:7F95H         LINE#         1056
  C:7F97H         LINE#         1058
  C:7F97H         LINE#         1059
  C:7FAEH         LINE#         1060
  C:7FAEH         LINE#         1061
  -------         ENDPROC       PROG_APB_MENSUAL
  -------         PROC          PROG_FECHA_VENCIMIENTO
  -------         DO            
  X:0046H         SYMBOL        buffer
  X:0051H         SYMBOL        cmd
  X:0054H         SYMBOL        fecha
  X:005BH         SYMBOL        dataee
  -------         ENDDO         
  C:594BH         LINE#         1063
  C:594BH         LINE#         1064
  C:594BH         LINE#         1071
  C:5958H         LINE#         1072
  C:596FH         LINE#         1075
  C:5986H         LINE#         1077
  C:5986H         LINE#         1078
  C:598FH         LINE#         1079
  C:599CH         LINE#         1080
  C:59B3H         LINE#         1081
  C:59C5H         LINE#         1082
  C:59CEH         LINE#         1087
  C:59D9H         LINE#         1088
  C:59EDH         LINE#         1089
  C:59FAH         LINE#         1091
  C:5A03H         LINE#         1094
  C:5A0CH         LINE#         1095
  C:5A17H         LINE#         1096
  C:5A2EH         LINE#         1098
  C:5A36H         LINE#         1099
  C:5A3EH         LINE#         1100
  C:5A41H         LINE#         1102
  C:5A52H         LINE#         1103
  C:5A63H         LINE#         1105
  C:5A72H         LINE#         1106
  C:5A7AH         LINE#         1107
  C:5A82H         LINE#         1108
  C:5A85H         LINE#         1109
  C:5A96H         LINE#         1110
  C:5AA7H         LINE#         1111
  C:5AB6H         LINE#         1112
  C:5ABEH         LINE#         1113
  C:5AC6H         LINE#         1114
  C:5AC9H         LINE#         1115
  C:5ADAH         LINE#         1116
  C:5AEBH         LINE#         1117
  C:5AFAH         LINE#         1118
  C:5B05H         LINE#         1120
  C:5B12H         LINE#         1122
BL51 BANKED LINKER/LOCATER V6.22.2.0                                                  09/10/2021  16:23:10  PAGE 81


  C:5B29H         LINE#         1123
  -------         ENDPROC       PROG_FECHA_VENCIMIENTO
  -------         PROC          VER_HORARIO
  -------         DO            
  X:0059H         SYMBOL        buffer
  X:0063H         SYMBOL        ee_addr_horario
  X:006EH         SYMBOL        conta
  X:006FH         SYMBOL        addr
  X:0071H         SYMBOL        temp
  X:0073H         SYMBOL        dataee
  -------         ENDDO         
  C:6D98H         LINE#         1126
  C:6D98H         LINE#         1127
  C:6D98H         LINE#         1136
  C:6DA4H         LINE#         1137
  C:6DBAH         LINE#         1138
  C:6DBAH         LINE#         1140
  C:6DCAH         LINE#         1143
  C:6DE3H         LINE#         1144
  C:6DE9H         LINE#         1147
  C:6DF7H         LINE#         1148
  C:6E06H         LINE#         1149
  C:6E20H         LINE#         1150
  C:6E2BH         LINE#         1151
  C:6E2BH         LINE#         1152
  C:6E34H         LINE#         1154
  C:6E3DH         LINE#         1155
  C:6E4DH         LINE#         1156
  C:6E50H         LINE#         1158
  C:6E5BH         LINE#         1159
  C:6E73H         LINE#         1160
  C:6E8DH         LINE#         1161
  C:6E97H         LINE#         1162
  C:6E97H         LINE#         1163
  C:6E9EH         LINE#         1165
  C:6EACH         LINE#         1166
  C:6EB4H         LINE#         1167
  C:6EB6H         LINE#         1169
  C:6EB6H         LINE#         1170
  C:6EBAH         LINE#         1171
  C:6EBAH         LINE#         1172
  C:6EBCH         LINE#         1174
  C:6EBCH         LINE#         1175
  C:6EC5H         LINE#         1176
  C:6EC5H         LINE#         1178
  C:6ECEH         LINE#         1181
  -------         ENDPROC       VER_HORARIO
  -------         PROC          PROG_MENSUALES
  -------         DO            
  X:0046H         SYMBOL        buffer
  X:0050H         SYMBOL        dataee
  -------         ENDDO         
  C:7FAFH         LINE#         1182
  C:7FAFH         LINE#         1183
  C:7FAFH         LINE#         1188
  C:7FC2H         LINE#         1189
  C:7FDFH         LINE#         1190
BL51 BANKED LINKER/LOCATER V6.22.2.0                                                  09/10/2021  16:23:10  PAGE 82


  C:7FE9H         LINE#         1191
  C:7FE9H         LINE#         1192
  C:7FFCH         LINE#         1193
  C:7FFEH         LINE#         1195
  C:7FFEH         LINE#         1196
  C:8015H         LINE#         1197
  C:8015H         LINE#         1199
  C:801EH         LINE#         1200
  C:8029H         LINE#         1201
  C:803AH         LINE#         1202
  C:8044H         LINE#         1204
  C:8057H         LINE#         1205
  C:8074H         LINE#         1206
  C:807EH         LINE#         1207
  C:807EH         LINE#         1208
  C:8091H         LINE#         1209
  C:8093H         LINE#         1211
  C:8093H         LINE#         1212
  C:80AAH         LINE#         1213
  C:80AAH         LINE#         1215
  -------         ENDPROC       PROG_MENSUALES
  -------         PROC          VER_PROG
  -------         DO            
  X:0046H         SYMBOL        buffer
  X:0050H         SYMBOL        dataee
  X:0052H         SYMBOL        fecha
  -------         ENDDO         
  C:4208H         LINE#         1217
  C:4208H         LINE#         1218
  C:4208H         LINE#         1224
  C:421AH         LINE#         1225
  C:4237H         LINE#         1227
  C:424EH         LINE#         1229
  C:4261H         LINE#         1230
  C:427EH         LINE#         1232
  C:4295H         LINE#         1234
  C:42A8H         LINE#         1235
  C:42C5H         LINE#         1236
  C:42D3H         LINE#         1237
  C:42D3H         LINE#         1238
  C:42D7H         LINE#         1239
  C:42D9H         LINE#         1241
  C:42D9H         LINE#         1242
  C:42E0H         LINE#         1243
  C:42E0H         LINE#         1245
  C:42F3H         LINE#         1246
  C:4310H         LINE#         1247
  C:431CH         LINE#         1248
  C:431CH         LINE#         1249
  C:4320H         LINE#         1250
  C:4322H         LINE#         1252
  C:4322H         LINE#         1253
  C:4329H         LINE#         1254
  C:4329H         LINE#         1256
  C:433CH         LINE#         1257
  C:4359H         LINE#         1258
  C:4365H         LINE#         1259
BL51 BANKED LINKER/LOCATER V6.22.2.0                                                  09/10/2021  16:23:10  PAGE 83


  C:4365H         LINE#         1260
  C:4369H         LINE#         1261
  C:436BH         LINE#         1263
  C:436BH         LINE#         1264
  C:4372H         LINE#         1265
  C:4372H         LINE#         1267
  C:4385H         LINE#         1268
  C:43A2H         LINE#         1269
  C:43AEH         LINE#         1270
  C:43AEH         LINE#         1271
  C:43B2H         LINE#         1272
  C:43B4H         LINE#         1274
  C:43B4H         LINE#         1275
  C:43BBH         LINE#         1276
  C:43BBH         LINE#         1278
  C:43CEH         LINE#         1279
  C:43EBH         LINE#         1280
  C:43F7H         LINE#         1281
  C:43F7H         LINE#         1282
  C:43FBH         LINE#         1283
  C:43FDH         LINE#         1285
  C:43FDH         LINE#         1286
  C:4404H         LINE#         1287
  C:4404H         LINE#         1289
  C:4417H         LINE#         1290
  C:4434H         LINE#         1291
  C:4440H         LINE#         1292
  C:4440H         LINE#         1293
  C:4444H         LINE#         1294
  C:4446H         LINE#         1296
  C:4446H         LINE#         1297
  C:444DH         LINE#         1298
  C:444DH         LINE#         1301
  C:4460H         LINE#         1302
  C:447DH         LINE#         1304
  C:4494H         LINE#         1306
  C:4497H         LINE#         1310
  C:44AAH         LINE#         1311
  C:44C7H         LINE#         1312
  C:44D3H         LINE#         1313
  C:44D3H         LINE#         1314
  C:44D7H         LINE#         1315
  C:44D9H         LINE#         1317
  C:44D9H         LINE#         1318
  C:44E0H         LINE#         1319
  C:44E0H         LINE#         1321
  C:44F3H         LINE#         1322
  C:4510H         LINE#         1323
  C:451CH         LINE#         1324
  C:451CH         LINE#         1325
  C:4520H         LINE#         1326
  C:4522H         LINE#         1328
  C:4522H         LINE#         1329
  C:4529H         LINE#         1330
  C:4529H         LINE#         1333
  C:453CH         LINE#         1334
  C:4559H         LINE#         1335
BL51 BANKED LINKER/LOCATER V6.22.2.0                                                  09/10/2021  16:23:10  PAGE 84


  C:4565H         LINE#         1336
  C:4565H         LINE#         1337
  C:4569H         LINE#         1338
  C:456BH         LINE#         1340
  C:456BH         LINE#         1341
  C:4572H         LINE#         1342
  C:4572H         LINE#         1345
  C:457FH         LINE#         1347
  C:4596H         LINE#         1348
  C:45ADH         LINE#         1351
  C:45B9H         LINE#         1352
  -------         ENDPROC       VER_PROG
  -------         PROC          SHOW
  C:9909H         LINE#         1359
  C:9909H         LINE#         1360
  C:9909H         LINE#         1361
  C:9912H         LINE#         1362
  C:991BH         LINE#         1363
  C:9924H         LINE#         1364
  C:992DH         LINE#         1365
  C:9936H         LINE#         1366
  C:993FH         LINE#         1367
  C:9948H         LINE#         1368
  C:9951H         LINE#         1369
  C:995AH         LINE#         1370
  C:9963H         LINE#         1371
  C:996CH         LINE#         1372
  C:9975H         LINE#         1373
  C:997EH         LINE#         1374
  C:9987H         LINE#         1375
  C:9990H         LINE#         1376
  C:9999H         LINE#         1377
  C:99A2H         LINE#         1378
  -------         ENDPROC       SHOW
  -------         PROC          FIRST_CLAVE
  -------         DO            
  X:0046H         SYMBOL        clave
  -------         ENDDO         
  C:B1AEH         LINE#         1385
  C:B1AEH         LINE#         1386
  C:B1AEH         LINE#         1390
  C:B1B7H         LINE#         1391
  C:B1BCH         LINE#         1392
  C:B1CEH         LINE#         1393
  C:B1DBH         LINE#         1394
  C:B1E1H         LINE#         1395
  C:B1E4H         LINE#         1396
  C:B1E7H         LINE#         1397
  C:B1E9H         LINE#         1399
  -------         ENDPROC       FIRST_CLAVE
  -------         PROC          MENU
  -------         DO            
  X:0001H         SYMBOL        cmd
  X:0004H         SYMBOL        option1
  X:0007H         SYMBOL        option2
  X:000AH         SYMBOL        opt_buffer
  X:0032H         SYMBOL        buffer
BL51 BANKED LINKER/LOCATER V6.22.2.0                                                  09/10/2021  16:23:10  PAGE 85


  D:0007H         SYMBOL        dato
  -------         ENDDO         
  C:52F5H         LINE#         1403
  C:52F5H         LINE#         1404
  C:52F5H         LINE#         1414
  C:52FEH         LINE#         1419
  C:530AH         LINE#         1420
  C:530AH         LINE#         1421
  C:530DH         LINE#         1422
  C:5317H         LINE#         1425
  C:5317H         LINE#         1427
  C:5317H         LINE#         1428
  C:5320H         LINE#         1429
  C:532DH         LINE#         1430
  C:5332H         LINE#         1431
  C:5348H         LINE#         1432
  C:535AH         LINE#         1433
  C:5363H         LINE#         1438
  C:536EH         LINE#         1439
  C:537CH         LINE#         1440
  C:5389H         LINE#         1442
  C:5392H         LINE#         1445
  C:539AH         LINE#         1446
  C:539EH         LINE#         1447
  C:539EH         LINE#         1448
  C:539EH         LINE#         1449
  C:53A1H         LINE#         1451
  C:53A1H         LINE#         1452
  C:53AAH         LINE#         1453
  C:53B4H         LINE#         1454
  C:53B4H         LINE#         1455
  C:53B4H         LINE#         1456
  C:53B4H         LINE#         1457
  C:53B7H         LINE#         1460
  C:53C2H         LINE#         1461
  C:53D0H         LINE#         1462
  C:53E4H         LINE#         1463
  C:53F8H         LINE#         1468
  C:540EH         LINE#         1469
  C:540EH         LINE#         1471
  C:541DH         LINE#         1472
  C:541FH         LINE#         1473
  C:542FH         LINE#         1474
  C:542FH         LINE#         1476
  C:543EH         LINE#         1477
  C:545CH         LINE#         1478
  C:545CH         LINE#         1484
  C:546FH         LINE#         1485
  C:546FH         LINE#         1486
  C:54BBH         LINE#         1487
  C:54BBH         LINE#         1488
  C:54BBH         LINE#         1489
  C:54BEH         LINE#         1491
  C:54C1H         LINE#         1493
  C:54C1H         LINE#         1494
  C:54C4H         LINE#         1495
  C:54C7H         LINE#         1496
BL51 BANKED LINKER/LOCATER V6.22.2.0                                                  09/10/2021  16:23:10  PAGE 86


  C:54C7H         LINE#         1497
  C:54CAH         LINE#         1498
  C:54CDH         LINE#         1499
  C:54CDH         LINE#         1500
  C:54D0H         LINE#         1501
  C:54D3H         LINE#         1502
  C:54D3H         LINE#         1503
  C:54D6H         LINE#         1504
  C:54D9H         LINE#         1505
  C:54D9H         LINE#         1506
  C:54DCH         LINE#         1507
  C:54DFH         LINE#         1508
  C:54DFH         LINE#         1509
  C:54E2H         LINE#         1510
  C:54E5H         LINE#         1511
  C:54E5H         LINE#         1512
  C:54E8H         LINE#         1513
  C:54EBH         LINE#         1514
  C:54EBH         LINE#         1515
  C:54EEH         LINE#         1516
  C:54F1H         LINE#         1517
  C:54F1H         LINE#         1518
  C:54F4H         LINE#         1519
  C:54F7H         LINE#         1520
  C:54F7H         LINE#         1521
  C:54FAH         LINE#         1522
  C:54FDH         LINE#         1523
  C:54FDH         LINE#         1524
  C:5500H         LINE#         1525
  C:5503H         LINE#         1526
  C:5503H         LINE#         1527
  C:5506H         LINE#         1528
  C:5509H         LINE#         1529
  C:5509H         LINE#         1530
  C:550CH         LINE#         1531
  C:550FH         LINE#         1533
  C:550FH         LINE#         1534
  C:5512H         LINE#         1535
  C:5515H         LINE#         1536
  C:5515H         LINE#         1537
  C:5518H         LINE#         1538
  C:551BH         LINE#         1539
  C:551BH         LINE#         1540
  C:551EH         LINE#         1541
  C:5521H         LINE#         1542
  C:5521H         LINE#         1544
  C:5521H         LINE#         1545
  C:5521H         LINE#         1546
  C:5524H         LINE#         1547
  C:5527H         LINE#         1550
  C:5527H         LINE#         1551
  C:5545H         LINE#         1552
  C:5548H         LINE#         1553
  C:5548H         LINE#         1554
  C:5548H         LINE#         1555
  C:5548H         LINE#         1556
  -------         ENDPROC       MENU
BL51 BANKED LINKER/LOCATER V6.22.2.0                                                  09/10/2021  16:23:10  PAGE 87


  -------         ENDMOD        PROG

  -------         MODULE        PTO_PARALELO
  C:0000H         SYMBOL        _ICE_DUMMY_
  D:0080H         PUBLIC        P0
  D:00A0H         PUBLIC        P2
  D:00B0H         PUBLIC        P3
  C:6C5CH         PUBLIC        load_and_send_id_cod
  C:9CBCH         PUBLIC        _recibe_port
  B:00B0H.2       PUBLIC        ready
  B:0080H.6       PUBLIC        rx_in_data
  C:BD87H         PUBLIC        Pulso_Bus
  C:A265H         PUBLIC        _send_portERR
  B:00B0H.3       PUBLIC        busy
  C:B0CEH         PUBLIC        load_and_send_info_reloj
  C:950AH         PUBLIC        _send_port
  B:00B0H.4       PUBLIC        port_clk
  C:BE08H         PUBLIC        cond_ini_pto
  -------         PROC          _RECIBE_PORT
  X:0001H         SYMBOL        buffer_port
  -------         DO            
  D:0006H         SYMBOL        count
  X:0004H         SYMBOL        time_out
  X:0005H         SYMBOL        num_data
  X:0006H         SYMBOL        T_ANCHO
  X:0008H         SYMBOL        data_temp
  -------         ENDDO         
  C:9CBCH         LINE#         61
  C:9CC7H         LINE#         62
  C:9CC7H         LINE#         66
  C:9CD0H         LINE#         67
  C:9CD3H         LINE#         70
  C:9CD6H         LINE#         71
  C:9CD6H         LINE#         73
  C:9CD9H         LINE#         74
  C:9CDEH         LINE#         75
  C:9CE0H         LINE#         76
  C:9CE4H         LINE#         77
  C:9CE6H         LINE#         80
  C:9CEBH         LINE#         81
  C:9CF4H         LINE#         82
  C:9CF4H         LINE#         83
  C:9CF7H         LINE#         84
  C:9CF7H         LINE#         86
  C:9CFCH         LINE#         87
  C:9D00H         LINE#         88
  C:9D00H         LINE#         89
  C:9D02H         LINE#         90
  C:9D04H         LINE#         91
  C:9D04H         LINE#         92
  C:9D04H         LINE#         94
  C:9D04H         LINE#         95
  C:9D11H         LINE#         96
  C:9D11H         LINE#         98
  C:9D14H         LINE#         99
  C:9D14H         LINE#         101
  C:9D1AH         LINE#         103
BL51 BANKED LINKER/LOCATER V6.22.2.0                                                  09/10/2021  16:23:10  PAGE 88


  C:9D1CH         LINE#         104
  C:9D30H         LINE#         105
  C:9D3AH         LINE#         106
  C:9D40H         LINE#         107
  C:9D46H         LINE#         108
  C:9D48H         LINE#         109
  C:9D48H         LINE#         110
  C:9D48H         LINE#         111
  C:9D48H         LINE#         114
  C:9D4AH         LINE#         115
  C:9D4CH         LINE#         116
  C:9D4CH         LINE#         117
  C:9D4FH         LINE#         119
  C:9D54H         LINE#         120
  -------         ENDPROC       _RECIBE_PORT
  -------         PROC          _SEND_PORT
  X:0016H         SYMBOL        buffer_port
  X:0019H         SYMBOL        length_char
  -------         DO            
  X:001AH         SYMBOL        cont
  X:001EH         SYMBOL        timeOut
  X:001FH         SYMBOL        length
  -------         ENDDO         
  C:950AH         LINE#         127
  C:9518H         LINE#         128
  C:9518H         LINE#         133
  C:951CH         LINE#         135
  C:951EH         LINE#         136
  C:9520H         LINE#         137
  C:9522H         LINE#         138
  C:9527H         LINE#         139
  C:9529H         LINE#         140
  C:9533H         LINE#         142
  C:953CH         LINE#         143
  C:953CH         LINE#         144
  C:953EH         LINE#         145
  C:9540H         LINE#         146
  C:9564H         LINE#         147
  C:9578H         LINE#         148
  C:9578H         LINE#         149
  C:957BH         LINE#         151
  C:957BH         LINE#         152
  C:957DH         LINE#         153
  C:9586H         LINE#         154
  C:9586H         LINE#         158
  C:9586H         LINE#         160
  C:9596H         LINE#         161
  C:9599H         LINE#         162
  C:95A3H         LINE#         164
  C:95A9H         LINE#         165
  C:95ACH         LINE#         167
  C:95ACH         LINE#         169
  C:95AFH         LINE#         170
  C:95B1H         LINE#         171
  C:95B3H         LINE#         172
  C:95B5H         LINE#         173
  -------         ENDPROC       _SEND_PORT
BL51 BANKED LINKER/LOCATER V6.22.2.0                                                  09/10/2021  16:23:10  PAGE 89


  -------         PROC          PULSO_BUS
  C:BD87H         LINE#         181
  C:BD87H         LINE#         182
  C:BD87H         LINE#         183
  C:BD89H         LINE#         184
  C:BD90H         LINE#         185
  C:BD92H         LINE#         186
  -------         ENDPROC       PULSO_BUS
  -------         PROC          _SEND_PORTERR
  X:0018H         SYMBOL        cod_err
  -------         DO            
  X:0019H         SYMBOL        timeOut
  X:001AH         SYMBOL        cont
  -------         ENDDO         
  C:A265H         LINE#         191
  C:A26BH         LINE#         192
  C:A26BH         LINE#         196
  C:A26DH         LINE#         197
  C:A26FH         LINE#         198
  C:A272H         LINE#         199
  C:A27AH         LINE#         201
  C:A27CH         LINE#         202
  C:A27EH         LINE#         203
  C:A287H         LINE#         204
  C:A287H         LINE#         205
  C:A2A9H         LINE#         206
  C:A2BDH         LINE#         207
  C:A2BDH         LINE#         208
  C:A2C2H         LINE#         209
  C:A2C2H         LINE#         210
  C:A2C4H         LINE#         211
  C:A2CDH         LINE#         212
  C:A2CDH         LINE#         213
  C:A2D3H         LINE#         214
  C:A2D6H         LINE#         215
  C:A2D6H         LINE#         216
  C:A2D8H         LINE#         217
  C:A2DAH         LINE#         218
  C:A2DCH         LINE#         220
  C:A2DFH         LINE#         222
  C:A2E6H         LINE#         223
  -------         ENDPROC       _SEND_PORTERR
  -------         PROC          COND_INI_PTO
  C:BE08H         LINE#         229
  C:BE08H         LINE#         230
  C:BE08H         LINE#         232
  C:BE0AH         LINE#         233
  C:BE0CH         LINE#         234
  C:BE0EH         LINE#         235
  C:BE11H         LINE#         236
  -------         ENDPROC       COND_INI_PTO
  -------         PROC          LOAD_AND_SEND_INFO_RELOJ
  -------         DO            
  X:0002H         SYMBOL        buffer_info
  -------         ENDDO         
  C:B0CEH         LINE#         242
  C:B0CEH         LINE#         243
BL51 BANKED LINKER/LOCATER V6.22.2.0                                                  09/10/2021  16:23:10  PAGE 90


  C:B0CEH         LINE#         246
  C:B0D4H         LINE#         248
  C:B0D8H         LINE#         254
  C:B0E1H         LINE#         257
  C:B0EBH         LINE#         258
  C:B0EFH         LINE#         259
  C:B0F2H         LINE#         260
  C:B0FBH         LINE#         261
  C:B10CH         LINE#         262
  C:B10FH         LINE#         263
  -------         ENDPROC       LOAD_AND_SEND_INFO_RELOJ
  -------         PROC          LOAD_AND_SEND_ID_COD
  -------         DO            
  X:0002H         SYMBOL        buffer_info
  X:000DH         SYMBOL        buf
  X:0011H         SYMBOL        i
  X:0012H         SYMBOL        ID_CLIENTE
  X:0014H         SYMBOL        COD_PARK
  -------         ENDDO         
  C:6C5CH         LINE#         270
  C:6C5CH         LINE#         271
  C:6C5CH         LINE#         279
  C:6C6CH         LINE#         281
  C:6C7DH         LINE#         283
  C:6C83H         LINE#         284
  C:6C87H         LINE#         285
  C:6C8AH         LINE#         287
  C:6CB0H         LINE#         288
  C:6CC7H         LINE#         291
  C:6CDEH         LINE#         294
  C:6D04H         LINE#         295
  C:6D1BH         LINE#         297
  C:6D32H         LINE#         298
  C:6D40H         LINE#         299
  C:6D51H         LINE#         300
  C:6D64H         LINE#         301
  C:6D6AH         LINE#         302
  C:6D73H         LINE#         303
  C:6D87H         LINE#         304
  C:6D8AH         LINE#         305
  -------         ENDPROC       LOAD_AND_SEND_ID_COD
  -------         ENDMOD        PTO_PARALELO

  -------         MODULE        TIBBO
  C:0000H         SYMBOL        _ICE_DUMMY_
  C:B39EH         PUBLIC        _Debug_HexDec
  C:B170H         PUBLIC        _Debug_txt_Tibbo
  D:0080H         PUBLIC        P0
  D:0090H         PUBLIC        P1
  B:0090H.0       PUBLIC        txd2
  B:00A8H.7       PUBLIC        EA
  C:B93BH         PUBLIC        _Debug_txt_rs232
  C:AF99H         PUBLIC        _Debug_Buffer_rs232_lcd
  C:B11DH         PUBLIC        _tx_aux
  B:0080H.0       PUBLIC        rx_ip
  C:BE1EH         PUBLIC        Debug_Dividir_texto
  C:BE6AH         PUBLIC        cond_ini_tibbo
BL51 BANKED LINKER/LOCATER V6.22.2.0                                                  09/10/2021  16:23:10  PAGE 91


  C:BDDDH         PUBLIC        time_mbit
  C:A2EDH         PUBLIC        rx_Data
  C:BD19H         PUBLIC        time_bit
  C:B5B1H         PUBLIC        _Debug_pto_paralelo
  C:B764H         PUBLIC        _Debug_monitor
  C:A50AH         PUBLIC        _DebugBufferMF
  C:B1F6H         PUBLIC        _Debug_chr_Tibbo
  B:0080H.7       PUBLIC        sel_com
  C:B23DH         PUBLIC        _Debug_chr_rs232_lcd
  C:BD13H         SYMBOL        L?0080
  -------         PROC          L?0079
  -------         ENDPROC       L?0079
  C:BD13H         SYMBOL        L?0080
  -------         PROC          TIME_BIT
  -------         DO            
  D:0007H         SYMBOL        j
  -------         ENDDO         
  C:BD19H         LINE#         21
  C:BD19H         LINE#         22
  C:BD19H         LINE#         24
  C:BD25H         LINE#         25
  C:BD25H         LINE#         26
  C:BD28H         LINE#         52
  -------         ENDPROC       TIME_BIT
  -------         PROC          TIME_MBIT
  -------         DO            
  D:0007H         SYMBOL        j
  -------         ENDDO         
  C:BDDDH         LINE#         55
  C:BDDDH         LINE#         56
  C:BDDDH         LINE#         60
  C:BDE9H         LINE#         61
  C:BDE9H         LINE#         71
  C:BDECH         LINE#         73
  -------         ENDPROC       TIME_MBIT
  -------         PROC          L?0083
  -------         ENDPROC       L?0083
  -------         PROC          _TX_AUX
  D:0006H         SYMBOL        caracter
  -------         DO            
  D:0004H         SYMBOL        j
  D:0005H         SYMBOL        temporal
  D:0006H         SYMBOL        bitTX
  -------         ENDDO         
  C:B11DH         LINE#         78
  C:B11FH         LINE#         79
  C:B11FH         LINE#         82
  C:B121H         LINE#         83
  C:B123H         LINE#         84
  C:B126H         LINE#         85
  C:B127H         LINE#         86
  C:B128H         LINE#         87
  C:B12AH         LINE#         88
  C:B12EH         LINE#         89
  C:B130H         LINE#         90
  C:B130H         LINE#         91
  C:B132H         LINE#         92
BL51 BANKED LINKER/LOCATER V6.22.2.0                                                  09/10/2021  16:23:10  PAGE 92


  C:B134H         LINE#         94
  C:B134H         LINE#         95
  C:B136H         LINE#         96
  C:B136H         LINE#         97
  C:B139H         LINE#         98
  C:B145H         LINE#         99
  C:B145H         LINE#         100
  C:B149H         LINE#         101
  C:B14CH         LINE#         102
  C:B14EH         LINE#         103
  C:B14EH         LINE#         104
  C:B150H         LINE#         105
  C:B152H         LINE#         107
  C:B152H         LINE#         108
  C:B154H         LINE#         109
  C:B154H         LINE#         110
  C:B157H         LINE#         111
  C:B15AH         LINE#         112
  C:B15CH         LINE#         113
  C:B15FH         LINE#         114
  C:B162H         LINE#         116
  C:B164H         LINE#         117
  -------         ENDPROC       _TX_AUX
  -------         PROC          _DEBUG_HEXDEC
  D:0007H         SYMBOL        xfc
  -------         DO            
  X:0018H         SYMBOL        valor
  D:0006H         SYMBOL        centena
  D:0003H         SYMBOL        decena
  D:0002H         SYMBOL        unidad
  -------         ENDDO         
  C:B39EH         LINE#         120
  C:B39EH         LINE#         121
  C:B39EH         LINE#         124
  C:B3A5H         LINE#         126
  C:B3A6H         LINE#         127
  C:B3A7H         LINE#         128
  C:B3A8H         LINE#         129
  C:B3B0H         LINE#         130
  C:B3B0H         LINE#         131
  C:B3BAH         LINE#         132
  C:B3BAH         LINE#         133
  C:B3BEH         LINE#         134
  C:B3BFH         LINE#         135
  C:B3C1H         LINE#         136
  C:B3CBH         LINE#         137
  C:B3CBH         LINE#         138
  C:B3CFH         LINE#         139
  C:B3D0H         LINE#         140
  C:B3D2H         LINE#         141
  C:B3D4H         LINE#         142
  C:B3D8H         LINE#         143
  C:B3DCH         LINE#         144
  C:B3E3H         LINE#         146
  C:B3E3H         LINE#         147
  -------         ENDPROC       _DEBUG_HEXDEC
  -------         PROC          _DEBUG_CHR_TIBBO
BL51 BANKED LINKER/LOCATER V6.22.2.0                                                  09/10/2021  16:23:10  PAGE 93


  D:0003H         SYMBOL        Dat
  -------         DO            
  D:0007H         SYMBOL        temp
  -------         ENDDO         
  C:B1F6H         LINE#         152
  C:B1F8H         LINE#         153
  C:B1F8H         LINE#         155
  C:B200H         LINE#         156
  C:B200H         LINE#         157
  C:B207H         LINE#         158
  C:B21AH         LINE#         160
  C:B21DH         LINE#         162
  C:B221H         LINE#         163
  C:B234H         LINE#         164
  C:B237H         LINE#         165
  C:B23CH         LINE#         167
  C:B23CH         LINE#         168
  -------         ENDPROC       _DEBUG_CHR_TIBBO
  -------         PROC          _DEBUG_CHR_RS232_LCD
  X:0017H         SYMBOL        Dat
  -------         DO            
  D:0007H         SYMBOL        temp
  D:0006H         SYMBOL        d
  -------         ENDDO         
  C:B23DH         LINE#         169
  C:B242H         LINE#         170
  C:B242H         LINE#         172
  C:B248H         LINE#         173
  C:B25BH         LINE#         174
  C:B260H         LINE#         175
  C:B267H         LINE#         176
  C:B27AH         LINE#         177
  C:B27FH         LINE#         178
  -------         ENDPROC       _DEBUG_CHR_RS232_LCD
  -------         PROC          _DEBUGBUFFERMF
  X:0027H         SYMBOL        str
  X:002AH         SYMBOL        num_char
  X:002BH         SYMBOL        io
  -------         DO            
  X:002CH         SYMBOL        j
  -------         ENDDO         
  C:A50AH         LINE#         186
  C:A518H         LINE#         187
  C:A518H         LINE#         191
  C:A520H         LINE#         192
  C:A520H         LINE#         193
  C:A52FH         LINE#         194
  C:A52FH         LINE#         195
  C:A535H         LINE#         196
  C:A537H         LINE#         197
  C:A544H         LINE#         198
  C:A544H         LINE#         199
  C:A54DH         LINE#         200
  C:A54DH         LINE#         202
  C:A55FH         LINE#         203
  C:A55FH         LINE#         204
  C:A571H         LINE#         205
BL51 BANKED LINKER/LOCATER V6.22.2.0                                                  09/10/2021  16:23:10  PAGE 94


  C:A57BH         LINE#         206
  C:A583H         LINE#         207
  C:A588H         LINE#         208
  C:A58DH         LINE#         209
  C:A58DH         LINE#         211
  -------         ENDPROC       _DEBUGBUFFERMF
  -------         PROC          _DEBUG_BUFFER_RS232_LCD
  X:0011H         SYMBOL        str
  X:0014H         SYMBOL        num_char
  -------         DO            
  X:0015H         SYMBOL        j
  X:0016H         SYMBOL        d
  -------         ENDDO         
  C:AF99H         LINE#         212
  C:AFA7H         LINE#         213
  C:AFA7H         LINE#         215
  C:AFA9H         LINE#         216
  C:AFB7H         LINE#         217
  C:AFB7H         LINE#         218
  C:AFC9H         LINE#         219
  C:AFD3H         LINE#         220
  C:AFDBH         LINE#         221
  C:AFE5H         LINE#         224
  C:AFE7H         LINE#         225
  -------         ENDPROC       _DEBUG_BUFFER_RS232_LCD
  C:B16AH         SYMBOL        L?0082
  -------         PROC          L?0081
  -------         ENDPROC       L?0081
  C:B16AH         SYMBOL        L?0082
  -------         PROC          _DEBUG_TXT_TIBBO
  X:0064H         SYMBOL        str
  -------         DO            
  X:0067H         SYMBOL        i
  -------         ENDDO         
  C:B170H         LINE#         229
  C:B17BH         LINE#         230
  C:B17BH         LINE#         232
  C:B17EH         LINE#         234
  C:B186H         LINE#         235
  C:B186H         LINE#         236
  C:B1A2H         LINE#         237
  C:B1A2H         LINE#         238
  C:B1A5H         LINE#         239
  C:B1ADH         LINE#         241
  C:B1ADH         LINE#         242
  -------         ENDPROC       _DEBUG_TXT_TIBBO
  -------         PROC          _DEBUG_TXT_RS232
  X:0004H         SYMBOL        str
  -------         DO            
  X:0007H         SYMBOL        i
  X:0008H         SYMBOL        d
  -------         ENDDO         
  C:B93BH         LINE#         243
  C:B946H         LINE#         244
  C:B946H         LINE#         246
  C:B949H         LINE#         249
  C:B962H         LINE#         250
BL51 BANKED LINKER/LOCATER V6.22.2.0                                                  09/10/2021  16:23:10  PAGE 95


  C:B962H         LINE#         251
  C:B96AH         LINE#         252
  C:B972H         LINE#         255
  -------         ENDPROC       _DEBUG_TXT_RS232
  -------         PROC          DEBUG_DIVIDIR_TEXTO
  C:BE1EH         LINE#         256
  C:BE1EH         LINE#         257
  C:BE1EH         LINE#         258
  -------         ENDPROC       DEBUG_DIVIDIR_TEXTO
  -------         PROC          RX_DATA
  -------         DO            
  D:0006H         SYMBOL        temporal
  -------         ENDDO         
  C:A2EDH         LINE#         264
  C:A2EDH         LINE#         265
  C:A2EDH         LINE#         268
  C:A2EFH         LINE#         269
  C:A2F2H         LINE#         271
  C:A2F5H         LINE#         273
  C:A301H         LINE#         274
  C:A301H         LINE#         276
  C:A304H         LINE#         278
  C:A310H         LINE#         279
  C:A310H         LINE#         281
  C:A313H         LINE#         283
  C:A31FH         LINE#         284
  C:A31FH         LINE#         286
  C:A322H         LINE#         288
  C:A32EH         LINE#         289
  C:A32EH         LINE#         291
  C:A331H         LINE#         293
  C:A33DH         LINE#         294
  C:A33DH         LINE#         296
  C:A340H         LINE#         298
  C:A34CH         LINE#         299
  C:A34CH         LINE#         301
  C:A34FH         LINE#         303
  C:A35BH         LINE#         304
  C:A35BH         LINE#         306
  C:A35EH         LINE#         307
  C:A36CH         LINE#         309
  C:A36FH         LINE#         310
  C:A372H         LINE#         311
  C:A372H         LINE#         312
  C:A372H         LINE#         315
  C:A374H         LINE#         317
  -------         ENDPROC       RX_DATA
  -------         PROC          COND_INI_TIBBO
  C:BE6AH         LINE#         335
  C:BE6AH         LINE#         336
  C:BE6AH         LINE#         338
  C:BE6CH         LINE#         339
  C:BE6EH         LINE#         340
  -------         ENDPROC       COND_INI_TIBBO
  -------         PROC          _DEBUG_PTO_PARALELO
  X:0001H         SYMBOL        buffer
  X:0004H         SYMBOL        Length_trama
BL51 BANKED LINKER/LOCATER V6.22.2.0                                                  09/10/2021  16:23:10  PAGE 96


  C:B5B1H         LINE#         341
  C:B5BFH         LINE#         342
  C:B5BFH         LINE#         344
  C:B5C8H         LINE#         345
  C:B5DFH         LINE#         346
  C:B5E8H         LINE#         347
  C:B5EBH         LINE#         348
  C:B5EEH         LINE#         349
  -------         ENDPROC       _DEBUG_PTO_PARALELO
  -------         PROC          _DEBUG_MONITOR
  X:0011H         SYMBOL        buffer
  X:0014H         SYMBOL        Length_trama
  C:B764H         LINE#         352
  C:B772H         LINE#         353
  C:B772H         LINE#         354
  C:B775H         LINE#         355
  C:B77EH         LINE#         356
  C:B78CH         LINE#         357
  C:B78FH         LINE#         358
  C:B798H         LINE#         359
  C:B79BH         LINE#         360
  C:B79EH         LINE#         361
  -------         ENDPROC       _DEBUG_MONITOR
  -------         ENDMOD        TIBBO

  -------         MODULE        UART
  C:0000H         SYMBOL        _ICE_DUMMY_
  C:BBA9H         PUBLIC        com_getchar
  C:BD99H         PUBLIC        com_rbuflen
  C:BDABH         PUBLIC        com_tbuflen
  B:00A8H.4       PUBLIC        ES
  B:0098H.0       PUBLIC        RI
  C:B855H         PUBLIC        _com_putchar
  B:0098H.1       PUBLIC        TI
  B:0021H.4       PUBLIC        aSk
  B:00B8H.4       PUBLIC        PS
  D:000DH         SYMBOL        r_in
  D:000EH         SYMBOL        r_out
  D:000FH         SYMBOL        t_in
  D:0010H         SYMBOL        t_out
  D:0099H         PUBLIC        SBUF
  D:0087H         PUBLIC        PCON
  D:0089H         PUBLIC        TMOD
  B:0021H.5       SYMBOL        ti_restart
  B:00A8H.3       PUBLIC        ET1
  D:008DH         PUBLIC        TH1
  B:0098H.7       PUBLIC        SM0
  B:0098H.6       PUBLIC        SM1
  D:008BH         PUBLIC        TL1
  B:0098H.5       PUBLIC        SM2
  B:0088H.6       PUBLIC        TR1
  C:BB06H         PUBLIC        com_initialize
  X:0217H         PUBLIC        cnt__ask_off
  B:0098H.4       PUBLIC        REN
  C:B66EH         PUBLIC        com_baudrate
  C:5B40H         SYMBOL        com_isr
  -------         PROC          COM_ISR
BL51 BANKED LINKER/LOCATER V6.22.2.0                                                  09/10/2021  16:23:10  PAGE 97


  -------         DO            
  X:0215H         SYMBOL        cDatoRx
  D:0006H         SYMBOL        k
  D:0007H         SYMBOL        bcc
  X:0216H         SYMBOL        num_datos
  -------         ENDDO         
  C:5B40H         LINE#         102
  C:5B55H         LINE#         110
  C:5B5BH         LINE#         111
  C:5B5BH         LINE#         113
  C:5B5DH         LINE#         114
  C:5B63H         LINE#         115
  C:5B73H         LINE#         116
  C:5B73H         LINE#         117
  C:5B7EH         LINE#         118
  C:5B80H         LINE#         120
  C:5B80H         LINE#         121
  C:5B90H         LINE#         122
  C:5B90H         LINE#         123
  C:5B95H         LINE#         124
  C:5B95H         LINE#         125
  C:5BB2H         LINE#         126
  C:5BB2H         LINE#         130
  C:5BB2H         LINE#         133
  C:5BC1H         LINE#         134
  C:5BC1H         LINE#         135
  C:5BC3H         LINE#         136
  C:5BCBH         LINE#         137
  C:5BD0H         LINE#         139
  C:5BD0H         LINE#         141
  C:5BD3H         LINE#         145
  C:5BD3H         LINE#         146
  C:5BD3H         LINE#         147
  C:5BEBH         LINE#         148
  C:5BFAH         LINE#         149
  C:5BFAH         LINE#         150
  C:5BFAH         LINE#         151
  C:5BFCH         LINE#         153
  C:5BFCH         LINE#         154
  C:5BFEH         LINE#         155
  C:5BFEH         LINE#         156
  C:5BFEH         LINE#         157
  C:5C01H         LINE#         161
  C:5C01H         LINE#         163
  C:5C0AH         LINE#         164
  C:5C0AH         LINE#         166
  C:5C10H         LINE#         167
  C:5C23H         LINE#         168
  C:5C23H         LINE#         169
  C:5C26H         LINE#         171
  C:5C26H         LINE#         172
  C:5C3BH         LINE#         173
  C:5C41H         LINE#         174
  C:5C41H         LINE#         176
  C:5C44H         LINE#         180
  C:5C44H         LINE#         182
  C:5C5CH         LINE#         183
BL51 BANKED LINKER/LOCATER V6.22.2.0                                                  09/10/2021  16:23:10  PAGE 98


  C:5C62H         LINE#         184
  C:5C65H         LINE#         185
  C:5C65H         LINE#         186
  C:5C7DH         LINE#         187
  C:5C7DH         LINE#         188
  C:5C7EH         LINE#         189
  C:5C8BH         LINE#         190
  C:5C8BH         LINE#         191
  C:5C98H         LINE#         192
  C:5C9BH         LINE#         193
  C:5CA9H         LINE#         194
  C:5CA9H         LINE#         195
  C:5CABH         LINE#         196
  C:5CB0H         LINE#         197
  C:5CB2H         LINE#         198
  C:5CB6H         LINE#         200
  C:5CB8H         LINE#         202
  C:5CB8H         LINE#         203
  C:5CB8H         LINE#         204
  C:5CB8H         LINE#         205
  C:5CBAH         LINE#         207
  C:5CBAH         LINE#         208
  C:5CBAH         LINE#         209
  C:5CBAH         LINE#         211
  C:5CBCH         LINE#         213
  C:5CBCH         LINE#         214
  C:5CC2H         LINE#         215
  C:5CC2H         LINE#         217
  C:5CC4H         LINE#         218
  C:5CC4H         LINE#         219
  C:5CDCH         LINE#         220
  C:5CFAH         LINE#         221
  C:5CFAH         LINE#         222
  C:5CFCH         LINE#         223
  C:5CFEH         LINE#         224
  C:5CFEH         LINE#         225
  C:5CFEH         LINE#         227
  C:5D00H         LINE#         231
  C:5D00H         LINE#         232
  C:5D05H         LINE#         233
  C:5D05H         LINE#         234
  C:5D05H         LINE#         235
  C:5D05H         LINE#         240
  C:5D08H         LINE#         241
  C:5D08H         LINE#         242
  C:5D0AH         LINE#         244
  C:5D10H         LINE#         245
  C:5D10H         LINE#         246
  C:5D1AH         LINE#         248
  C:5D1CH         LINE#         249
  C:5D1EH         LINE#         250
  C:5D20H         LINE#         252
  C:5D20H         LINE#         253
  C:5D22H         LINE#         254
  C:5D22H         LINE#         255
  C:5D22H         LINE#         257
  -------         ENDPROC       COM_ISR
BL51 BANKED LINKER/LOCATER V6.22.2.0                                                  09/10/2021  16:23:10  PAGE 99


  -------         PROC          COM_INITIALIZE
  C:BB06H         LINE#         273
  C:BB0DH         LINE#         274
  C:BB0DH         LINE#         278
  C:BB10H         LINE#         283
  C:BB13H         LINE#         284
  C:BB15H         LINE#         286
  C:BB17H         LINE#         287
  C:BB19H         LINE#         292
  C:BB1DH         LINE#         293
  C:BB1FH         LINE#         294
  C:BB21H         LINE#         296
  C:BB23H         LINE#         297
  C:BB25H         LINE#         298
  C:BB27H         LINE#         300
  C:BB29H         LINE#         301
  C:BB2BH         LINE#         302
  -------         ENDPROC       COM_INITIALIZE
  -------         PROC          COM_BAUDRATE
  -------         DO            
  D:0007H         SYMBOL        dataee
  -------         ENDDO         
  C:B66EH         LINE#         308
  C:B675H         LINE#         310
  C:B675H         LINE#         312
  C:B67EH         LINE#         317
  C:B680H         LINE#         318
  C:B683H         LINE#         319
  C:B685H         LINE#         324
  C:B687H         LINE#         325
  C:B689H         LINE#         327
  C:B68CH         LINE#         329
  C:B68FH         LINE#         330
  C:B692H         LINE#         332
  C:B695H         LINE#         333
  C:B695H         LINE#         334
  C:B698H         LINE#         335
  C:B69BH         LINE#         336
  C:B69DH         LINE#         337
  C:B69FH         LINE#         339
  C:B69FH         LINE#         341
  C:B6A2H         LINE#         342
  C:B6A5H         LINE#         343
  C:B6A7H         LINE#         344
  C:B6A7H         LINE#         345
  -------         ENDPROC       COM_BAUDRATE
  -------         PROC          _COM_PUTCHAR
  X:00AAH         SYMBOL        c
  C:B855H         LINE#         351
  C:B861H         LINE#         352
  C:B861H         LINE#         356
  C:B86EH         LINE#         357
  C:B872H         LINE#         363
  C:B880H         LINE#         365
  C:B882H         LINE#         367
  C:B885H         LINE#         368
  C:B885H         LINE#         369
BL51 BANKED LINKER/LOCATER V6.22.2.0                                                  09/10/2021  16:23:10  PAGE 100


  C:B887H         LINE#         370
  C:B889H         LINE#         371
  C:B889H         LINE#         373
  C:B88BH         LINE#         374
  -------         ENDPROC       _COM_PUTCHAR
  -------         PROC          COM_GETCHAR
  C:BBA9H         LINE#         380
  C:BBB0H         LINE#         381
  C:BBB0H         LINE#         382
  C:BBB6H         LINE#         383
  C:BBBCH         LINE#         385
  C:BBCAH         LINE#         386
  -------         ENDPROC       COM_GETCHAR
  -------         PROC          COM_RBUFLEN
  C:BD99H         LINE#         392
  C:BDA0H         LINE#         393
  C:BDA0H         LINE#         394
  C:BDA6H         LINE#         395
  -------         ENDPROC       COM_RBUFLEN
  -------         PROC          COM_TBUFLEN
  C:BDABH         LINE#         401
  C:BDB2H         LINE#         402
  C:BDB2H         LINE#         403
  C:BDB8H         LINE#         404
  -------         ENDPROC       COM_TBUFLEN
  -------         ENDMOD        UART

  -------         MODULE        LINTECH
  C:0000H         SYMBOL        _ICE_DUMMY_
  C:9AEAH         PUBLIC        _Inicializa
  C:8E68H         PUBLIC        _RD_MF
  C:9715H         PUBLIC        Dwload_EEprom
  C:9E7EH         PUBLIC        _Card_Insercion
  C:8381H         PUBLIC        _Mov_Card
  C:77CBH         PUBLIC        _WR_MF
  C:939BH         PUBLIC        _Dwload_EEprom_prog
  C:A0BFH         PUBLIC        LoadVerify_EEprom
  C:A375H         PUBLIC        Unique_Identifier_UID
  C:A99DH         PUBLIC        Power_off
  C:A484H         PUBLIC        _Check_Status
  C:966BH         PUBLIC        Clave_Seguridad_S2
  C:A91DH         PUBLIC        Aut_Card_check_Status
  -------         PROC          _INICIALIZA
  X:0002H         SYMBOL        TipoMovimiento
  -------         DO            
  D:0003H         SYMBOL        j
  X:0003H         SYMBOL        bcc
  X:0004H         SYMBOL        g_scArrTxComSoft
  -------         ENDDO         
  C:9AEAH         LINE#         69
  C:9AEFH         LINE#         70
  C:9AEFH         LINE#         73
  C:9AF2H         LINE#         74
  C:9B08H         LINE#         75
  C:9B08H         LINE#         77
  C:9B11H         LINE#         79
  C:9B17H         LINE#         80
BL51 BANKED LINKER/LOCATER V6.22.2.0                                                  09/10/2021  16:23:10  PAGE 101


  C:9B1AH         LINE#         81
  C:9B1CH         LINE#         82
  C:9B20H         LINE#         83
  C:9B24H         LINE#         84
  C:9B28H         LINE#         85
  C:9B30H         LINE#         86
  C:9B34H         LINE#         87
  C:9B40H         LINE#         88
  C:9B40H         LINE#         89
  C:9B54H         LINE#         90
  C:9B57H         LINE#         91
  C:9B5FH         LINE#         92
  C:9B61H         LINE#         93
  C:9B66H         LINE#         94
  C:9B75H         LINE#         95
  C:9B80H         LINE#         96
  C:9B86H         LINE#         97
  C:9B86H         LINE#         98
  -------         ENDPROC       _INICIALIZA
  -------         PROC          _CHECK_STATUS
  X:0002H         SYMBOL        Detalle
  -------         DO            
  D:0006H         SYMBOL        j
  D:0007H         SYMBOL        bcc
  X:0003H         SYMBOL        g_scArrTxComSoft
  -------         ENDDO         
  C:A484H         LINE#         110
  C:A489H         LINE#         111
  C:A489H         LINE#         115
  C:A48FH         LINE#         116
  C:A48FH         LINE#         117
  C:A493H         LINE#         118
  C:A495H         LINE#         120
  C:A495H         LINE#         121
  C:A49CH         LINE#         122
  C:A49CH         LINE#         123
  C:A49EH         LINE#         125
  C:A4A4H         LINE#         126
  C:A4A7H         LINE#         127
  C:A4A9H         LINE#         128
  C:A4ADH         LINE#         129
  C:A4B1H         LINE#         130
  C:A4B5H         LINE#         131
  C:A4BDH         LINE#         132
  C:A4C1H         LINE#         133
  C:A4CDH         LINE#         134
  C:A4CDH         LINE#         135
  C:A4DAH         LINE#         136
  C:A4DDH         LINE#         137
  C:A4E2H         LINE#         138
  C:A4E4H         LINE#         139
  C:A4E9H         LINE#         140
  C:A4F8H         LINE#         141
  C:A503H         LINE#         142
  C:A509H         LINE#         143
  -------         ENDPROC       _CHECK_STATUS
  -------         PROC          _CARD_INSERCION
BL51 BANKED LINKER/LOCATER V6.22.2.0                                                  09/10/2021  16:23:10  PAGE 102


  D:0007H         SYMBOL        Tipo
  -------         DO            
  D:0006H         SYMBOL        j
  D:0007H         SYMBOL        bcc
  X:0002H         SYMBOL        g_scArrTxComSoft
  -------         ENDDO         
  C:9E7EH         LINE#         153
  C:9E7EH         LINE#         154
  C:9E7EH         LINE#         157
  C:9E8BH         LINE#         158
  C:9E8BH         LINE#         159
  C:9E92H         LINE#         160
  C:9E98H         LINE#         161
  C:9E9AH         LINE#         163
  C:9E9AH         LINE#         165
  C:9EA1H         LINE#         166
  C:9EA7H         LINE#         168
  C:9EA7H         LINE#         170
  C:9EA9H         LINE#         172
  C:9EAFH         LINE#         173
  C:9EB2H         LINE#         174
  C:9EB4H         LINE#         175
  C:9EB8H         LINE#         176
  C:9EBCH         LINE#         177
  C:9EC0H         LINE#         179
  C:9EC6H         LINE#         180
  C:9ED2H         LINE#         181
  C:9ED2H         LINE#         182
  C:9EDFH         LINE#         183
  C:9EE2H         LINE#         185
  C:9EE7H         LINE#         187
  C:9EE9H         LINE#         188
  C:9EEEH         LINE#         189
  C:9EFDH         LINE#         190
  C:9F08H         LINE#         191
  C:9F0EH         LINE#         192
  -------         ENDPROC       _CARD_INSERCION
  -------         PROC          _MOV_CARD
  X:0002H         SYMBOL        Posicion
  -------         DO            
  D:0003H         SYMBOL        j
  X:0003H         SYMBOL        bcc
  X:0004H         SYMBOL        g_scArrTxComSoft
  -------         ENDDO         
  C:8381H         LINE#         203
  C:8386H         LINE#         204
  C:8386H         LINE#         207
  C:8389H         LINE#         209
  C:83A9H         LINE#         210
  C:83A9H         LINE#         211
  C:83B0H         LINE#         212
  C:83B0H         LINE#         213
  C:83B6H         LINE#         214
  C:83B8H         LINE#         215
  C:83BFH         LINE#         216
  C:83BFH         LINE#         217
  C:83C5H         LINE#         218
BL51 BANKED LINKER/LOCATER V6.22.2.0                                                  09/10/2021  16:23:10  PAGE 103


  C:83C7H         LINE#         219
  C:83CEH         LINE#         220
  C:83CEH         LINE#         221
  C:83D4H         LINE#         222
  C:83D6H         LINE#         223
  C:83DDH         LINE#         224
  C:83DDH         LINE#         225
  C:83E3H         LINE#         226
  C:83E5H         LINE#         227
  C:83ECH         LINE#         228
  C:83ECH         LINE#         229
  C:83F5H         LINE#         230
  C:83F5H         LINE#         232
  C:83FBH         LINE#         233
  C:83FEH         LINE#         234
  C:8400H         LINE#         235
  C:8404H         LINE#         236
  C:8408H         LINE#         237
  C:840CH         LINE#         238
  C:8414H         LINE#         239
  C:8418H         LINE#         240
  C:8424H         LINE#         241
  C:8424H         LINE#         242
  C:8438H         LINE#         243
  C:843BH         LINE#         244
  C:8443H         LINE#         245
  C:8445H         LINE#         246
  C:844AH         LINE#         247
  C:8459H         LINE#         248
  C:8464H         LINE#         249
  C:846AH         LINE#         250
  C:846AH         LINE#         252
  -------         ENDPROC       _MOV_CARD
  -------         PROC          AUT_CARD_CHECK_STATUS
  -------         DO            
  D:0003H         SYMBOL        j
  X:0002H         SYMBOL        bcc
  X:0003H         SYMBOL        g_scArrTxComSoft
  -------         ENDDO         
  C:A91DH         LINE#         258
  C:A91DH         LINE#         259
  C:A91DH         LINE#         262
  C:A922H         LINE#         264
  C:A92BH         LINE#         266
  C:A931H         LINE#         267
  C:A934H         LINE#         268
  C:A936H         LINE#         269
  C:A93AH         LINE#         270
  C:A93EH         LINE#         271
  C:A942H         LINE#         272
  C:A946H         LINE#         273
  C:A94AH         LINE#         274
  C:A956H         LINE#         275
  C:A956H         LINE#         276
  C:A96AH         LINE#         277
  C:A96DH         LINE#         278
  C:A975H         LINE#         279
BL51 BANKED LINKER/LOCATER V6.22.2.0                                                  09/10/2021  16:23:10  PAGE 104


  C:A977H         LINE#         280
  C:A97CH         LINE#         281
  C:A98BH         LINE#         282
  C:A996H         LINE#         283
  C:A99CH         LINE#         284
  -------         ENDPROC       AUT_CARD_CHECK_STATUS
  -------         PROC          CLAVE_SEGURIDAD_S2
  -------         DO            
  D:0003H         SYMBOL        j
  X:0002H         SYMBOL        bcc
  X:0003H         SYMBOL        g_scArrTxComSoft
  -------         ENDDO         
  C:966BH         LINE#         287
  C:966BH         LINE#         288
  C:966BH         LINE#         291
  C:9670H         LINE#         292
  C:9679H         LINE#         295
  C:967FH         LINE#         296
  C:9682H         LINE#         297
  C:9684H         LINE#         298
  C:9688H         LINE#         299
  C:968CH         LINE#         300
  C:9690H         LINE#         301
  C:9694H         LINE#         302
  C:9697H         LINE#         303
  C:969BH         LINE#         304
  C:969EH         LINE#         305
  C:96A2H         LINE#         307
  C:96A6H         LINE#         309
  C:96AAH         LINE#         310
  C:96AEH         LINE#         311
  C:96B2H         LINE#         312
  C:96B6H         LINE#         313
  C:96BAH         LINE#         314
  C:96BEH         LINE#         317
  C:96C2H         LINE#         319
  C:96CEH         LINE#         320
  C:96CEH         LINE#         321
  C:96E2H         LINE#         322
  C:96E5H         LINE#         323
  C:96EDH         LINE#         324
  C:96EFH         LINE#         325
  C:96F4H         LINE#         326
  C:9703H         LINE#         327
  C:970EH         LINE#         328
  C:9714H         LINE#         331
  -------         ENDPROC       CLAVE_SEGURIDAD_S2
  -------         PROC          DWLOAD_EEPROM
  -------         DO            
  D:0003H         SYMBOL        j
  X:0002H         SYMBOL        bcc
  X:0003H         SYMBOL        g_scArrTxComSoft
  -------         ENDDO         
  C:9715H         LINE#         336
  C:9715H         LINE#         337
  C:9715H         LINE#         340
  C:971AH         LINE#         341
BL51 BANKED LINKER/LOCATER V6.22.2.0                                                  09/10/2021  16:23:10  PAGE 105


  C:9723H         LINE#         343
  C:9729H         LINE#         344
  C:972CH         LINE#         345
  C:972EH         LINE#         346
  C:9732H         LINE#         347
  C:9736H         LINE#         348
  C:973AH         LINE#         349
  C:973EH         LINE#         350
  C:9741H         LINE#         351
  C:9745H         LINE#         352
  C:9748H         LINE#         353
  C:974BH         LINE#         354
  C:974FH         LINE#         355
  C:9753H         LINE#         356
  C:9757H         LINE#         357
  C:975BH         LINE#         358
  C:975FH         LINE#         359
  C:9763H         LINE#         360
  C:9767H         LINE#         361
  C:976BH         LINE#         363
  C:9777H         LINE#         364
  C:9777H         LINE#         365
  C:978BH         LINE#         366
  C:978EH         LINE#         367
  C:9796H         LINE#         368
  C:9798H         LINE#         369
  C:979DH         LINE#         370
  C:97ACH         LINE#         371
  C:97B7H         LINE#         372
  C:97BDH         LINE#         373
  -------         ENDPROC       DWLOAD_EEPROM
  -------         PROC          _DWLOAD_EEPROM_PROG
  X:0026H         SYMBOL        password
  -------         DO            
  D:0003H         SYMBOL        j
  X:0029H         SYMBOL        bcc
  X:002AH         SYMBOL        g_scArrTxComSoft
  -------         ENDDO         
  C:939BH         LINE#         375
  C:93A6H         LINE#         376
  C:93A6H         LINE#         379
  C:93A9H         LINE#         380
  C:93B2H         LINE#         382
  C:93B8H         LINE#         383
  C:93BBH         LINE#         384
  C:93BDH         LINE#         385
  C:93C1H         LINE#         386
  C:93C5H         LINE#         387
  C:93C9H         LINE#         388
  C:93CDH         LINE#         389
  C:93D0H         LINE#         390
  C:93D4H         LINE#         391
  C:93D7H         LINE#         392
  C:93DAH         LINE#         393
  C:93DEH         LINE#         394
  C:93F0H         LINE#         395
  C:93FAH         LINE#         396
BL51 BANKED LINKER/LOCATER V6.22.2.0                                                  09/10/2021  16:23:10  PAGE 106


  C:9404H         LINE#         397
  C:940EH         LINE#         398
  C:9418H         LINE#         399
  C:9422H         LINE#         400
  C:9426H         LINE#         402
  C:9432H         LINE#         403
  C:9432H         LINE#         404
  C:9446H         LINE#         405
  C:9449H         LINE#         406
  C:9451H         LINE#         407
  C:9453H         LINE#         412
  -------         ENDPROC       _DWLOAD_EEPROM_PROG
  -------         PROC          LOADVERIFY_EEPROM
  -------         DO            
  D:0003H         SYMBOL        j
  X:0002H         SYMBOL        bcc
  X:0003H         SYMBOL        g_scArrTxComSoft
  -------         ENDDO         
  C:A0BFH         LINE#         417
  C:A0BFH         LINE#         418
  C:A0BFH         LINE#         421
  C:A0C4H         LINE#         422
  C:A0CDH         LINE#         425
  C:A0D3H         LINE#         426
  C:A0D6H         LINE#         427
  C:A0D8H         LINE#         428
  C:A0DCH         LINE#         429
  C:A0E0H         LINE#         430
  C:A0E4H         LINE#         431
  C:A0E8H         LINE#         432
  C:A0EBH         LINE#         433
  C:A0EFH         LINE#         434
  C:A0F2H         LINE#         435
  C:A0F5H         LINE#         436
  C:A0F9H         LINE#         441
  C:A105H         LINE#         442
  C:A105H         LINE#         443
  C:A119H         LINE#         444
  C:A11CH         LINE#         445
  C:A124H         LINE#         446
  C:A126H         LINE#         447
  C:A12BH         LINE#         448
  C:A13AH         LINE#         449
  C:A145H         LINE#         450
  C:A14BH         LINE#         452
  -------         ENDPROC       LOADVERIFY_EEPROM
  -------         PROC          _RD_MF
  X:0002H         SYMBOL        Sector
  X:0003H         SYMBOL        Bloque
  -------         DO            
  D:0003H         SYMBOL        j
  X:0004H         SYMBOL        bcc
  X:0005H         SYMBOL        g_scArrTxComSoft
  -------         ENDDO         
  C:8E68H         LINE#         458
  C:8E70H         LINE#         459
  C:8E70H         LINE#         463
BL51 BANKED LINKER/LOCATER V6.22.2.0                                                  09/10/2021  16:23:10  PAGE 107


  C:8E73H         LINE#         465
  C:8E7CH         LINE#         466
  C:8E84H         LINE#         468
  C:8E8DH         LINE#         469
  C:8E95H         LINE#         470
  C:8E9EH         LINE#         473
  C:8EA4H         LINE#         474
  C:8EA7H         LINE#         475
  C:8EA9H         LINE#         476
  C:8EADH         LINE#         477
  C:8EB1H         LINE#         478
  C:8EB5H         LINE#         479
  C:8EB9H         LINE#         480
  C:8EBCH         LINE#         481
  C:8EC0H         LINE#         482
  C:8EC8H         LINE#         483
  C:8ED0H         LINE#         484
  C:8ED4H         LINE#         485
  C:8ED8H         LINE#         487
  C:8EE4H         LINE#         488
  C:8EE4H         LINE#         489
  C:8EF8H         LINE#         490
  C:8EFBH         LINE#         491
  C:8F03H         LINE#         494
  C:8F05H         LINE#         495
  C:8F0AH         LINE#         496
  C:8F19H         LINE#         497
  C:8F24H         LINE#         498
  C:8F2AH         LINE#         500
  -------         ENDPROC       _RD_MF
  -------         PROC          _WR_MF
  X:0002H         SYMBOL        Sector
  X:0003H         SYMBOL        Bloque
  X:0004H         SYMBOL        buffer
  -------         DO            
  D:0005H         SYMBOL        j
  X:0007H         SYMBOL        bcc
  X:0008H         SYMBOL        g_scArrTxComSoft
  -------         ENDDO         
  C:77CBH         LINE#         507
  C:77DCH         LINE#         509
  C:77DCH         LINE#         512
  C:77DFH         LINE#         514
  C:77E8H         LINE#         515
  C:77F0H         LINE#         517
  C:77F9H         LINE#         518
  C:7801H         LINE#         519
  C:780AH         LINE#         521
  C:7810H         LINE#         522
  C:7813H         LINE#         523
  C:7815H         LINE#         524
  C:7819H         LINE#         526
  C:781DH         LINE#         527
  C:7821H         LINE#         528
  C:7825H         LINE#         529
  C:7828H         LINE#         530
  C:782CH         LINE#         531
BL51 BANKED LINKER/LOCATER V6.22.2.0                                                  09/10/2021  16:23:10  PAGE 108


  C:7834H         LINE#         532
  C:783CH         LINE#         533
  C:7840H         LINE#         535
  C:784CH         LINE#         536
  C:784CH         LINE#         537
  C:786CH         LINE#         538
  C:786FH         LINE#         540
  C:7875H         LINE#         542
  C:7881H         LINE#         543
  C:7881H         LINE#         544
  C:7898H         LINE#         545
  C:789BH         LINE#         546
  C:78A3H         LINE#         549
  C:78A5H         LINE#         550
  C:78AAH         LINE#         551
  C:78B9H         LINE#         552
  C:78C4H         LINE#         553
  C:78CAH         LINE#         555
  -------         ENDPROC       _WR_MF
  -------         PROC          UNIQUE_IDENTIFIER_UID
  -------         DO            
  D:0003H         SYMBOL        j
  X:0002H         SYMBOL        bcc
  X:0003H         SYMBOL        g_scArrTxComSoft
  -------         ENDDO         
  C:A375H         LINE#         560
  C:A375H         LINE#         561
  C:A375H         LINE#         564
  C:A37AH         LINE#         566
  C:A383H         LINE#         568
  C:A389H         LINE#         569
  C:A38CH         LINE#         570
  C:A38EH         LINE#         571
  C:A392H         LINE#         572
  C:A396H         LINE#         573
  C:A39AH         LINE#         574
  C:A39EH         LINE#         575
  C:A3A2H         LINE#         576
  C:A3A6H         LINE#         577
  C:A3AAH         LINE#         578
  C:A3B6H         LINE#         579
  C:A3B6H         LINE#         580
  C:A3CAH         LINE#         581
  C:A3CDH         LINE#         582
  C:A3D5H         LINE#         583
  C:A3D7H         LINE#         584
  C:A3DCH         LINE#         585
  C:A3EBH         LINE#         586
  C:A3F6H         LINE#         587
  C:A3FCH         LINE#         588
  -------         ENDPROC       UNIQUE_IDENTIFIER_UID
  -------         PROC          POWER_OFF
  -------         DO            
  D:0003H         SYMBOL        j
  X:0002H         SYMBOL        bcc
  X:0003H         SYMBOL        g_scArrTxComSoft
  -------         ENDDO         
BL51 BANKED LINKER/LOCATER V6.22.2.0                                                  09/10/2021  16:23:10  PAGE 109


  C:A99DH         LINE#         589
  C:A99DH         LINE#         590
  C:A99DH         LINE#         593
  C:A9A2H         LINE#         595
  C:A9ABH         LINE#         597
  C:A9B1H         LINE#         598
  C:A9B4H         LINE#         599
  C:A9B6H         LINE#         600
  C:A9BAH         LINE#         601
  C:A9BEH         LINE#         602
  C:A9C2H         LINE#         603
  C:A9C6H         LINE#         604
  C:A9CAH         LINE#         605
  C:A9D6H         LINE#         606
  C:A9D6H         LINE#         607
  C:A9EAH         LINE#         608
  C:A9EDH         LINE#         609
  C:A9F5H         LINE#         610
  C:A9F7H         LINE#         611
  C:A9FCH         LINE#         612
  C:AA0BH         LINE#         613
  C:AA16H         LINE#         614
  C:AA1CH         LINE#         617
  -------         ENDPROC       POWER_OFF
  -------         ENDMOD        LINTECH

  -------         MODULE        VERIFICADOR
  C:0000H         SYMBOL        _ICE_DUMMY_
  D:0080H         PUBLIC        P0
  C:9A4CH         PUBLIC        Ingreso_Vehiculo
  D:0090H         PUBLIC        P1
  C:BAB0H         PUBLIC        _Armar_Trama_Tarjeta_Sector1_Bloque0
  D:00B0H         PUBLIC        P3
  C:88BEH         PUBLIC        _Valida_Tipo_Tarjeta
  C:B7BDH         PUBLIC        _Load_Secuencia_Expedidor
  C:5D35H         PUBLIC        _Armar_Trama_Tarjeta_Sector1_Bloque2
  C:509FH         PUBLIC        _Armar_Trama_Pto_Paralelo_Expedidor
  B:0080H.2       PUBLIC        led_err_imp
  C:BB30H         PUBLIC        Analiza_Presencia_rotacion
  C:A02FH         PUBLIC        _Disparo_Lock_Entrada_Vehiculo
  C:A58EH         PUBLIC        _Armar_Trama_Placa
  C:862DH         PUBLIC        _rta_cmd_transporte
  C:4DFCH         PUBLIC        _Armar_Trama_Monitor
  C:6B1EH         PUBLIC        Secuencia_inicio_expedidor
  C:8998H         PUBLIC        _Analiza_Uid_Card
  B:0080H.0       PUBLIC        rx_ip
  B:0080H.3       PUBLIC        Atascado_GP0_PIN_3
  B:0090H.7       PUBLIC        lock
  C:9D55H         PUBLIC        _Responde_Lectura_Tarjeta_Sector1_Bloque0
  C:8FEDH         PUBLIC        error_rx_pto
  C:5F20H         PUBLIC        _Responde_Lectura_Tarjeta_Sector1_Bloque1
  C:6FFDH         PUBLIC        _Responde_Lectura_Tarjeta_Sector1_Bloque2
  C:B2CBH         PUBLIC        Respuesta_Placa_Cancel
  B:0090H.1       PUBLIC        DataIn
  C:9864H         PUBLIC        _Send_Pto_Paralelo
  C:B6ACH         PUBLIC        Trama_Validacion_P_N
  B:0022H.0       PUBLIC        MenSual
BL51 BANKED LINKER/LOCATER V6.22.2.0                                                  09/10/2021  16:23:10  PAGE 110


  C:6ECFH         PUBLIC        _Armar_Trama_Pto_Paralelo_Expedidor_Mensual
  C:674CH         PUBLIC        _Responde_ReeLectura_Tarjeta_Sector1_Bloque2
  C:38AFH         PUBLIC        _SecuenciaExpedidorMF
  C:BA78H         PUBLIC        Pregunta_Placa_Habilitada
  C:AD86H         PUBLIC        _Pregunta_Lpr
  C:A14CH         PUBLIC        Wait_Placa
  C:AA9AH         PUBLIC        Responde_Estado_Sensores_Transporte
  C:9B87H         PUBLIC        Entrega_Card_Captura
  C:ADE3H         PUBLIC        _Respuesta_Segunda_clave
  X:0147H         SYMBOL        Estado
  C:B9A9H         PUBLIC        _Responde_Write_Tarjeta_Sector1_Bloque0
  C:B973H         PUBLIC        _Responde_Write_Tarjeta_Sector1_Bloque1
  C:B284H         PUBLIC        _Responde_Write_Tarjeta_Sector2_Bloque0
  C:A3FDH         PUBLIC        _Responde_Write_Tarjeta_Sector1_Bloque2
  C:A719H         PUBLIC        Responde_Tipo_Tarjeta
  C:BA47H         PUBLIC        _Tarjeta_Rotacion
  -------         PROC          TRAMA_VALIDACION_P_N
  -------         DO            
  D:0007H         SYMBOL        Trama_Validacion_P_N
  -------         ENDDO         
  C:B6ACH         LINE#         579
  C:B6ACH         LINE#         580
  C:B6ACH         LINE#         581
  C:B6AEH         LINE#         583
  C:B6C4H         LINE#         584
  C:B6C4H         LINE#         585
  C:B6C7H         LINE#         586
  C:B6C7H         LINE#         587
  C:B6C9H         LINE#         590
  C:B6D1H         LINE#         591
  C:B6D1H         LINE#         593
  C:B6D3H         LINE#         595
  C:B6D4H         LINE#         596
  C:B6D8H         LINE#         597
  C:B6D8H         LINE#         599
  C:B6DAH         LINE#         601
  C:B6DBH         LINE#         603
  C:B6DBH         LINE#         604
  C:B6E4H         LINE#         605
  C:B6E6H         LINE#         607
  C:B6E6H         LINE#         608
  C:B6E7H         LINE#         610
  C:B6E7H         LINE#         612
  C:B6E9H         LINE#         614
  C:B6E9H         LINE#         616
  C:B6E9H         LINE#         618
  C:B6E9H         LINE#         619
  -------         ENDPROC       TRAMA_VALIDACION_P_N
  -------         PROC          ERROR_RX_PTO
  -------         DO            
  X:00B7H         SYMBOL        cnt_espera_ask_on
  X:0007H         SYMBOL        error_rx_pto
  -------         ENDDO         
  C:8FEDH         LINE#         643
  C:8FEDH         LINE#         644
  C:8FEDH         LINE#         647
  C:8FF3H         LINE#         651
BL51 BANKED LINKER/LOCATER V6.22.2.0                                                  09/10/2021  16:23:10  PAGE 111


  C:8FFCH         LINE#         652
  C:9004H         LINE#         653
  C:900DH         LINE#         654
  C:9015H         LINE#         655
  C:901EH         LINE#         656
  C:9021H         LINE#         658
  C:9021H         LINE#         659
  C:9027H         LINE#         660
  C:9031H         LINE#         661
  C:9031H         LINE#         662
  C:903AH         LINE#         663
  C:903CH         LINE#         664
  C:9043H         LINE#         665
  C:9048H         LINE#         666
  C:904EH         LINE#         667
  C:9053H         LINE#         668
  C:9055H         LINE#         669
  C:905CH         LINE#         670
  C:9062H         LINE#         671
  C:9062H         LINE#         673
  C:9062H         LINE#         674
  C:9067H         LINE#         675
  C:9067H         LINE#         676
  C:9067H         LINE#         677
  C:9069H         LINE#         679
  C:9069H         LINE#         680
  C:9077H         LINE#         681
  C:908AH         LINE#         682
  C:908AH         LINE#         683
  C:908BH         LINE#         685
  C:9091H         LINE#         686
  C:9095H         LINE#         687
  C:9097H         LINE#         688
  C:9097H         LINE#         689
  C:9099H         LINE#         691
  C:9099H         LINE#         692
  C:909AH         LINE#         693
  C:909FH         LINE#         694
  C:90A5H         LINE#         695
  C:90A5H         LINE#         696
  C:90A5H         LINE#         697
  C:90AAH         LINE#         698
  -------         ENDPROC       ERROR_RX_PTO
  -------         PROC          _RTA_CMD_TRANSPORTE
  X:0002H         SYMBOL        secuencia_Expedidor
  -------         DO            
  X:0005H         SYMBOL        temp
  X:0006H         SYMBOL        EstadoComSeqMF
  -------         ENDDO         
  C:862DH         LINE#         714
  C:8638H         LINE#         715
  C:8638H         LINE#         721
  C:8645H         LINE#         722
  C:8645H         LINE#         723
  C:864DH         LINE#         724
  C:864DH         LINE#         725
  C:865BH         LINE#         726
BL51 BANKED LINKER/LOCATER V6.22.2.0                                                  09/10/2021  16:23:10  PAGE 112


  C:865EH         LINE#         727
  C:8664H         LINE#         728
  C:8664H         LINE#         729
  C:866DH         LINE#         730
  C:8681H         LINE#         731
  C:8689H         LINE#         732
  C:8689H         LINE#         733
  C:8692H         LINE#         734
  C:8692H         LINE#         736
  C:86A3H         LINE#         738
  C:86A5H         LINE#         740
  C:86A5H         LINE#         743
  C:86BDH         LINE#         744
  C:86BDH         LINE#         745
  C:86C8H         LINE#         746
  C:86CAH         LINE#         748
  C:86CAH         LINE#         749
  C:86D8H         LINE#         750
  C:86D8H         LINE#         751
  C:86D8H         LINE#         752
  C:86DAH         LINE#         754
  C:86DAH         LINE#         756
  C:86EEH         LINE#         757
  C:8703H         LINE#         758
  C:8703H         LINE#         759
  C:8708H         LINE#         760
  -------         ENDPROC       _RTA_CMD_TRANSPORTE
  -------         PROC          ANALIZA_PRESENCIA_ROTACION
  -------         DO            
  X:0002H         SYMBOL        Estado_expedidor
  -------         ENDDO         
  C:BB30H         LINE#         821
  C:BB30H         LINE#         822
  C:BB30H         LINE#         824
  C:BB36H         LINE#         825
  C:BB36H         LINE#         827
  C:BB3CH         LINE#         828
  C:BB3EH         LINE#         830
  C:BB3EH         LINE#         832
  C:BB43H         LINE#         833
  C:BB48H         LINE#         834
  C:BB4EH         LINE#         835
  C:BB54H         LINE#         837
  C:BB54H         LINE#         838
  C:BB59H         LINE#         839
  -------         ENDPROC       ANALIZA_PRESENCIA_ROTACION
  -------         PROC          _ANALIZA_UID_CARD
  X:0002H         SYMBOL        Atributos_Expedidor
  -------         DO            
  X:0005H         SYMBOL        Estado_expedidor
  D:0007H         SYMBOL        temp
  X:0006H         SYMBOL        buffer_UID
  -------         ENDDO         
  C:8998H         LINE#         843
  C:89A3H         LINE#         844
  C:89A3H         LINE#         848
  C:89B3H         LINE#         849
BL51 BANKED LINKER/LOCATER V6.22.2.0                                                  09/10/2021  16:23:10  PAGE 113


  C:89B3H         LINE#         851
  C:89BFH         LINE#         852
  C:89BFH         LINE#         853
  C:89D7H         LINE#         855
  C:89DAH         LINE#         857
  C:89E3H         LINE#         858
  C:89F4H         LINE#         861
  C:89FDH         LINE#         862
  C:8A05H         LINE#         863
  C:8A0DH         LINE#         864
  C:8A15H         LINE#         865
  C:8A1DH         LINE#         866
  C:8A26H         LINE#         868
  C:8A3DH         LINE#         869
  C:8A47H         LINE#         870
  C:8A51H         LINE#         871
  C:8A5BH         LINE#         872
  C:8A61H         LINE#         873
  C:8A63H         LINE#         875
  C:8A63H         LINE#         876
  C:8A69H         LINE#         877
  C:8A69H         LINE#         878
  C:8A6EH         LINE#         879
  -------         ENDPROC       _ANALIZA_UID_CARD
  -------         PROC          INGRESO_VEHICULO
  -------         DO            
  X:0002H         SYMBOL        CardAutomatic
  X:00B9H         SYMBOL        pulseboton
  -------         ENDDO         
  C:9A4CH         LINE#         883
  C:9A4CH         LINE#         884
  C:9A4CH         LINE#         887
  C:9A55H         LINE#         889
  C:9A5EH         LINE#         890
  C:9A5EH         LINE#         892
  C:9A6CH         LINE#         894
  C:9A6FH         LINE#         895
  C:9A6FH         LINE#         897
  C:9A72H         LINE#         899
  C:9A72H         LINE#         901
  C:9A7AH         LINE#         902
  C:9A7AH         LINE#         903
  C:9A83H         LINE#         904
  C:9A88H         LINE#         905
  C:9A88H         LINE#         906
  C:9A8AH         LINE#         908
  C:9A8AH         LINE#         910
  C:9A8DH         LINE#         911
  C:9A8DH         LINE#         913
  C:9A90H         LINE#         915
  C:9A90H         LINE#         917
  C:9A9DH         LINE#         918
  C:9AA2H         LINE#         919
  C:9AA7H         LINE#         920
  C:9AA9H         LINE#         922
  C:9AA9H         LINE#         923
  C:9AAFH         LINE#         926
BL51 BANKED LINKER/LOCATER V6.22.2.0                                                  09/10/2021  16:23:10  PAGE 114


  C:9AAFH         LINE#         927
  C:9AB2H         LINE#         928
  C:9AB5H         LINE#         929
  C:9AB5H         LINE#         930
  C:9AB7H         LINE#         931
  C:9ABCH         LINE#         932
  C:9AC0H         LINE#         933
  C:9AC6H         LINE#         934
  C:9AC8H         LINE#         936
  C:9AC8H         LINE#         937
  C:9ACBH         LINE#         938
  C:9ACBH         LINE#         940
  C:9ACEH         LINE#         942
  C:9ACEH         LINE#         943
  C:9AD4H         LINE#         944
  C:9ADAH         LINE#         945
  C:9ADAH         LINE#         948
  C:9ADAH         LINE#         949
  C:9ADCH         LINE#         951
  C:9ADCH         LINE#         954
  C:9ADEH         LINE#         955
  C:9AE4H         LINE#         956
  C:9AE4H         LINE#         957
  C:9AE9H         LINE#         958
  -------         ENDPROC       INGRESO_VEHICULO
  -------         PROC          RESPONDE_ESTADO_SENSORES_TRANSPORTE
  -------         DO            
  X:0002H         SYMBOL        Estado_expedidor
  -------         ENDDO         
  C:AA9AH         LINE#         965
  C:AA9AH         LINE#         966
  C:AA9AH         LINE#         969
  C:AAA3H         LINE#         971
  C:AAABH         LINE#         972
  C:AAABH         LINE#         974
  C:AAB6H         LINE#         975
  C:AAB6H         LINE#         976
  C:AABAH         LINE#         977
  C:AABAH         LINE#         978
  C:AAC3H         LINE#         979
  C:AAC8H         LINE#         981
  C:AAC8H         LINE#         983
  C:AACAH         LINE#         985
  C:AACAH         LINE#         988
  C:AAD0H         LINE#         990
  C:AAD0H         LINE#         991
  C:AAD2H         LINE#         993
  C:AAD2H         LINE#         995
  C:AADBH         LINE#         997
  C:AAE0H         LINE#         1000
  C:AAE5H         LINE#         1001
  C:AAE5H         LINE#         1002
  C:AAE7H         LINE#         1003
  C:AAEEH         LINE#         1004
  C:AAEEH         LINE#         1006
  C:AAF4H         LINE#         1008
  C:AAF4H         LINE#         1009
BL51 BANKED LINKER/LOCATER V6.22.2.0                                                  09/10/2021  16:23:10  PAGE 115


  C:AAF6H         LINE#         1010
  C:AAFDH         LINE#         1012
  C:AAFDH         LINE#         1013
  C:AB06H         LINE#         1014
  C:AB0CH         LINE#         1015
  C:AB0CH         LINE#         1020
  C:AB11H         LINE#         1021
  -------         ENDPROC       RESPONDE_ESTADO_SENSORES_TRANSPORTE
  -------         PROC          RESPONDE_TIPO_TARJETA
  -------         DO            
  X:0002H         SYMBOL        Estado_expedidor
  -------         ENDDO         
  C:A719H         LINE#         1037
  C:A719H         LINE#         1038
  C:A719H         LINE#         1041
  C:A722H         LINE#         1043
  C:A72AH         LINE#         1044
  C:A72AH         LINE#         1045
  C:A735H         LINE#         1046
  C:A735H         LINE#         1047
  C:A73EH         LINE#         1048
  C:A744H         LINE#         1049
  C:A744H         LINE#         1050
  C:A744H         LINE#         1051
  C:A746H         LINE#         1053
  C:A746H         LINE#         1054
  C:A749H         LINE#         1055
  C:A749H         LINE#         1056
  C:A74BH         LINE#         1058
  C:A74BH         LINE#         1059
  C:A752H         LINE#         1060
  C:A752H         LINE#         1062
  C:A75BH         LINE#         1064
  C:A760H         LINE#         1065
  C:A765H         LINE#         1067
  C:A768H         LINE#         1069
  C:A76AH         LINE#         1071
  C:A76AH         LINE#         1073
  C:A76AH         LINE#         1074
  C:A76AH         LINE#         1075
  C:A76AH         LINE#         1076
  C:A76AH         LINE#         1077
  C:A76CH         LINE#         1079
  C:A76CH         LINE#         1080
  C:A773H         LINE#         1081
  C:A773H         LINE#         1084
  C:A77CH         LINE#         1086
  C:A781H         LINE#         1087
  C:A786H         LINE#         1089
  C:A78CH         LINE#         1092
  C:A78EH         LINE#         1094
  C:A78EH         LINE#         1096
  C:A790H         LINE#         1097
  C:A795H         LINE#         1098
  C:A795H         LINE#         1099
  C:A795H         LINE#         1101
  C:A79AH         LINE#         1102
BL51 BANKED LINKER/LOCATER V6.22.2.0                                                  09/10/2021  16:23:10  PAGE 116


  -------         ENDPROC       RESPONDE_TIPO_TARJETA
  -------         PROC          _RESPONDE_LECTURA_TARJETA_SECTOR1_BLOQUE1
  X:0002H         SYMBOL        Atributos_Expedidor
  -------         DO            
  D:0007H         SYMBOL        temp
  X:0005H         SYMBOL        Estado_expedidor
  X:0006H         SYMBOL        buffer_S1_B1
  X:0017H         SYMBOL        ID_CLIENTE
  D:0007H         SYMBOL        COD_PARK
  X:00BAH         SYMBOL        falla
  -------         ENDDO         
  C:5F20H         LINE#         1114
  C:5F2BH         LINE#         1115
  C:5F2BH         LINE#         1122
  C:5F34H         LINE#         1126
  C:5F44H         LINE#         1127
  C:5F44H         LINE#         1129
  C:5F50H         LINE#         1130
  C:5F50H         LINE#         1131
  C:5F68H         LINE#         1133
  C:5F6BH         LINE#         1136
  C:5F74H         LINE#         1137
  C:5F85H         LINE#         1138
  C:5F92H         LINE#         1139
  C:5F9BH         LINE#         1142
  C:5FBAH         LINE#         1143
  C:5FBAH         LINE#         1145
  C:5FC3H         LINE#         1146
  C:5FCBH         LINE#         1147
  C:5FD4H         LINE#         1149
  C:5FDDH         LINE#         1150
  C:5FE5H         LINE#         1151
  C:5FEEH         LINE#         1153
  C:5FF7H         LINE#         1154
  C:5FFFH         LINE#         1155
  C:6008H         LINE#         1157
  C:6011H         LINE#         1158
  C:6019H         LINE#         1159
  C:6022H         LINE#         1161
  C:602BH         LINE#         1162
  C:6033H         LINE#         1163
  C:603CH         LINE#         1165
  C:6053H         LINE#         1167
  C:605DH         LINE#         1168
  C:6067H         LINE#         1169
  C:6071H         LINE#         1171
  C:6076H         LINE#         1172
  C:6089H         LINE#         1173
  C:608EH         LINE#         1174
  C:6094H         LINE#         1176
  C:6096H         LINE#         1178
  C:6096H         LINE#         1179
  C:609BH         LINE#         1180
  C:60A4H         LINE#         1181
  C:60A9H         LINE#         1182
  C:60ABH         LINE#         1183
  C:60ABH         LINE#         1184
BL51 BANKED LINKER/LOCATER V6.22.2.0                                                  09/10/2021  16:23:10  PAGE 117


  C:60ABH         LINE#         1185
  C:60ADH         LINE#         1187
  C:60ADH         LINE#         1189
  C:60B5H         LINE#         1190
  C:60B5H         LINE#         1191
  C:60BBH         LINE#         1192
  C:60BBH         LINE#         1193
  C:60C8H         LINE#         1195
  C:60C8H         LINE#         1196
  C:60D1H         LINE#         1197
  C:60D7H         LINE#         1199
  C:60D9H         LINE#         1201
  C:60D9H         LINE#         1202
  C:60DEH         LINE#         1203
  C:60E7H         LINE#         1204
  C:60ECH         LINE#         1205
  C:60F1H         LINE#         1206
  C:60F7H         LINE#         1207
  C:60F7H         LINE#         1208
  C:60F7H         LINE#         1210
  C:60FCH         LINE#         1211
  -------         ENDPROC       _RESPONDE_LECTURA_TARJETA_SECTOR1_BLOQUE1
  -------         PROC          _RESPONDE_LECTURA_TARJETA_SECTOR1_BLOQUE2
  X:0002H         SYMBOL        Atributos_Expedidor
  -------         DO            
  D:0007H         SYMBOL        temp
  X:0005H         SYMBOL        Estado_expedidor
  X:0006H         SYMBOL        buffer_S1_B2
  -------         ENDDO         
  C:6FFDH         LINE#         1216
  C:7008H         LINE#         1217
  C:7008H         LINE#         1223
  C:7011H         LINE#         1227
  C:7021H         LINE#         1228
  C:7021H         LINE#         1230
  C:702DH         LINE#         1231
  C:702DH         LINE#         1232
  C:7045H         LINE#         1233
  C:7048H         LINE#         1234
  C:7051H         LINE#         1235
  C:7062H         LINE#         1239
  C:706BH         LINE#         1240
  C:7078H         LINE#         1241
  C:7094H         LINE#         1242
  C:709DH         LINE#         1244
  C:70A6H         LINE#         1246
  C:70C2H         LINE#         1247
  C:70CCH         LINE#         1248
  C:70D5H         LINE#         1251
  C:70DEH         LINE#         1252
  C:70E6H         LINE#         1253
  C:70EFH         LINE#         1257
  C:7106H         LINE#         1260
  C:7112H         LINE#         1261
  C:7118H         LINE#         1264
  C:711AH         LINE#         1266
  C:711AH         LINE#         1267
BL51 BANKED LINKER/LOCATER V6.22.2.0                                                  09/10/2021  16:23:10  PAGE 118


  C:7120H         LINE#         1268
  C:7120H         LINE#         1269
  C:7125H         LINE#         1270
  -------         ENDPROC       _RESPONDE_LECTURA_TARJETA_SECTOR1_BLOQUE2
  -------         PROC          _RESPONDE_LECTURA_TARJETA_SECTOR1_BLOQUE0
  X:0002H         SYMBOL        Nombre_Mensual
  -------         DO            
  D:0007H         SYMBOL        temp
  X:0005H         SYMBOL        Estado_expedidor
  -------         ENDDO         
  C:9D55H         LINE#         1272
  C:9D60H         LINE#         1273
  C:9D60H         LINE#         1279
  C:9D69H         LINE#         1283
  C:9D76H         LINE#         1284
  C:9D76H         LINE#         1286
  C:9D82H         LINE#         1287
  C:9D82H         LINE#         1288
  C:9DA2H         LINE#         1289
  C:9DA5H         LINE#         1290
  C:9DB9H         LINE#         1291
  C:9DC2H         LINE#         1292
  C:9DD0H         LINE#         1293
  C:9DD9H         LINE#         1294
  C:9DDFH         LINE#         1297
  C:9DE1H         LINE#         1299
  C:9DE1H         LINE#         1300
  C:9DE7H         LINE#         1301
  C:9DE7H         LINE#         1302
  C:9DECH         LINE#         1303
  -------         ENDPROC       _RESPONDE_LECTURA_TARJETA_SECTOR1_BLOQUE0
  -------         PROC          _RESPONDE_REELECTURA_TARJETA_SECTOR1_BLOQUE2
  X:0002H         SYMBOL        lectura_anterior
  X:0005H         SYMBOL        Atributos_Expedidor
  -------         DO            
  D:0007H         SYMBOL        temp
  X:0008H         SYMBOL        Estado_expedidor
  X:0009H         SYMBOL        reelectura
  X:00BBH         SYMBOL        error_lectura
  -------         ENDDO         
  C:674CH         LINE#         1304
  C:6757H         LINE#         1305
  C:6757H         LINE#         1311
  C:6760H         LINE#         1314
  C:6770H         LINE#         1315
  C:6770H         LINE#         1317
  C:677CH         LINE#         1318
  C:677CH         LINE#         1319
  C:679CH         LINE#         1320
  C:679FH         LINE#         1321
  C:67B3H         LINE#         1322
  C:67BCH         LINE#         1323
  C:67D2H         LINE#         1324
  C:67DBH         LINE#         1326
  C:67FFH         LINE#         1327
  C:67FFH         LINE#         1328
  C:6803H         LINE#         1329
BL51 BANKED LINKER/LOCATER V6.22.2.0                                                  09/10/2021  16:23:10  PAGE 119


  C:680CH         LINE#         1330
  C:6815H         LINE#         1331
  C:6825H         LINE#         1332
  C:6837H         LINE#         1333
  C:683DH         LINE#         1334
  C:683DH         LINE#         1335
  C:683FH         LINE#         1337
  C:683FH         LINE#         1338
  C:6845H         LINE#         1339
  C:6855H         LINE#         1340
  C:6855H         LINE#         1341
  C:6858H         LINE#         1342
  C:685EH         LINE#         1344
  C:6860H         LINE#         1346
  C:6860H         LINE#         1347
  C:6863H         LINE#         1348
  C:686CH         LINE#         1349
  C:687CH         LINE#         1350
  C:688FH         LINE#         1351
  C:6895H         LINE#         1353
  C:6895H         LINE#         1354
  C:6895H         LINE#         1356
  C:6895H         LINE#         1357
  C:689AH         LINE#         1358
  -------         ENDPROC       _RESPONDE_REELECTURA_TARJETA_SECTOR1_BLOQUE2
  -------         PROC          _RESPONDE_WRITE_TARJETA_SECTOR1_BLOQUE1
  X:0002H         SYMBOL        Buffer_Write_MF
  -------         DO            
  D:0007H         SYMBOL        Estado_expedidor
  -------         ENDDO         
  C:B973H         LINE#         1359
  C:B97EH         LINE#         1360
  C:B97EH         LINE#         1362
  C:B987H         LINE#         1363
  C:B990H         LINE#         1364
  C:B9A6H         LINE#         1365
  C:B9A8H         LINE#         1366
  C:B9A8H         LINE#         1367
  -------         ENDPROC       _RESPONDE_WRITE_TARJETA_SECTOR1_BLOQUE1
  -------         PROC          _RESPONDE_WRITE_TARJETA_SECTOR1_BLOQUE2
  X:0002H         SYMBOL        Atributos_Expedidor
  X:0005H         SYMBOL        Buffer_Write_MF
  -------         DO            
  X:0008H         SYMBOL        Estado_expedidor
  -------         ENDDO         
  C:A3FDH         LINE#         1368
  C:A408H         LINE#         1369
  C:A408H         LINE#         1371
  C:A411H         LINE#         1372
  C:A41AH         LINE#         1373
  C:A430H         LINE#         1374
  C:A440H         LINE#         1375
  C:A440H         LINE#         1378
  C:A443H         LINE#         1379
  C:A455H         LINE#         1380
  C:A45BH         LINE#         1381
  C:A461H         LINE#         1382
BL51 BANKED LINKER/LOCATER V6.22.2.0                                                  09/10/2021  16:23:10  PAGE 120


  C:A463H         LINE#         1384
  C:A463H         LINE#         1385
  C:A466H         LINE#         1386
  C:A478H         LINE#         1387
  C:A47EH         LINE#         1389
  C:A47EH         LINE#         1390
  C:A483H         LINE#         1391
  -------         ENDPROC       _RESPONDE_WRITE_TARJETA_SECTOR1_BLOQUE2
  -------         PROC          _RESPONDE_WRITE_TARJETA_SECTOR1_BLOQUE0
  X:0002H         SYMBOL        Buffer_Write_MF
  C:B9A9H         LINE#         1394
  C:B9B4H         LINE#         1395
  C:B9B4H         LINE#         1397
  C:B9BDH         LINE#         1398
  C:B9C6H         LINE#         1399
  C:B9DCH         LINE#         1401
  C:B9DEH         LINE#         1402
  -------         ENDPROC       _RESPONDE_WRITE_TARJETA_SECTOR1_BLOQUE0
  -------         PROC          _RESPONDE_WRITE_TARJETA_SECTOR2_BLOQUE0
  X:0002H         SYMBOL        Buffer_Write_MF
  C:B284H         LINE#         1405
  C:B28FH         LINE#         1406
  C:B28FH         LINE#         1408
  C:B298H         LINE#         1409
  C:B2A1H         LINE#         1410
  C:B2AAH         LINE#         1411
  C:B2B3H         LINE#         1412
  C:B2C8H         LINE#         1413
  C:B2CAH         LINE#         1414
  -------         ENDPROC       _RESPONDE_WRITE_TARJETA_SECTOR2_BLOQUE0
  -------         PROC          _PREGUNTA_LPR
  X:0002H         SYMBOL        Atributos_Expedidor
  -------         DO            
  D:0007H         SYMBOL        Estado_expedidor
  X:0005H         SYMBOL        contador
  X:0007H         SYMBOL        time_out
  -------         ENDDO         
  C:AD86H         LINE#         1418
  C:AD91H         LINE#         1419
  C:AD91H         LINE#         1421
  C:AD96H         LINE#         1422
  C:AD9AH         LINE#         1423
  C:ADA3H         LINE#         1424
  C:ADB1H         LINE#         1425
  C:ADBFH         LINE#         1426
  C:ADBFH         LINE#         1428
  C:ADD0H         LINE#         1429
  C:ADDCH         LINE#         1430
  C:ADDCH         LINE#         1431
  C:ADE0H         LINE#         1433
  C:ADE0H         LINE#         1434
  C:ADE0H         LINE#         1437
  C:ADE2H         LINE#         1439
  C:ADE2H         LINE#         1440
  -------         ENDPROC       _PREGUNTA_LPR
  -------         PROC          PREGUNTA_PLACA_HABILITADA
  -------         DO            
BL51 BANKED LINKER/LOCATER V6.22.2.0                                                  09/10/2021  16:23:10  PAGE 121


  X:0002H         SYMBOL        Estado_expedidor
  -------         ENDDO         
  C:BA78H         LINE#         1442
  C:BA78H         LINE#         1443
  C:BA78H         LINE#         1445
  C:BA81H         LINE#         1446
  C:BA90H         LINE#         1447
  C:BA90H         LINE#         1449
  C:BA93H         LINE#         1450
  C:BA98H         LINE#         1451
  C:BA9DH         LINE#         1452
  C:BA9FH         LINE#         1454
  C:BA9FH         LINE#         1455
  C:BAA2H         LINE#         1456
  C:BAA2H         LINE#         1457
  C:BAA7H         LINE#         1458
  -------         ENDPROC       PREGUNTA_PLACA_HABILITADA
  -------         PROC          _RESPUESTA_SEGUNDA_CLAVE
  X:0002H         SYMBOL        Atributos_Expedidor
  X:0005H         SYMBOL        Buffer_Write_MF
  C:ADE3H         LINE#         1459
  C:ADEEH         LINE#         1460
  C:ADEEH         LINE#         1462
  C:ADF7H         LINE#         1463
  C:AE0DH         LINE#         1466
  C:AE1DH         LINE#         1467
  C:AE2FH         LINE#         1468
  C:AE3DH         LINE#         1470
  C:AE3FH         LINE#         1471
  -------         ENDPROC       _RESPUESTA_SEGUNDA_CLAVE
  -------         PROC          RESPUESTA_PLACA_CANCEL
  -------         DO            
  X:0003H         SYMBOL        Estado_expedidor
  -------         ENDDO         
  C:B2CBH         LINE#         1472
  C:B2CBH         LINE#         1473
  C:B2CBH         LINE#         1477
  C:B2D4H         LINE#         1478
  C:B2DDH         LINE#         1479
  C:B2E6H         LINE#         1483
  C:B2FCH         LINE#         1484
  C:B2FCH         LINE#         1485
  C:B304H         LINE#         1486
  C:B304H         LINE#         1487
  C:B306H         LINE#         1489
  C:B306H         LINE#         1491
  C:B30CH         LINE#         1493
  C:B30CH         LINE#         1494
  C:B311H         LINE#         1495
  -------         ENDPROC       RESPUESTA_PLACA_CANCEL
  -------         PROC          _ARMAR_TRAMA_TARJETA_SECTOR1_BLOQUE2
  X:000FH         SYMBOL        Atributos_Expedidor
  X:0012H         SYMBOL        Buffer_Write_MF
  C:5D35H         LINE#         1527
  C:5D40H         LINE#         1528
  C:5D40H         LINE#         1533
  C:5D64H         LINE#         1534
BL51 BANKED LINKER/LOCATER V6.22.2.0                                                  09/10/2021  16:23:10  PAGE 122


  C:5D8BH         LINE#         1535
  C:5DB2H         LINE#         1536
  C:5DD9H         LINE#         1537
  C:5E00H         LINE#         1540
  C:5E07H         LINE#         1541
  C:5E0EH         LINE#         1542
  C:5E15H         LINE#         1544
  C:5E2AH         LINE#         1545
  C:5E2AH         LINE#         1546
  C:5E41H         LINE#         1547
  C:5E5AH         LINE#         1548
  C:5E5AH         LINE#         1549
  C:5E5DH         LINE#         1553
  C:5E5DH         LINE#         1555
  C:5E8CH         LINE#         1556
  C:5EBBH         LINE#         1558
  C:5ED3H         LINE#         1559
  C:5ED3H         LINE#         1560
  C:5EE0H         LINE#         1561
  C:5EE2H         LINE#         1563
  C:5EE2H         LINE#         1564
  C:5EF2H         LINE#         1565
  C:5EF2H         LINE#         1566
  C:5EF2H         LINE#         1568
  C:5F04H         LINE#         1569
  C:5F0BH         LINE#         1570
  C:5F12H         LINE#         1571
  C:5F19H         LINE#         1572
  -------         ENDPROC       _ARMAR_TRAMA_TARJETA_SECTOR1_BLOQUE2
  -------         PROC          L?0346
  -------         ENDPROC       L?0346
  -------         PROC          _ARMAR_TRAMA_TARJETA_SECTOR1_BLOQUE0
  X:000CH         SYMBOL        Buffer_Write_MF
  C:BAB0H         LINE#         1574
  C:BABBH         LINE#         1575
  C:BABBH         LINE#         1577
  -------         ENDPROC       _ARMAR_TRAMA_TARJETA_SECTOR1_BLOQUE0
  -------         PROC          _ARMAR_TRAMA_PTO_PARALELO_EXPEDIDOR
  X:0009H         SYMBOL        Atributos_Expedidor
  X:000CH         SYMBOL        longitud_trama_pto_paralelo
  -------         DO            
  X:00BCH         SYMBOL        buffer
  X:000FH         SYMBOL        ticket
  X:001AH         SYMBOL        j
  -------         ENDDO         
  C:509FH         LINE#         1579
  C:50AAH         LINE#         1580
  C:50AAH         LINE#         1587
  C:50B0H         LINE#         1588
  C:50B4H         LINE#         1589
  C:50B7H         LINE#         1590
  C:50C3H         LINE#         1591
  C:50DAH         LINE#         1592
  C:50E8H         LINE#         1594
  C:50F9H         LINE#         1596
  C:5125H         LINE#         1597
  C:5151H         LINE#         1598
BL51 BANKED LINKER/LOCATER V6.22.2.0                                                  09/10/2021  16:23:10  PAGE 123


  C:517DH         LINE#         1599
  C:51A9H         LINE#         1600
  C:51D5H         LINE#         1601
  C:51E9H         LINE#         1611
  C:51F8H         LINE#         1612
  C:51F8H         LINE#         1613
  C:51FEH         LINE#         1614
  C:51FEH         LINE#         1615
  C:5215H         LINE#         1616
  C:522BH         LINE#         1617
  C:5241H         LINE#         1618
  C:5257H         LINE#         1619
  C:526DH         LINE#         1620
  C:5282H         LINE#         1621
  C:5282H         LINE#         1622
  C:5284H         LINE#         1624
  C:5284H         LINE#         1625
  C:5297H         LINE#         1626
  C:5297H         LINE#         1627
  C:5297H         LINE#         1628
  C:5299H         LINE#         1630
  C:5299H         LINE#         1631
  C:52ADH         LINE#         1632
  C:52C0H         LINE#         1633
  C:52C0H         LINE#         1634
  C:52CEH         LINE#         1635
  C:52DCH         LINE#         1636
  C:52EEH         LINE#         1638
  C:52F4H         LINE#         1639
  -------         ENDPROC       _ARMAR_TRAMA_PTO_PARALELO_EXPEDIDOR
  -------         PROC          _ARMAR_TRAMA_PTO_PARALELO_EXPEDIDOR_MENSUAL
  X:0009H         SYMBOL        Atributos_Expedidor
  X:000CH         SYMBOL        longitud_trama_pto_paralelo
  -------         DO            
  X:00D8H         SYMBOL        buffer
  -------         ENDDO         
  C:6ECFH         LINE#         1640
  C:6EDAH         LINE#         1641
  C:6EDAH         LINE#         1647
  C:6EE0H         LINE#         1648
  C:6EE4H         LINE#         1649
  C:6EF9H         LINE#         1650
  C:6F03H         LINE#         1651
  C:6F0DH         LINE#         1652
  C:6F17H         LINE#         1656
  C:6F28H         LINE#         1657
  C:6F44H         LINE#         1658
  C:6F60H         LINE#         1659
  C:6F7CH         LINE#         1660
  C:6F98H         LINE#         1670
  C:6FA4H         LINE#         1671
  C:6FA4H         LINE#         1673
  C:6FABH         LINE#         1674
  C:6FAFH         LINE#         1675
  C:6FB3H         LINE#         1676
  C:6FB7H         LINE#         1677
  C:6FBBH         LINE#         1678
BL51 BANKED LINKER/LOCATER V6.22.2.0                                                  09/10/2021  16:23:10  PAGE 124


  C:6FBFH         LINE#         1680
  C:6FBFH         LINE#         1682
  C:6FD5H         LINE#         1683
  C:6FD5H         LINE#         1684
  C:6FD8H         LINE#         1685
  C:6FDAH         LINE#         1687
  C:6FDAH         LINE#         1688
  C:6FDDH         LINE#         1689
  C:6FDDH         LINE#         1691
  C:6FE3H         LINE#         1692
  C:6FE6H         LINE#         1693
  C:6FF6H         LINE#         1694
  C:6FFCH         LINE#         1695
  -------         ENDPROC       _ARMAR_TRAMA_PTO_PARALELO_EXPEDIDOR_MENSUAL
  -------         PROC          _ARMAR_TRAMA_MONITOR
  X:0009H         SYMBOL        Atributos_Expedidor
  -------         DO            
  X:00F4H         SYMBOL        buffer
  X:000CH         SYMBOL        ticket
  X:0017H         SYMBOL        j
  -------         ENDDO         
  C:4DFCH         LINE#         1696
  C:4E07H         LINE#         1697
  C:4E07H         LINE#         1703
  C:4E0CH         LINE#         1704
  C:4E12H         LINE#         1705
  C:4E1AH         LINE#         1706
  C:4E1EH         LINE#         1707
  C:4E27H         LINE#         1708
  C:4E27H         LINE#         1709
  C:4E2AH         LINE#         1710
  C:4E2CH         LINE#         1712
  C:4E2CH         LINE#         1713
  C:4E2FH         LINE#         1714
  C:4E2FH         LINE#         1717
  C:4E32H         LINE#         1718
  C:4E32H         LINE#         1719
  C:4E37H         LINE#         1720
  C:4E43H         LINE#         1721
  C:4E5AH         LINE#         1722
  C:4E5DH         LINE#         1724
  C:4E5DH         LINE#         1725
  C:4E78H         LINE#         1726
  C:4E86H         LINE#         1727
  C:4E94H         LINE#         1728
  C:4EA0H         LINE#         1729
  C:4EAEH         LINE#         1730
  C:4EE7H         LINE#         1732
  C:4EE7H         LINE#         1733
  C:4EF5H         LINE#         1734
  C:4F06H         LINE#         1737
  C:4F32H         LINE#         1738
  C:4F50H         LINE#         1741
  C:4F71H         LINE#         1742
  C:4F8FH         LINE#         1745
  C:4FB0H         LINE#         1746
  C:4FCEH         LINE#         1749
BL51 BANKED LINKER/LOCATER V6.22.2.0                                                  09/10/2021  16:23:10  PAGE 125


  C:4FEFH         LINE#         1750
  C:500DH         LINE#         1753
  C:502EH         LINE#         1754
  C:504CH         LINE#         1755
  C:505FH         LINE#         1758
  C:506DH         LINE#         1760
  C:507BH         LINE#         1761
  C:5088H         LINE#         1762
  C:5094H         LINE#         1763
  C:5099H         LINE#         1764
  C:509EH         LINE#         1765
  -------         ENDPROC       _ARMAR_TRAMA_MONITOR
  -------         PROC          _ARMAR_TRAMA_PLACA
  X:0008H         SYMBOL        Buffer_Write_MF
  -------         DO            
  D:0007H         SYMBOL        j
  X:000BH         SYMBOL        len_placa
  -------         ENDDO         
  C:A58EH         LINE#         1766
  C:A599H         LINE#         1767
  C:A599H         LINE#         1770
  C:A5A7H         LINE#         1771
  C:A5A9H         LINE#         1772
  C:A5A9H         LINE#         1773
  C:A5B7H         LINE#         1774
  C:A5B7H         LINE#         1775
  C:A5C5H         LINE#         1776
  C:A5D1H         LINE#         1777
  C:A5D1H         LINE#         1778
  C:A5EBH         LINE#         1779
  C:A5EEH         LINE#         1781
  C:A5FAH         LINE#         1782
  C:A5FAH         LINE#         1783
  C:A60EH         LINE#         1784
  C:A611H         LINE#         1785
  -------         ENDPROC       _ARMAR_TRAMA_PLACA
  C:B7A1H         SYMBOL        L?0345
  -------         PROC          L?0344
  -------         ENDPROC       L?0344
  C:B7A1H         SYMBOL        L?0345
  -------         PROC          _LOAD_SECUENCIA_EXPEDIDOR
  D:0001H         SYMBOL        Secuencia_Expedidor
  D:0004H         SYMBOL        estadoactivo
  X:0007H         SYMBOL        estadoactual
  X:0009H         SYMBOL        estadofuturo
  C:B7BDH         LINE#         1786
  C:B7BDH         LINE#         1787
  C:B7BDH         LINE#         1788
  C:B7C4H         LINE#         1789
  C:B7CCH         LINE#         1790
  C:B7D7H         LINE#         1791
  C:B7DDH         LINE#         1792
  -------         ENDPROC       _LOAD_SECUENCIA_EXPEDIDOR
  -------         PROC          _DISPARO_LOCK_ENTRADA_VEHICULO
  X:0002H         SYMBOL        Nombre_Mensual
  -------         DO            
  X:0005H         SYMBOL        Estado_expedidor
BL51 BANKED LINKER/LOCATER V6.22.2.0                                                  09/10/2021  16:23:10  PAGE 126


  X:010CH         SYMBOL        take_card
  -------         ENDDO         
  C:A02FH         LINE#         1793
  C:A03AH         LINE#         1794
  C:A03AH         LINE#         1799
  C:A043H         LINE#         1803
  C:A04AH         LINE#         1804
  C:A04AH         LINE#         1806
  C:A053H         LINE#         1808
  C:A059H         LINE#         1809
  C:A05BH         LINE#         1810
  C:A060H         LINE#         1812
  C:A070H         LINE#         1813
  C:A076H         LINE#         1816
  C:A078H         LINE#         1817
  C:A080H         LINE#         1818
  C:A080H         LINE#         1819
  C:A086H         LINE#         1820
  C:A086H         LINE#         1821
  C:A093H         LINE#         1822
  C:A098H         LINE#         1823
  C:A09DH         LINE#         1824
  C:A09FH         LINE#         1826
  C:A09FH         LINE#         1827
  C:A0A5H         LINE#         1829
  C:A0A5H         LINE#         1831
  C:A0ABH         LINE#         1832
  C:A0B1H         LINE#         1834
  C:A0B3H         LINE#         1836
  C:A0B3H         LINE#         1837
  C:A0B9H         LINE#         1838
  C:A0B9H         LINE#         1840
  C:A0B9H         LINE#         1845
  C:A0BEH         LINE#         1846
  -------         ENDPROC       _DISPARO_LOCK_ENTRADA_VEHICULO
  -------         PROC          _SEND_PTO_PARALELO
  X:0002H         SYMBOL        Atributos_Expedidor
  -------         DO            
  X:0005H         SYMBOL        Trama_Expedidor
  X:0008H         SYMBOL        leng_trama_pto
  -------         ENDDO         
  C:9864H         LINE#         1847
  C:986FH         LINE#         1848
  C:986FH         LINE#         1851
  C:9872H         LINE#         1852
  C:9872H         LINE#         1853
  C:9899H         LINE#         1854
  C:989BH         LINE#         1856
  C:989BH         LINE#         1857
  C:98C2H         LINE#         1858
  C:98C5H         LINE#         1859
  C:98C5H         LINE#         1861
  C:98D6H         LINE#         1862
  C:98DFH         LINE#         1863
  C:98F6H         LINE#         1867
  C:98F9H         LINE#         1868
  C:98FFH         LINE#         1869
BL51 BANKED LINKER/LOCATER V6.22.2.0                                                  09/10/2021  16:23:10  PAGE 127


  C:9904H         LINE#         1870
  C:9906H         LINE#         1871
  C:9908H         LINE#         1872
  -------         ENDPROC       _SEND_PTO_PARALELO
  -------         PROC          ENTREGA_CARD_CAPTURA
  -------         DO            
  X:0002H         SYMBOL        Estado_expedidor
  -------         ENDDO         
  C:9B87H         LINE#         1876
  C:9B87H         LINE#         1877
  C:9B87H         LINE#         1881
  C:9B90H         LINE#         1882
  C:9B93H         LINE#         1883
  C:9B96H         LINE#         1884
  C:9B96H         LINE#         1885
  C:9BA0H         LINE#         1886
  C:9BA0H         LINE#         1887
  C:9BA2H         LINE#         1888
  C:9BA4H         LINE#         1889
  C:9BADH         LINE#         1890
  C:9BADH         LINE#         1891
  C:9BADH         LINE#         1893
  C:9BAFH         LINE#         1895
  C:9BAFH         LINE#         1896
  C:9BB5H         LINE#         1897
  C:9BB5H         LINE#         1899
  C:9BBBH         LINE#         1901
  C:9BCEH         LINE#         1902
  C:9BCEH         LINE#         1903
  C:9BDBH         LINE#         1904
  C:9BDBH         LINE#         1905
  C:9BDDH         LINE#         1906
  C:9BE6H         LINE#         1908
  C:9BE8H         LINE#         1909
  C:9BEDH         LINE#         1910
  C:9BF3H         LINE#         1912
  C:9BF5H         LINE#         1913
  C:9C02H         LINE#         1914
  C:9C02H         LINE#         1915
  C:9C08H         LINE#         1916
  C:9C08H         LINE#         1917
  C:9C08H         LINE#         1919
  C:9C0AH         LINE#         1921
  C:9C0AH         LINE#         1922
  C:9C0CH         LINE#         1923
  C:9C15H         LINE#         1924
  C:9C17H         LINE#         1925
  C:9C1CH         LINE#         1926
  C:9C1CH         LINE#         1927
  C:9C1CH         LINE#         1929
  C:9C21H         LINE#         1930
  -------         ENDPROC       ENTREGA_CARD_CAPTURA
  -------         PROC          WAIT_PLACA
  -------         DO            
  X:0002H         SYMBOL        Estado_expedidor
  -------         ENDDO         
  C:A14CH         LINE#         1931
BL51 BANKED LINKER/LOCATER V6.22.2.0                                                  09/10/2021  16:23:10  PAGE 128


  C:A14CH         LINE#         1932
  C:A14CH         LINE#         1936
  C:A155H         LINE#         1938
  C:A16BH         LINE#         1939
  C:A16BH         LINE#         1940
  C:A16EH         LINE#         1941
  C:A16EH         LINE#         1943
  C:A171H         LINE#         1944
  C:A171H         LINE#         1945
  C:A173H         LINE#         1947
  C:A179H         LINE#         1948
  C:A179H         LINE#         1950
  C:A181H         LINE#         1951
  C:A183H         LINE#         1954
  C:A183H         LINE#         1955
  C:A189H         LINE#         1956
  C:A19CH         LINE#         1957
  C:A19CH         LINE#         1958
  C:A1A9H         LINE#         1959
  C:A1A9H         LINE#         1961
  C:A1B8H         LINE#         1962
  C:A1BEH         LINE#         1963
  C:A1C0H         LINE#         1964
  C:A1CDH         LINE#         1965
  C:A1CDH         LINE#         1966
  C:A1D3H         LINE#         1967
  C:A1D3H         LINE#         1968
  C:A1D3H         LINE#         1969
  C:A1D3H         LINE#         1970
  C:A1D8H         LINE#         1971
  -------         ENDPROC       WAIT_PLACA
  -------         PROC          _TARJETA_ROTACION
  D:0001H         SYMBOL        Atributos_Expedidor
  X:000CH         SYMBOL        Buffer_Write_MF
  C:BA47H         LINE#         2049
  C:BA47H         LINE#         2050
  C:BA47H         LINE#         2051
  C:BA4CH         LINE#         2052
  C:BA55H         LINE#         2053
  C:BA75H         LINE#         2054
  C:BA77H         LINE#         2057
  -------         ENDPROC       _TARJETA_ROTACION
  -------         PROC          _VALIDA_TIPO_TARJETA
  X:0002H         SYMBOL        Atributos_Expedidor
  X:0005H         SYMBOL        Buffer_Write_MF
  -------         DO            
  X:0008H         SYMBOL        Estado_expedidor
  -------         ENDDO         
  C:88BEH         LINE#         2058
  C:88C9H         LINE#         2059
  C:88C9H         LINE#         2100
  C:88D6H         LINE#         2101
  C:88D6H         LINE#         2103
  C:88DFH         LINE#         2104
  C:88E5H         LINE#         2105
  C:88E5H         LINE#         2106
  C:88F1H         LINE#         2107
BL51 BANKED LINKER/LOCATER V6.22.2.0                                                  09/10/2021  16:23:10  PAGE 129


  C:88F1H         LINE#         2108
  C:890EH         LINE#         2110
  C:890EH         LINE#         2111
  C:892BH         LINE#         2112
  C:892DH         LINE#         2114
  C:892DH         LINE#         2115
  C:8936H         LINE#         2116
  C:893BH         LINE#         2117
  C:893DH         LINE#         2118
  C:893DH         LINE#         2119
  C:893DH         LINE#         2120
  C:893FH         LINE#         2122
  C:893FH         LINE#         2123
  C:8948H         LINE#         2124
  C:8970H         LINE#         2125
  C:8970H         LINE#         2126
  C:8972H         LINE#         2128
  C:8972H         LINE#         2130
  C:8977H         LINE#         2131
  C:897CH         LINE#         2132
  C:897CH         LINE#         2133
  C:897CH         LINE#         2134
  C:897EH         LINE#         2136
  C:897EH         LINE#         2137
  C:8987H         LINE#         2138
  C:898CH         LINE#         2140
  C:8992H         LINE#         2141
  C:8992H         LINE#         2143
  C:8997H         LINE#         2144
  -------         ENDPROC       _VALIDA_TIPO_TARJETA
  -------         PROC          SECUENCIA_INICIO_EXPEDIDOR
  -------         DO            
  X:0001H         SYMBOL        temp
  -------         ENDDO         
  C:6B1EH         LINE#         2398
  C:6B1EH         LINE#         2399
  C:6B1EH         LINE#         2401
  C:6B3EH         LINE#         2402
  C:6B3EH         LINE#         2403
  C:6B3EH         LINE#         2406
  C:6B43H         LINE#         2407
  C:6B49H         LINE#         2410
  C:6B4BH         LINE#         2411
  C:6B4BH         LINE#         2422
  C:6B4BH         LINE#         2424
  C:6B59H         LINE#         2425
  C:6B59H         LINE#         2426
  C:6B65H         LINE#         2427
  C:6B65H         LINE#         2428
  C:6B6BH         LINE#         2429
  C:6B6EH         LINE#         2430
  C:6B76H         LINE#         2431
  C:6B76H         LINE#         2432
  C:6B7DH         LINE#         2433
  C:6B91H         LINE#         2434
  C:6B91H         LINE#         2435
  C:6B93H         LINE#         2437
BL51 BANKED LINKER/LOCATER V6.22.2.0                                                  09/10/2021  16:23:10  PAGE 130


  C:6B93H         LINE#         2438
  C:6B9AH         LINE#         2439
  C:6BA0H         LINE#         2440
  C:6BA0H         LINE#         2441
  C:6BA3H         LINE#         2443
  C:6BA3H         LINE#         2444
  C:6BACH         LINE#         2445
  C:6BC0H         LINE#         2446
  C:6BC6H         LINE#         2447
  C:6BC6H         LINE#         2448
  C:6BC9H         LINE#         2449
  C:6BC9H         LINE#         2455
  C:6BC9H         LINE#         2457
  C:6BCCH         LINE#         2458
  C:6BD2H         LINE#         2462
  C:6BD4H         LINE#         2463
  C:6BD4H         LINE#         2473
  C:6BD4H         LINE#         2475
  C:6BE2H         LINE#         2476
  C:6BE2H         LINE#         2477
  C:6BEEH         LINE#         2478
  C:6BEEH         LINE#         2479
  C:6BF4H         LINE#         2480
  C:6BF6H         LINE#         2481
  C:6BFEH         LINE#         2482
  C:6BFEH         LINE#         2483
  C:6C05H         LINE#         2484
  C:6C19H         LINE#         2485
  C:6C19H         LINE#         2486
  C:6C1BH         LINE#         2488
  C:6C1BH         LINE#         2489
  C:6C22H         LINE#         2490
  C:6C28H         LINE#         2491
  C:6C28H         LINE#         2492
  C:6C2AH         LINE#         2494
  C:6C2AH         LINE#         2495
  C:6C33H         LINE#         2496
  C:6C47H         LINE#         2497
  C:6C4CH         LINE#         2498
  C:6C4CH         LINE#         2500
  C:6C4EH         LINE#         2501
  C:6C4EH         LINE#         2507
  C:6C4EH         LINE#         2509
  C:6C54H         LINE#         2510
  C:6C54H         LINE#         2513
  C:6C54H         LINE#         2514
  C:6C5BH         LINE#         2515
  C:6C5BH         LINE#         2516
  C:6C5BH         LINE#         2517
  -------         ENDPROC       SECUENCIA_INICIO_EXPEDIDOR
  -------         PROC          _SECUENCIAEXPEDIDORMF
  X:0001H         SYMBOL        EstadoActivo
  -------         DO            
  X:010DH         SYMBOL        Buffer_Write_MF
  X:011EH         SYMBOL        Atributos_Expedidor
  X:0132H         SYMBOL        Secuencia_Expedidor
  X:0136H         SYMBOL        Nombre_Mensual
BL51 BANKED LINKER/LOCATER V6.22.2.0                                                  09/10/2021  16:23:10  PAGE 131


  -------         ENDDO         
  C:38AFH         LINE#         2527
  C:38B4H         LINE#         2528
  C:38B4H         LINE#         2536
  C:3920H         LINE#         2537
  C:3920H         LINE#         2540
  C:3920H         LINE#         2542
  C:3933H         LINE#         2543
  C:3933H         LINE#         2544
  C:3935H         LINE#         2545
  C:3937H         LINE#         2546
  C:393CH         LINE#         2547
  C:3944H         LINE#         2548
  C:3949H         LINE#         2549
  C:3949H         LINE#         2551
  C:394CH         LINE#         2552
  C:394CH         LINE#         2554
  C:3955H         LINE#         2555
  C:3958H         LINE#         2556
  C:3958H         LINE#         2557
  C:395DH         LINE#         2558
  C:397DH         LINE#         2559
  C:3980H         LINE#         2560
  C:3980H         LINE#         2561
  C:3983H         LINE#         2562
  C:398BH         LINE#         2563
  C:3991H         LINE#         2564
  C:3994H         LINE#         2566
  C:3994H         LINE#         2567
  C:3997H         LINE#         2568
  C:39BCH         LINE#         2569
  C:39C2H         LINE#         2570
  C:39C4H         LINE#         2571
  C:39C7H         LINE#         2572
  C:39C7H         LINE#         2573
  C:39D2H         LINE#         2574
  C:39DAH         LINE#         2575
  C:39E0H         LINE#         2576
  C:39E3H         LINE#         2577
  C:39E3H         LINE#         2578
  C:39F4H         LINE#         2579
  C:39FCH         LINE#         2580
  C:3A02H         LINE#         2581
  C:3A05H         LINE#         2582
  C:3A05H         LINE#         2583
  C:3A0AH         LINE#         2584
  C:3A2DH         LINE#         2585
  C:3A2FH         LINE#         2586
  C:3A32H         LINE#         2587
  C:3A32H         LINE#         2588
  C:3A37H         LINE#         2589
  C:3A57H         LINE#         2590
  C:3A5AH         LINE#         2591
  C:3A5AH         LINE#         2592
  C:3A5FH         LINE#         2593
  C:3A61H         LINE#         2594
  C:3A7FH         LINE#         2595
BL51 BANKED LINKER/LOCATER V6.22.2.0                                                  09/10/2021  16:23:10  PAGE 132


  C:3A82H         LINE#         2596
  C:3A82H         LINE#         2597
  C:3A87H         LINE#         2598
  C:3AA7H         LINE#         2599
  C:3AAAH         LINE#         2600
  C:3AAAH         LINE#         2601
  C:3ABDH         LINE#         2602
  C:3ABDH         LINE#         2603
  C:3AC2H         LINE#         2604
  C:3ACAH         LINE#         2605
  C:3ACDH         LINE#         2606
  C:3ACDH         LINE#         2607
  C:3AD0H         LINE#         2609
  C:3AD0H         LINE#         2610
  C:3AD3H         LINE#         2611
  C:3AF3H         LINE#         2612
  C:3AF6H         LINE#         2613
  C:3AF6H         LINE#         2614
  C:3AF8H         LINE#         2615
  C:3AFBH         LINE#         2616
  C:3AFEH         LINE#         2617
  C:3AFEH         LINE#         2618
  C:3B07H         LINE#         2619
  C:3B0AH         LINE#         2620
  C:3B0AH         LINE#         2622
  C:3B10H         LINE#         2623
  C:3B13H         LINE#         2624
  C:3B16H         LINE#         2625
  C:3B16H         LINE#         2626
  C:3B19H         LINE#         2627
  C:3B21H         LINE#         2628
  C:3B27H         LINE#         2629
  C:3B2AH         LINE#         2630
  C:3B2AH         LINE#         2631
  C:3B33H         LINE#         2632
  C:3B36H         LINE#         2633
  C:3B36H         LINE#         2634
  C:3B38H         LINE#         2635
  C:3B3BH         LINE#         2636
  C:3B3EH         LINE#         2637
  C:3B3EH         LINE#         2638
  C:3B55H         LINE#         2639
  C:3B58H         LINE#         2640
  C:3B58H         LINE#         2643
  C:3B5DH         LINE#         2644
  C:3B65H         LINE#         2645
  C:3B6BH         LINE#         2647
  C:3B6EH         LINE#         2648
  C:3B6EH         LINE#         2649
  C:3B71H         LINE#         2650
  C:3B91H         LINE#         2651
  C:3B94H         LINE#         2652
  C:3B94H         LINE#         2653
  C:3B97H         LINE#         2654
  C:3BB7H         LINE#         2655
  C:3BBAH         LINE#         2656
  C:3BBAH         LINE#         2657
BL51 BANKED LINKER/LOCATER V6.22.2.0                                                  09/10/2021  16:23:10  PAGE 133


  C:3BBDH         LINE#         2658
  C:3BC5H         LINE#         2659
  C:3BCBH         LINE#         2660
  C:3BCEH         LINE#         2661
  C:3BCEH         LINE#         2663
  C:3BD9H         LINE#         2664
  C:3BE1H         LINE#         2665
  C:3BF5H         LINE#         2666
  C:3BF8H         LINE#         2667
  C:3BF8H         LINE#         2668
  C:3C0BH         LINE#         2669
  C:3C0BH         LINE#         2670
  C:3C0EH         LINE#         2671
  C:3C0EH         LINE#         2672
  C:3C11H         LINE#         2673
  C:3C11H         LINE#         2674
  C:3C24H         LINE#         2675
  C:3C24H         LINE#         2676
  C:3C27H         LINE#         2677
  C:3C27H         LINE#         2678
  C:3C2AH         LINE#         2679
  C:3C2AH         LINE#         2680
  C:3C2DH         LINE#         2681
  C:3C30H         LINE#         2683
  C:3C30H         LINE#         2684
  C:3C36H         LINE#         2685
  C:3C36H         LINE#         2686
  C:3C39H         LINE#         2687
  C:3C39H         LINE#         2688
  C:3C39H         LINE#         2689
  C:3C3CH         LINE#         2693
  C:3C3CH         LINE#         2694
  C:3C42H         LINE#         2695
  C:3C48H         LINE#         2696
  C:3C48H         LINE#         2697
  C:3C50H         LINE#         2698
  C:3C56H         LINE#         2700
  C:3C59H         LINE#         2701
  C:3C61H         LINE#         2702
  C:3C61H         LINE#         2704
  C:3C64H         LINE#         2705
  C:3C67H         LINE#         2706
  C:3C6FH         LINE#         2707
  C:3C6FH         LINE#         2708
  C:3C7DH         LINE#         2709
  C:3C7DH         LINE#         2710
  C:3C86H         LINE#         2711
  C:3C89H         LINE#         2712
  C:3C95H         LINE#         2713
  C:3C95H         LINE#         2714
  C:3C9EH         LINE#         2715
  C:3CA1H         LINE#         2717
  C:3CA1H         LINE#         2718
  C:3CAAH         LINE#         2719
  C:3CAAH         LINE#         2720
  C:3CADH         LINE#         2721
  C:3CB5H         LINE#         2722
BL51 BANKED LINKER/LOCATER V6.22.2.0                                                  09/10/2021  16:23:10  PAGE 134


  C:3CB5H         LINE#         2723
  C:3CC3H         LINE#         2724
  C:3CC3H         LINE#         2725
  C:3CD9H         LINE#         2726
  C:3CDCH         LINE#         2727
  C:3CE8H         LINE#         2728
  C:3CE8H         LINE#         2729
  C:3CF1H         LINE#         2730
  C:3CF3H         LINE#         2731
  C:3D01H         LINE#         2732
  C:3D01H         LINE#         2733
  C:3D0AH         LINE#         2734
  C:3D0CH         LINE#         2736
  C:3D0CH         LINE#         2737
  C:3D15H         LINE#         2738
  C:3D15H         LINE#         2739
  C:3D17H         LINE#         2740
  C:3D1FH         LINE#         2741
  C:3D1FH         LINE#         2742
  C:3D28H         LINE#         2743
  C:3D2AH         LINE#         2744
  C:3D32H         LINE#         2745
  C:3D32H         LINE#         2746
  C:3D48H         LINE#         2747
  C:3D4AH         LINE#         2749
  C:3D52H         LINE#         2750
  C:3D52H         LINE#         2751
  C:3D5BH         LINE#         2752
  C:3D5DH         LINE#         2755
  C:3D65H         LINE#         2756
  C:3D65H         LINE#         2757
  C:3D6DH         LINE#         2758
  C:3D6FH         LINE#         2760
  C:3D6FH         LINE#         2761
  C:3D78H         LINE#         2762
  C:3D78H         LINE#         2763
  C:3D7AH         LINE#         2764
  C:3D7AH         LINE#         2765
  C:3D7FH         LINE#         2766
  C:3D7FH         LINE#         2768
  C:3D7FH         LINE#         2769
  C:3D84H         LINE#         2770
  -------         ENDPROC       _SECUENCIAEXPEDIDORMF
  -------         ENDMOD        VERIFICADOR

  -------         MODULE        MONITOR
  C:0000H         SYMBOL        _ICE_DUMMY_
  D:0080H         PUBLIC        P0
  D:0090H         PUBLIC        P1
  I:0011H         PUBLIC        placa
  B:0080H.2       PUBLIC        led_err_imp
  C:B8CAH         PUBLIC        Rx_Monitor
  B:0080H.0       PUBLIC        rx_ip
  B:0090H.7       PUBLIC        lock
  C:80ABH         PUBLIC        _recibe_cmd_Monitor
  C:BCCCH         PUBLIC        clear_placa
  C:AF48H         PUBLIC        Timer_monitor_char
BL51 BANKED LINKER/LOCATER V6.22.2.0                                                  09/10/2021  16:23:10  PAGE 135


  C:9225H         PUBLIC        _Valida_Trama_Monitor
  -------         PROC          TIMER_MONITOR_CHAR
  -------         DO            
  X:0017H         SYMBOL        time_out
  X:0018H         SYMBOL        contador
  -------         ENDDO         
  C:AF48H         LINE#         52
  C:AF48H         LINE#         53
  C:AF48H         LINE#         56
  C:AF4FH         LINE#         57
  C:AF53H         LINE#         58
  C:AF5CH         LINE#         59
  C:AF5CH         LINE#         60
  C:AF6AH         LINE#         61
  C:AF81H         LINE#         62
  C:AF81H         LINE#         63
  C:AF87H         LINE#         64
  C:AF87H         LINE#         65
  C:AF89H         LINE#         66
  C:AF91H         LINE#         67
  C:AF91H         LINE#         68
  C:AF94H         LINE#         70
  C:AF94H         LINE#         72
  C:AF94H         LINE#         73
  C:AF98H         LINE#         74
  C:AF98H         LINE#         76
  -------         ENDPROC       TIMER_MONITOR_CHAR
  -------         PROC          _RECIBE_CMD_MONITOR
  X:0011H         SYMBOL        buffer_cmd
  -------         DO            
  X:0014H         SYMBOL        j
  X:0015H         SYMBOL        NumDatos
  X:0016H         SYMBOL        MaxChrRx
  -------         ENDDO         
  C:80ABH         LINE#         86
  C:80B6H         LINE#         87
  C:80B6H         LINE#         91
  C:80BBH         LINE#         92
  C:80BFH         LINE#         93
  C:80C3H         LINE#         97
  C:80CAH         LINE#         98
  C:80CAH         LINE#         99
  C:80CAH         LINE#         100
  C:80CDH         LINE#         102
  C:80CDH         LINE#         103
  C:80DFH         LINE#         106
  C:80F4H         LINE#         107
  C:80F4H         LINE#         108
  C:80FAH         LINE#         109
  C:8104H         LINE#         111
  C:811AH         LINE#         112
  C:811AH         LINE#         113
  C:8121H         LINE#         114
  C:8121H         LINE#         115
  C:8121H         LINE#         116
  C:8121H         LINE#         118
  C:8121H         LINE#         119
BL51 BANKED LINKER/LOCATER V6.22.2.0                                                  09/10/2021  16:23:10  PAGE 136


  C:8133H         LINE#         120
  C:8145H         LINE#         121
  C:8145H         LINE#         122
  C:814DH         LINE#         123
  C:8151H         LINE#         124
  C:815BH         LINE#         125
  C:8164H         LINE#         127
  C:8166H         LINE#         129
  C:8166H         LINE#         130
  C:816CH         LINE#         131
  C:8176H         LINE#         132
  C:8176H         LINE#         134
  C:8176H         LINE#         135
  C:817EH         LINE#         136
  C:817EH         LINE#         137
  C:8190H         LINE#         138
  C:8190H         LINE#         140
  C:8193H         LINE#         141
  C:8195H         LINE#         143
  C:8195H         LINE#         145
  C:819AH         LINE#         147
  C:819AH         LINE#         149
  C:819AH         LINE#         150
  C:819FH         LINE#         151
  -------         ENDPROC       _RECIBE_CMD_MONITOR
  -------         PROC          _VALIDA_TRAMA_MONITOR
  X:0011H         SYMBOL        buffer
  D:0005H         SYMBOL        length_trama
  -------         DO            
  X:0014H         SYMBOL        j
  X:0015H         SYMBOL        p
  X:0016H         SYMBOL        cont
  -------         ENDDO         
  C:9225H         LINE#         157
  C:9230H         LINE#         158
  C:9230H         LINE#         159
  C:9233H         LINE#         160
  C:9237H         LINE#         161
  C:923AH         LINE#         162
  C:923CH         LINE#         165
  C:9250H         LINE#         166
  C:9250H         LINE#         168
  C:9252H         LINE#         170
  C:9259H         LINE#         171
  C:925EH         LINE#         173
  C:925EH         LINE#         175
  C:9279H         LINE#         176
  C:9279H         LINE#         179
  C:9279H         LINE#         180
  C:929AH         LINE#         181
  C:929EH         LINE#         182
  C:92A4H         LINE#         183
  C:92B6H         LINE#         184
  C:92CEH         LINE#         185
  C:92D7H         LINE#         186
  C:92D9H         LINE#         187
  C:92DFH         LINE#         188
BL51 BANKED LINKER/LOCATER V6.22.2.0                                                  09/10/2021  16:23:10  PAGE 137


  C:92E1H         LINE#         190
  C:92E1H         LINE#         193
  -------         ENDPROC       _VALIDA_TRAMA_MONITOR
  -------         PROC          CLEAR_PLACA
  -------         DO            
  D:0007H         SYMBOL        i
  -------         ENDDO         
  C:BCCCH         LINE#         194
  C:BCCCH         LINE#         195
  C:BCCCH         LINE#         197
  C:BCD8H         LINE#         198
  C:BCD8H         LINE#         199
  C:BCDEH         LINE#         200
  C:BCE1H         LINE#         201
  C:BCE3H         LINE#         202
  C:BCE5H         LINE#         203
  -------         ENDPROC       CLEAR_PLACA
  -------         PROC          RX_MONITOR
  -------         DO            
  X:0003H         SYMBOL        Length_trama
  X:0004H         SYMBOL        buffer1
  -------         ENDDO         
  C:B8CAH         LINE#         204
  C:B8CAH         LINE#         205
  C:B8CAH         LINE#         208
  C:B8CFH         LINE#         209
  C:B8DEH         LINE#         210
  C:B8E7H         LINE#         211
  C:B8F5H         LINE#         212
  -------         ENDPROC       RX_MONITOR
  -------         ENDMOD        MONITOR

  -------         MODULE        ?C?FPADD
  C:145DH         PUBLIC        ?C?FPADD
  C:1459H         PUBLIC        ?C?FPSUB
  -------         ENDMOD        ?C?FPADD

  -------         MODULE        ?C?FPMUL
  C:154EH         PUBLIC        ?C?FPMUL
  -------         ENDMOD        ?C?FPMUL

  -------         MODULE        ?C?FCAST
  C:165EH         PUBLIC        ?C?FCASTC
  C:1659H         PUBLIC        ?C?FCASTI
  C:1654H         PUBLIC        ?C?FCASTL
  -------         ENDMOD        ?C?FCAST

  -------         MODULE        ?C?CASTF
  C:1692H         PUBLIC        ?C?CASTF
  -------         ENDMOD        ?C?CASTF

  -------         MODULE        PRINTF
  X:0077H         PUBLIC        ?_PRINTF?BYTE
  X:0077H         PUBLIC        ?_SPRINTF?BYTE
  C:3DF0H         PUBLIC        _PRINTF
  C:3DEAH         PUBLIC        _SPRINTF
  -------         ENDMOD        PRINTF
BL51 BANKED LINKER/LOCATER V6.22.2.0                                                  09/10/2021  16:23:10  PAGE 138



  -------         MODULE        POW
  X:0024H         PUBLIC        ?_pow?BYTE
  C:65E6H         PUBLIC        _pow
  -------         ENDMOD        POW

  -------         MODULE        ?C?CHKFLOAT
  C:1713H         PUBLIC        ?C?CHKFLOAT
  -------         ENDMOD        ?C?CHKFLOAT

  -------         MODULE        ?C?FPCMP
  C:172FH         PUBLIC        ?C?FPCMP
  C:172DH         PUBLIC        ?C?FPCMP3
  -------         ENDMOD        ?C?FPCMP

  -------         MODULE        ?C?FPNEG
  C:17A6H         PUBLIC        ?C?FPNEG
  -------         ENDMOD        ?C?FPNEG

  -------         MODULE        ?C?FPROUND
  C:17B7H         PUBLIC        ?C?FPROUND
  -------         ENDMOD        ?C?FPROUND

  -------         MODULE        ?C?FPCONVERT
  C:17F4H         PUBLIC        ?C?FPCONVERT
  -------         ENDMOD        ?C?FPCONVERT

  -------         MODULE        EXP
  C:9C5AH         PUBLIC        _EXP
  -------         ENDMOD        EXP

  -------         MODULE        LOG
  C:715AH         PUBLIC        _LOG
  C:7156H         PUBLIC        _LOG10
  -------         ENDMOD        LOG

  -------         MODULE        ?C?FPDIV
  C:18FCH         PUBLIC        ?C?FPDIV
  -------         ENDMOD        ?C?FPDIV

  -------         MODULE        ?C?FTNPWR
  C:19C9H         PUBLIC        ?C?FTNPWR
  -------         ENDMOD        ?C?FTNPWR

  -------         MODULE        ?C?COPY
  C:1B26H         PUBLIC        ?C?COPY
  -------         ENDMOD        ?C?COPY

  -------         MODULE        ?C?CLDPTR
  C:1B4CH         PUBLIC        ?C?CLDPTR
  -------         ENDMOD        ?C?CLDPTR

  -------         MODULE        ?C?CLDOPTR
  C:1B65H         PUBLIC        ?C?CLDOPTR
  -------         ENDMOD        ?C?CLDOPTR

  -------         MODULE        ?C?CSTPTR
BL51 BANKED LINKER/LOCATER V6.22.2.0                                                  09/10/2021  16:23:10  PAGE 139


  C:1B92H         PUBLIC        ?C?CSTPTR
  -------         ENDMOD        ?C?CSTPTR

  -------         MODULE        ?C?CSTOPTR
  C:1BA4H         PUBLIC        ?C?CSTOPTR
  -------         ENDMOD        ?C?CSTOPTR

  -------         MODULE        ?C?IMUL
  C:1BC6H         PUBLIC        ?C?IMUL
  -------         ENDMOD        ?C?IMUL

  -------         MODULE        ?C?IILDX
  C:1BD8H         PUBLIC        ?C?IILDX
  -------         ENDMOD        ?C?IILDX

  -------         MODULE        ?C?LNEG
  C:1BEEH         PUBLIC        ?C?LNEG
  -------         ENDMOD        ?C?LNEG

  -------         MODULE        ?C?SLCMP
  C:1BFCH         PUBLIC        ?C?SLCMP
  -------         ENDMOD        ?C?SLCMP

  -------         MODULE        ?C?ULCMP
  C:1C12H         PUBLIC        ?C?ULCMP
  -------         ENDMOD        ?C?ULCMP

  -------         MODULE        ?C?ULSHR
  C:1C23H         PUBLIC        ?C?ULSHR
  -------         ENDMOD        ?C?ULSHR

  -------         MODULE        ?C?LSHL
  C:1C36H         PUBLIC        ?C?LSHL
  -------         ENDMOD        ?C?LSHL

  -------         MODULE        ?C?LLDCODE
  C:1C49H         PUBLIC        ?C?LLDCODE
  -------         ENDMOD        ?C?LLDCODE

  -------         MODULE        ?C?LLDXDATA0
  C:1C59H         PUBLIC        ?C?LLDXDATA0
  -------         ENDMOD        ?C?LLDXDATA0

  -------         MODULE        ?C?LLDCODE0
  C:1C65H         PUBLIC        ?C?LLDCODE0
  -------         ENDMOD        ?C?LLDCODE0

  -------         MODULE        ?C?LSTXDATA
  C:1C75H         PUBLIC        ?C?LSTXDATA
  -------         ENDMOD        ?C?LSTXDATA

  -------         MODULE        ?C?LSTKXDATA
  C:1C81H         PUBLIC        ?C?LSTKXDATA
  -------         ENDMOD        ?C?LSTKXDATA

  -------         MODULE        ?C?PLDIXDATA
  C:1CB2H         PUBLIC        ?C?PLDIXDATA
BL51 BANKED LINKER/LOCATER V6.22.2.0                                                  09/10/2021  16:23:10  PAGE 140


  -------         ENDMOD        ?C?PLDIXDATA

  -------         MODULE        ?C?PSTXDATA
  C:1CC9H         PUBLIC        ?C?PSTXDATA
  -------         ENDMOD        ?C?PSTXDATA

  -------         MODULE        ?C?CCASE
  C:1CD2H         PUBLIC        ?C?CCASE
  -------         ENDMOD        ?C?CCASE

  -------         MODULE        STRCAT
  X:0046H         PUBLIC        ?_strcat?BYTE
  C:ABF5H         PUBLIC        _strcat
  -------         ENDMOD        STRCAT

  -------         MODULE        ?C?STRCMP
  C:1E76H         PUBLIC        ?C?STRCMP
  -------         ENDMOD        ?C?STRCMP

  -------         MODULE        ?C?STRCPY
  C:1F5FH         PUBLIC        ?C?STRCPY
  -------         ENDMOD        ?C?STRCPY

  -------         MODULE        STRLEN
  C:000EH         PUBLIC        _STRLEN
  -------         ENDMOD        STRLEN

  -------         MODULE        STRTOK
  X:0064H         PUBLIC        ?_strtok?BYTE
  C:846BH         PUBLIC        _strtok
  -------         ENDMOD        STRTOK

  -------         MODULE        ATOL
  C:76BFH         PUBLIC        _atol
  -------         ENDMOD        ATOL

  -------         MODULE        ATOI
  C:8709H         PUBLIC        _atoi
  -------         ENDMOD        ATOI

  -------         MODULE        ?C?ILDIX
  C:1F7CH         PUBLIC        ?C?ILDIX
  -------         ENDMOD        ?C?ILDIX

  -------         MODULE        ?C?LMUL
  C:1F92H         PUBLIC        ?C?LMUL
  -------         ENDMOD        ?C?LMUL

  -------         MODULE        ISDIGIT
  C:BDEDH         PUBLIC        _isdigit
  -------         ENDMOD        ISDIGIT

  -------         MODULE        ISSPACE
  C:BD3DH         PUBLIC        _isspace
  -------         ENDMOD        ISSPACE

  -------         MODULE        STRSPN
BL51 BANKED LINKER/LOCATER V6.22.2.0                                                  09/10/2021  16:23:10  PAGE 141


  X:006AH         PUBLIC        ?_strspn?BYTE
  C:A612H         PUBLIC        _strspn
  -------         ENDMOD        STRSPN

  -------         MODULE        STRPBRK
  X:006AH         PUBLIC        ?_strpbrk?BYTE
  C:A81CH         PUBLIC        _strpbrk
  -------         ENDMOD        STRPBRK

Program Size: data=99.1 xdata=543 code=48755
LINK/LOCATE RUN COMPLETE.  0 WARNING(S),  0 ERROR(S)
